	.text
	.file	"llvm/GCD_original.openmp.ll"
	.globl	gcd
	.p2align	4, 0x90
	.type	gcd,@function
gcd:                                    # @gcd
.Lfunc_begin0:
	.file	1 "GCD_original.c"
	.loc	1 2 0                   # GCD_original.c:2:0
	.cfi_startproc
# BB#0:                                 # %entry
	#DEBUG_VALUE: gcd:a <- %RDI
	#DEBUG_VALUE: gcd:b <- %RSI
	#DEBUG_VALUE: gcd:_2 <- 0
	#DEBUG_VALUE: gcd:_3 <- 0
	#DEBUG_VALUE: gcd:_4 <- 0
	#DEBUG_VALUE: gcd:_5 <- 0
	#DEBUG_VALUE: gcd:_6 <- 0
	#DEBUG_VALUE: gcd:_7 <- 0
	.loc	1 12 6 prologue_end     # GCD_original.c:12:6
	testq	%rdi, %rdi
	je	.LBB0_1
.Ltmp0:
# BB#2:                                 # %while.cond.preheader
	#DEBUG_VALUE: gcd:b <- %RSI
	#DEBUG_VALUE: gcd:a <- %RDI
	#DEBUG_VALUE: gcd:_4 <- 0
	js	.LBB0_6
.Ltmp1:
# BB#3:                                 # %blklab4.lr.ph.preheader
	#DEBUG_VALUE: gcd:b <- %RSI
	#DEBUG_VALUE: gcd:a <- %RDI
	.loc	1 35 7                  # GCD_original.c:35:7
	testq	%rsi, %rsi
	je	.LBB0_8
.Ltmp2:
	.p2align	4, 0x90
.LBB0_4:                                # %blklab4
                                        # =>This Inner Loop Header: Depth=1
	#DEBUG_VALUE: gcd:_5 <- 0
	.loc	1 37 6                  # GCD_original.c:37:6
	movq	%rdi, %rax
	subq	%rsi, %rax
	jle	.LBB0_7
# BB#5:                                 # %if.end9
                                        #   in Loop: Header=BB0_4 Depth=1
.Ltmp3:
	#DEBUG_VALUE: gcd:a <- %RAX
	#DEBUG_VALUE: gcd:_4 <- 0
	#DEBUG_VALUE: gcd:_6 <- %RAX
	movq	%rax, %rdi
.Ltmp4:
	#DEBUG_VALUE: gcd:_6 <- %RDI
	#DEBUG_VALUE: gcd:a <- %RDI
	jns	.LBB0_4
	jmp	.LBB0_6
.Ltmp5:
.LBB0_7:                                # %blklab5
                                        #   in Loop: Header=BB0_4 Depth=1
	.loc	1 47 7                  # GCD_original.c:47:7
	subq	%rdi, %rsi
.Ltmp6:
	#DEBUG_VALUE: gcd:_7 <- %RSI
	#DEBUG_VALUE: gcd:_4 <- 0
	#DEBUG_VALUE: gcd:b <- %RSI
	jne	.LBB0_4
.Ltmp7:
.LBB0_8:                                # %cleanup
	#DEBUG_VALUE: gcd:b <- %RSI
	.loc	1 60 1                  # GCD_original.c:60:1
	movq	%rdi, %rax
	retq
.Ltmp8:
.LBB0_1:
	#DEBUG_VALUE: gcd:b <- %RSI
	#DEBUG_VALUE: gcd:a <- %RDI
	movq	%rsi, %rdi
.Ltmp9:
	movq	%rdi, %rax
	retq
.Ltmp10:
.LBB0_6:                                # %if.end3
	#DEBUG_VALUE: gcd:a <- %RDI
	.loc	1 26 12                 # GCD_original.c:26:12
	pushq	%rax
.Ltmp11:
	.cfi_def_cfa_offset 16
	movq	stderr(%rip), %rcx
	.loc	1 26 4 is_stmt 0        # GCD_original.c:26:4
	movl	$.L.str, %edi
.Ltmp12:
	movl	$4, %esi
	movl	$1, %edx
	callq	fwrite
	.loc	1 27 4 is_stmt 1        # GCD_original.c:27:4
	movl	$-1, %edi
	callq	exit
.Ltmp13:
.Lfunc_end0:
	.size	gcd, .Lfunc_end0-gcd
	.cfi_endproc

	.section	.rodata.cst16,"aM",@progbits,16
	.p2align	4
.LCPI1_0:
	.quad	78                      # 0x4e
	.quad	32                      # 0x20
.LCPI1_1:
	.quad	61                      # 0x3d
	.quad	32                      # 0x20
.LCPI1_2:
	.quad	83                      # 0x53
	.quad	117                     # 0x75
.LCPI1_3:
	.quad	109                     # 0x6d
	.quad	58                      # 0x3a
.LCPI1_4:
	.quad	80                      # 0x50
	.quad	97                      # 0x61
.LCPI1_5:
	.quad	115                     # 0x73
	.quad	115                     # 0x73
.LCPI1_6:
	.quad	32                      # 0x20
	.quad	69                      # 0x45
.LCPI1_7:
	.quad	117                     # 0x75
	.quad	99                      # 0x63
.LCPI1_8:
	.quad	108                     # 0x6c
	.quad	105                     # 0x69
.LCPI1_9:
	.quad	100                     # 0x64
	.quad	32                      # 0x20
.LCPI1_10:
	.quad	71                      # 0x47
	.quad	67                      # 0x43
.LCPI1_11:
	.quad	68                      # 0x44
	.quad	32                      # 0x20
.LCPI1_12:
	.quad	116                     # 0x74
	.quad	101                     # 0x65
.LCPI1_13:
	.quad	115                     # 0x73
	.quad	116                     # 0x74
.LCPI1_14:
	.quad	32                      # 0x20
	.quad	99                      # 0x63
.LCPI1_15:
	.quad	97                      # 0x61
	.quad	115                     # 0x73
	.text
	.globl	main
	.p2align	4, 0x90
	.type	main,@function
main:                                   # @main
.Lfunc_begin1:
	.loc	1 62 0                  # GCD_original.c:62:0
	.cfi_startproc
# BB#0:                                 # %entry
	.loc	1 97 2 prologue_end     # GCD_original.c:97:2
	pushq	%r15
.Ltmp14:
	.cfi_def_cfa_offset 16
	pushq	%r14
.Ltmp15:
	.cfi_def_cfa_offset 24
	pushq	%r12
.Ltmp16:
	.cfi_def_cfa_offset 32
	pushq	%rbx
.Ltmp17:
	.cfi_def_cfa_offset 40
	pushq	%rax
.Ltmp18:
	.cfi_def_cfa_offset 48
.Ltmp19:
	.cfi_offset %rbx, -40
.Ltmp20:
	.cfi_offset %r12, -32
.Ltmp21:
	.cfi_offset %r14, -24
.Ltmp22:
	.cfi_offset %r15, -16
	#DEBUG_VALUE: main:argc <- %EDI
	#DEBUG_VALUE: main:args <- %RSI
.Ltmp23:
	#DEBUG_VALUE: main:max_dealloc <- 0
	#DEBUG_VALUE: main:n <- 0
	#DEBUG_VALUE: main:sum <- 0
	#DEBUG_VALUE: main:i <- 0
	#DEBUG_VALUE: main:j <- 0
	#DEBUG_VALUE: main:_6_dealloc <- 0
	#DEBUG_VALUE: main:_7_size <- 0
	#DEBUG_VALUE: main:_7_size_size <- 0
	#DEBUG_VALUE: main:_7_dealloc <- 0
	#DEBUG_VALUE: main:_8 <- 0
	#DEBUG_VALUE: main:_9_size <- 0
	#DEBUG_VALUE: main:_9_dealloc <- 0
	#DEBUG_VALUE: main:_12_size <- 0
	#DEBUG_VALUE: main:_12_dealloc <- 0
	#DEBUG_VALUE: main:_15 <- 0
	#DEBUG_VALUE: main:_16 <- 0
	#DEBUG_VALUE: main:_17 <- 0
	#DEBUG_VALUE: main:_18 <- 0
	#DEBUG_VALUE: main:_19 <- 0
	#DEBUG_VALUE: main:_20 <- 0
	#DEBUG_VALUE: main:_21 <- 0
	#DEBUG_VALUE: main:_22 <- 0
	#DEBUG_VALUE: main:_23 <- 0
	#DEBUG_VALUE: main:_26_size <- 0
	#DEBUG_VALUE: main:_26_dealloc <- 0
	#DEBUG_VALUE: main:_31_size <- 0
	#DEBUG_VALUE: main:_31_dealloc <- 0
	callq	convertArgsToIntArray
.Ltmp24:
	#DEBUG_VALUE: main:_7 <- %RAX
	.loc	1 101 5                 # GCD_original.c:101:5
	movq	(%rax), %rdi
.Ltmp25:
	#DEBUG_VALUE: main:_9 <- %RDI
	.loc	1 104 2                 # GCD_original.c:104:2
	callq	parseStringToInt
.Ltmp26:
	movq	%rax, %r14
.Ltmp27:
	#DEBUG_VALUE: main:max <- %R14
	#DEBUG_VALUE: main:_6 <- %R14
	#DEBUG_VALUE: main:max_dealloc <- 1
	.loc	1 112 9                 # GCD_original.c:112:9
	testq	%r14, %r14
	je	.LBB1_12
.Ltmp28:
# BB#1:                                 # %if.end5
	#DEBUG_VALUE: main:_6 <- %R14
	#DEBUG_VALUE: main:max <- %R14
	.loc	1 114 6                 # GCD_original.c:114:6
	movq	(%r14), %r12
.Ltmp29:
	#DEBUG_VALUE: main:_12_size <- 4
	#DEBUG_VALUE: main:n <- %R12
	.loc	1 127 2                 # GCD_original.c:127:2
	xorl	%ebx, %ebx
	.loc	1 119 2                 # GCD_original.c:119:2
	xorl	%edi, %edi
	movl	$4, %esi
	callq	create1DArray
	movq	%rax, %r15
.Ltmp30:
	#DEBUG_VALUE: main:_12 <- %R15
	.loc	1 120 9                 # GCD_original.c:120:9
	movaps	.LCPI1_0(%rip), %xmm0   # xmm0 = [78,32]
	movups	%xmm0, (%r15)
	.loc	1 120 35 is_stmt 0      # GCD_original.c:120:35
	movaps	.LCPI1_1(%rip), %xmm0   # xmm0 = [61,32]
	movups	%xmm0, 16(%r15)
.Ltmp31:
	#DEBUG_VALUE: main:_12_dealloc <- 1
	.loc	1 123 2 is_stmt 1       # GCD_original.c:123:2
	movl	$4, %esi
	movq	%r15, %rdi
	callq	printf_s
	.loc	1 127 2                 # GCD_original.c:127:2
	movl	$.L.str.1, %edi
	xorl	%eax, %eax
	movq	%r12, %rsi
	callq	printf
	#DEBUG_VALUE: main:_16 <- 0
	#DEBUG_VALUE: main:_15 <- 0
	#DEBUG_VALUE: main:i <- 0
	#DEBUG_VALUE: main:sum <- 0
.Ltmp32:
	.loc	1 139 6                 # GCD_original.c:139:6
	testq	%r12, %r12
	jle	.LBB1_11
.Ltmp33:
# BB#2:                                 # %while.cond20.preheader.us.preheader
	#DEBUG_VALUE: main:_12 <- %R15
	#DEBUG_VALUE: main:n <- %R12
	#DEBUG_VALUE: main:_6 <- %R14
	#DEBUG_VALUE: main:max <- %R14
	.loc	1 12 6                  # GCD_original.c:12:6
	leaq	-1(%r12), %rax
	leaq	-2(%r12), %rcx
	mulq	%rcx
	shldq	$63, %rax, %rdx
.Ltmp34:
	.loc	1 2 25                  # GCD_original.c:2:25
	leaq	-1(%r12,%rdx), %r8
	xorl	%ebx, %ebx
	xorl	%ecx, %ecx
.Ltmp35:
	.p2align	4, 0x90
.LBB1_3:                                # %while.cond20.preheader.us
                                        # =>This Loop Header: Depth=1
                                        #     Child Loop BB1_5 Depth 2
                                        #       Child Loop BB1_7 Depth 3
	#DEBUG_VALUE: gcd:a <- %RCX
	.loc	1 12 6                  # GCD_original.c:12:6
	testq	%rcx, %rcx
.Ltmp36:
	.loc	1 12 5 is_stmt 0        # GCD_original.c:12:5
	je	.LBB1_13
.Ltmp37:
# BB#4:                                 # %if.end25.us174.preheader
                                        #   in Loop: Header=BB1_3 Depth=1
	#DEBUG_VALUE: gcd:a <- %RCX
	xorl	%edx, %edx
.Ltmp38:
	.p2align	4, 0x90
.LBB1_5:                                # %if.end25.us174
                                        #   Parent Loop BB1_3 Depth=1
                                        # =>  This Loop Header: Depth=2
                                        #       Child Loop BB1_7 Depth 3
	#DEBUG_VALUE: gcd:_2 <- 0
	#DEBUG_VALUE: gcd:_3 <- 0
	#DEBUG_VALUE: gcd:_4 <- 0
	#DEBUG_VALUE: gcd:_5 <- 0
	#DEBUG_VALUE: gcd:_6 <- 0
	#DEBUG_VALUE: gcd:_7 <- 0
	#DEBUG_VALUE: gcd:b <- %RDX
	.loc	1 35 7 is_stmt 1        # GCD_original.c:35:7
	testq	%rdx, %rdx
	movq	%rdx, %rdi
	movq	%rcx, %rax
	je	.LBB1_9
.Ltmp39:
	.p2align	4, 0x90
.LBB1_7:                                # %blklab4.i.us178
                                        #   Parent Loop BB1_3 Depth=1
                                        #     Parent Loop BB1_5 Depth=2
                                        # =>    This Inner Loop Header: Depth=3
	#DEBUG_VALUE: gcd:_5 <- 0
	.loc	1 37 7                  # GCD_original.c:37:7
	movq	%rax, %rsi
	subq	%rdi, %rsi
	jle	.LBB1_8
.Ltmp40:
# BB#6:                                 # %if.end9.i.us185
                                        #   in Loop: Header=BB1_7 Depth=3
	#DEBUG_VALUE: gcd:a <- %RSI
	#DEBUG_VALUE: gcd:_4 <- 0
	#DEBUG_VALUE: gcd:_6 <- %RSI
	.loc	1 149 10                # GCD_original.c:149:10
	movq	%rsi, %rax
.Ltmp41:
	#DEBUG_VALUE: gcd:_6 <- %RAX
	#DEBUG_VALUE: gcd:a <- %RAX
	jns	.LBB1_7
	jmp	.LBB1_14
.Ltmp42:
.LBB1_8:                                # %blklab5.i.us181
                                        #   in Loop: Header=BB1_7 Depth=3
	.loc	1 47 7                  # GCD_original.c:47:7
	subq	%rax, %rdi
.Ltmp43:
	#DEBUG_VALUE: gcd:b <- %RDI
	#DEBUG_VALUE: gcd:_7 <- %RDI
	#DEBUG_VALUE: gcd:_4 <- 0
	jne	.LBB1_7
.Ltmp44:
.LBB1_9:                                # %gcd.exit.loopexit.us198
                                        #   in Loop: Header=BB1_5 Depth=2
	#DEBUG_VALUE: main:_18 <- %RBX
	.loc	1 151 11                # GCD_original.c:151:11
	addq	%rax, %rbx
.Ltmp45:
	#DEBUG_VALUE: main:_20 <- 1
	#DEBUG_VALUE: main:_19 <- %RBX
	#DEBUG_VALUE: main:sum <- %RBX
	.loc	1 157 9                 # GCD_original.c:157:9
	incq	%rdx
.Ltmp46:
	#DEBUG_VALUE: main:_21 <- %RDX
	#DEBUG_VALUE: main:j <- %RDX
	.loc	1 147 7                 # GCD_original.c:147:7
	cmpq	%r12, %rdx
	jne	.LBB1_5
	jmp	.LBB1_10
.Ltmp47:
	.p2align	4, 0x90
.LBB1_13:                               # %if.end25.us.us.us.preheader
                                        #   in Loop: Header=BB1_3 Depth=1
	#DEBUG_VALUE: gcd:a <- %RCX
	.loc	1 2 25                  # GCD_original.c:2:25
	addq	%r8, %rbx
.Ltmp48:
.LBB1_10:                               # %blklab10.loopexit.us
                                        #   in Loop: Header=BB1_3 Depth=1
	#DEBUG_VALUE: main:_22 <- 1
	.loc	1 168 8                 # GCD_original.c:168:8
	incq	%rcx
.Ltmp49:
	#DEBUG_VALUE: main:_23 <- %RCX
	#DEBUG_VALUE: main:i <- %RCX
	.loc	1 139 6                 # GCD_original.c:139:6
	cmpq	%r12, %rcx
	jne	.LBB1_3
.Ltmp50:
.LBB1_11:                               # %if.then83
	#DEBUG_VALUE: main:_26_size <- 5
	.loc	1 180 2                 # GCD_original.c:180:2
	xorl	%edi, %edi
	movl	$5, %esi
	callq	create1DArray
	movq	%rax, %r12
.Ltmp51:
	#DEBUG_VALUE: main:_26 <- %R12
	.loc	1 181 9                 # GCD_original.c:181:9
	movaps	.LCPI1_2(%rip), %xmm0   # xmm0 = [83,117]
	movups	%xmm0, (%r12)
	.loc	1 181 36 is_stmt 0      # GCD_original.c:181:36
	movaps	.LCPI1_3(%rip), %xmm0   # xmm0 = [109,58]
	movups	%xmm0, 16(%r12)
	.loc	1 181 63                # GCD_original.c:181:63
	movq	$32, 32(%r12)
.Ltmp52:
	#DEBUG_VALUE: main:_26_dealloc <- 1
	.loc	1 184 2 is_stmt 1       # GCD_original.c:184:2
	movl	$5, %esi
	movq	%r12, %rdi
	callq	printf_s
	.loc	1 188 2                 # GCD_original.c:188:2
	movl	$.L.str.1, %edi
	xorl	%eax, %eax
	movq	%rbx, %rsi
	callq	printf
.Ltmp53:
	#DEBUG_VALUE: main:_31_size <- 25
	.loc	1 193 2                 # GCD_original.c:193:2
	xorl	%edi, %edi
	movl	$25, %esi
	callq	create1DArray
	movq	%rax, %rbx
.Ltmp54:
	#DEBUG_VALUE: main:_31 <- %RBX
	.loc	1 194 9                 # GCD_original.c:194:9
	movaps	.LCPI1_4(%rip), %xmm0   # xmm0 = [80,97]
	movups	%xmm0, (%rbx)
	.loc	1 194 35 is_stmt 0      # GCD_original.c:194:35
	movaps	.LCPI1_5(%rip), %xmm0   # xmm0 = [115,115]
	movups	%xmm0, 16(%rbx)
	.loc	1 194 63                # GCD_original.c:194:63
	movaps	.LCPI1_6(%rip), %xmm0   # xmm0 = [32,69]
	movups	%xmm0, 32(%rbx)
	.loc	1 194 89                # GCD_original.c:194:89
	movaps	.LCPI1_7(%rip), %xmm0   # xmm0 = [117,99]
	movups	%xmm0, 48(%rbx)
	.loc	1 194 116               # GCD_original.c:194:116
	movaps	.LCPI1_8(%rip), %xmm0   # xmm0 = [108,105]
	movups	%xmm0, 64(%rbx)
	.loc	1 194 145               # GCD_original.c:194:145
	movaps	.LCPI1_9(%rip), %xmm0   # xmm0 = [100,32]
	movups	%xmm0, 80(%rbx)
	.loc	1 194 174               # GCD_original.c:194:174
	movaps	.LCPI1_10(%rip), %xmm0  # xmm0 = [71,67]
	movups	%xmm0, 96(%rbx)
	.loc	1 194 202               # GCD_original.c:194:202
	movaps	.LCPI1_11(%rip), %xmm0  # xmm0 = [68,32]
	movups	%xmm0, 112(%rbx)
	.loc	1 194 230               # GCD_original.c:194:230
	movaps	.LCPI1_12(%rip), %xmm0  # xmm0 = [116,101]
	movups	%xmm0, 128(%rbx)
	.loc	1 194 260               # GCD_original.c:194:260
	movaps	.LCPI1_13(%rip), %xmm0  # xmm0 = [115,116]
	movups	%xmm0, 144(%rbx)
	.loc	1 194 290               # GCD_original.c:194:290
	movaps	.LCPI1_14(%rip), %xmm0  # xmm0 = [32,99]
	movups	%xmm0, 160(%rbx)
	.loc	1 194 318               # GCD_original.c:194:318
	movaps	.LCPI1_15(%rip), %xmm0  # xmm0 = [97,115]
	movups	%xmm0, 176(%rbx)
	.loc	1 194 347               # GCD_original.c:194:347
	movq	$101, 192(%rbx)
.Ltmp55:
	#DEBUG_VALUE: main:_31_dealloc <- 1
	.loc	1 197 2 is_stmt 1       # GCD_original.c:197:2
	movl	$25, %esi
	movq	%rbx, %rdi
	callq	println_s
.Ltmp56:
	.loc	1 201 2 discriminator 1 # GCD_original.c:201:2
	movq	%r14, %rdi
	callq	free
.Ltmp57:
	#DEBUG_VALUE: main:max_dealloc <- 0
	.loc	1 205 2 discriminator 1 # GCD_original.c:205:2
	movq	%r15, %rdi
	callq	free
.Ltmp58:
	#DEBUG_VALUE: main:_12_dealloc <- 0
	.loc	1 206 2 discriminator 1 # GCD_original.c:206:2
	movq	%r12, %rdi
	callq	free
.Ltmp59:
	#DEBUG_VALUE: main:_26_dealloc <- 0
	.loc	1 207 2 discriminator 1 # GCD_original.c:207:2
	movq	%rbx, %rdi
	callq	free
.Ltmp60:
	#DEBUG_VALUE: main:_31_dealloc <- 0
.LBB1_12:                               # %if.end90
	.loc	1 208 2                 # GCD_original.c:208:2
	xorl	%edi, %edi
	callq	exit
.LBB1_14:                               # %if.end3.i
.Ltmp61:
	#DEBUG_VALUE: gcd:a <- %RAX
	#DEBUG_VALUE: gcd:_6 <- %RAX
	.loc	1 26 12                 # GCD_original.c:26:12
	movq	stderr(%rip), %rcx
	.loc	1 26 4 is_stmt 0        # GCD_original.c:26:4
	movl	$.L.str, %edi
	movl	$4, %esi
	movl	$1, %edx
	callq	fwrite
.Ltmp62:
	.loc	1 27 4 is_stmt 1        # GCD_original.c:27:4
	movl	$-1, %edi
	callq	exit
.Ltmp63:
.Lfunc_end1:
	.size	main, .Lfunc_end1-main
	.cfi_endproc

	.type	.L.str,@object          # @.str
	.section	.rodata.str1.1,"aMS",@progbits,1
.L.str:
	.asciz	"fail"
	.size	.L.str, 5

	.type	.L.str.1,@object        # @.str.1
.L.str.1:
	.asciz	"%lld\n"
	.size	.L.str.1, 6

	.section	".note.GNU-stack","",@progbits