	.text
	.file	"MatrixAdd.tiling.ll"
	.file	1 "MatrixAdd.c"
	.section	.rodata.cst16,"aM",@progbits,16
	.p2align	4
.LCPI0_0:
	.quad	1                       # 0x1
	.quad	1                       # 0x1
	.text
	.globl	init_array
	.p2align	4, 0x90
	.type	init_array,@function
init_array:                             # @init_array
.Lfunc_begin0:
	.loc	1 8 0                   # MatrixAdd.c:8:0
	.cfi_startproc
# BB#0:                                 # %entry
	pushq	%rbp
.Ltmp0:
	.cfi_def_cfa_offset 16
.Ltmp1:
	.cfi_offset %rbp, -16
	movq	%rsp, %rbp
.Ltmp2:
	.cfi_def_cfa_register %rbp
	xorl	%eax, %eax
.Ltmp3:
	#DEBUG_VALUE: init_array:i <- 0
	.loc	1 13 21 prologue_end    # MatrixAdd.c:13:21
	movaps	.LCPI0_0(%rip), %xmm0   # xmm0 = [1,1]
	xorl	%ecx, %ecx
.Ltmp4:
	.p2align	4, 0x90
.LBB0_1:                                # %vector.ph
                                        # =>This Loop Header: Depth=1
                                        #     Child Loop BB0_2 Depth 2
	.loc	1 12 9 discriminator 1  # MatrixAdd.c:12:9
	movq	%rax, %rdx
	movl	$1024, %esi             # imm = 0x400
	.p2align	4, 0x90
.LBB0_2:                                # %vector.body
                                        #   Parent Loop BB0_1 Depth=1
                                        # =>  This Inner Loop Header: Depth=2
.Ltmp5:
	.loc	1 13 21                 # MatrixAdd.c:13:21
	movaps	%xmm0, A(%rdx)
	movaps	%xmm0, A+16(%rdx)
	.loc	1 14 21                 # MatrixAdd.c:14:21
	movaps	%xmm0, B(%rdx)
	movaps	%xmm0, B+16(%rdx)
	.loc	1 13 21                 # MatrixAdd.c:13:21
	movaps	%xmm0, A+32(%rdx)
	movaps	%xmm0, A+48(%rdx)
	.loc	1 14 21                 # MatrixAdd.c:14:21
	movaps	%xmm0, B+32(%rdx)
	movaps	%xmm0, B+48(%rdx)
.Ltmp6:
	.loc	1 12 9 discriminator 1  # MatrixAdd.c:12:9
	addq	$64, %rdx
	addq	$-8, %rsi
	jne	.LBB0_2
.Ltmp7:
# BB#3:                                 # %for.inc10
                                        #   in Loop: Header=BB0_1 Depth=1
	.loc	1 11 5 discriminator 1  # MatrixAdd.c:11:5
	incq	%rcx
	addq	$8192, %rax             # imm = 0x2000
	cmpq	$1024, %rcx             # imm = 0x400
	jne	.LBB0_1
.Ltmp8:
# BB#4:                                 # %for.end12
	.loc	1 17 1                  # MatrixAdd.c:17:1
	popq	%rbp
	retq
.Ltmp9:
.Lfunc_end0:
	.size	init_array, .Lfunc_end0-init_array
	.cfi_endproc

	.globl	mat_add
	.p2align	4, 0x90
	.type	mat_add,@function
mat_add:                                # @mat_add
.Lfunc_begin1:
	.loc	1 19 0                  # MatrixAdd.c:19:0
	.cfi_startproc
# BB#0:                                 # %entry
	pushq	%rbp
.Ltmp10:
	.cfi_def_cfa_offset 16
.Ltmp11:
	.cfi_offset %rbp, -16
	movq	%rsp, %rbp
.Ltmp12:
	.cfi_def_cfa_register %rbp
	xorl	%eax, %eax
.Ltmp13:
	#DEBUG_VALUE: mat_add:i <- 0
	xorl	%ecx, %ecx
	.p2align	4, 0x90
.LBB1_1:                                # %vector.ph
                                        # =>This Loop Header: Depth=1
                                        #     Child Loop BB1_2 Depth 2
.Ltmp14:
	.loc	1 22 9 prologue_end discriminator 1 # MatrixAdd.c:22:9
	movq	%rax, %rdx
	movl	$1024, %esi             # imm = 0x400
	.p2align	4, 0x90
.LBB1_2:                                # %vector.body
                                        #   Parent Loop BB1_1 Depth=1
                                        # =>  This Inner Loop Header: Depth=2
.Ltmp15:
	.loc	1 23 33                 # MatrixAdd.c:23:33
	movdqa	B(%rdx), %xmm0
	movdqa	B+16(%rdx), %xmm1
	.loc	1 23 31 is_stmt 0       # MatrixAdd.c:23:31
	paddq	A(%rdx), %xmm0
	paddq	A+16(%rdx), %xmm1
	.loc	1 23 21                 # MatrixAdd.c:23:21
	movdqa	%xmm0, C(%rdx)
	movdqa	%xmm1, C+16(%rdx)
	.loc	1 23 33                 # MatrixAdd.c:23:33
	movdqa	B+32(%rdx), %xmm0
	movdqa	B+48(%rdx), %xmm1
	.loc	1 23 31                 # MatrixAdd.c:23:31
	paddq	A+32(%rdx), %xmm0
	paddq	A+48(%rdx), %xmm1
	.loc	1 23 21                 # MatrixAdd.c:23:21
	movdqa	%xmm0, C+32(%rdx)
	movdqa	%xmm1, C+48(%rdx)
.Ltmp16:
	.loc	1 22 9 is_stmt 1 discriminator 1 # MatrixAdd.c:22:9
	addq	$64, %rdx
	addq	$-8, %rsi
	jne	.LBB1_2
.Ltmp17:
# BB#3:                                 # %for.inc14
                                        #   in Loop: Header=BB1_1 Depth=1
	.loc	1 21 5 discriminator 1  # MatrixAdd.c:21:5
	incq	%rcx
	addq	$8192, %rax             # imm = 0x2000
	cmpq	$1024, %rcx             # imm = 0x400
	jne	.LBB1_1
.Ltmp18:
# BB#4:                                 # %for.end16
	.loc	1 27 1                  # MatrixAdd.c:27:1
	popq	%rbp
	retq
.Ltmp19:
.Lfunc_end1:
	.size	mat_add, .Lfunc_end1-mat_add
	.cfi_endproc

	.globl	print_array
	.p2align	4, 0x90
	.type	print_array,@function
print_array:                            # @print_array
.Lfunc_begin2:
	.loc	1 30 0                  # MatrixAdd.c:30:0
	.cfi_startproc
# BB#0:                                 # %entry
	pushq	%rbp
.Ltmp20:
	.cfi_def_cfa_offset 16
.Ltmp21:
	.cfi_offset %rbp, -16
	movq	%rsp, %rbp
.Ltmp22:
	.cfi_def_cfa_register %rbp
	pushq	%r15
	pushq	%r14
	pushq	%r12
	pushq	%rbx
.Ltmp23:
	.cfi_offset %rbx, -48
.Ltmp24:
	.cfi_offset %r12, -40
.Ltmp25:
	.cfi_offset %r14, -32
.Ltmp26:
	.cfi_offset %r15, -24
	movl	$C, %r14d
.Ltmp27:
	#DEBUG_VALUE: print_array:i <- 0
	xorl	%r15d, %r15d
	.p2align	4, 0x90
.LBB2_1:                                # %for.cond1.preheader
                                        # =>This Loop Header: Depth=1
                                        #     Child Loop BB2_2 Depth 2
.Ltmp28:
	.loc	1 35 21 prologue_end    # MatrixAdd.c:35:21
	movq	stdout(%rip), %rcx
	movq	%r14, %r12
	xorl	%ebx, %ebx
	.p2align	4, 0x90
.LBB2_2:                                # %for.body3
                                        #   Parent Loop BB2_1 Depth=1
                                        # =>  This Inner Loop Header: Depth=2
	.loc	1 35 38 is_stmt 0       # MatrixAdd.c:35:38
	movq	(%r12), %rdx
	.loc	1 35 13                 # MatrixAdd.c:35:13
	movl	$.L.str, %esi
	xorl	%eax, %eax
	movq	%rcx, %rdi
	callq	fprintf
.Ltmp29:
	.loc	1 36 18 is_stmt 1       # MatrixAdd.c:36:18
	movslq	%ebx, %rax
	imulq	$1717986919, %rax, %rcx # imm = 0x66666667
	movq	%rcx, %rdx
	shrq	$63, %rdx
	sarq	$37, %rcx
	addl	%edx, %ecx
	shll	$4, %ecx
	leal	(%rcx,%rcx,4), %ecx
	subl	%ecx, %eax
.Ltmp30:
	.loc	1 36 17 is_stmt 0       # MatrixAdd.c:36:17
	cmpl	$79, %eax
	jne	.LBB2_4
# BB#3:                                 # %if.then
                                        #   in Loop: Header=BB2_2 Depth=2
.Ltmp31:
	.loc	1 36 37 discriminator 1 # MatrixAdd.c:36:37
	movq	stdout(%rip), %rsi
	.loc	1 36 29 discriminator 1 # MatrixAdd.c:36:29
	movl	$10, %edi
	callq	fputc
.Ltmp32:
.LBB2_4:                                # %for.inc
                                        #   in Loop: Header=BB2_2 Depth=2
	.loc	1 34 9 is_stmt 1 discriminator 1 # MatrixAdd.c:34:9
	incq	%rbx
.Ltmp33:
	.loc	1 35 21                 # MatrixAdd.c:35:21
	movq	stdout(%rip), %rcx
.Ltmp34:
	.loc	1 34 9 discriminator 1  # MatrixAdd.c:34:9
	addq	$8, %r12
	cmpq	$1024, %rbx             # imm = 0x400
	jne	.LBB2_2
.Ltmp35:
# BB#5:                                 # %for.end
                                        #   in Loop: Header=BB2_1 Depth=1
	.loc	1 38 9                  # MatrixAdd.c:38:9
	movl	$10, %edi
	movq	%rcx, %rsi
	callq	fputc
.Ltmp36:
	.loc	1 33 5 discriminator 1  # MatrixAdd.c:33:5
	incq	%r15
	addq	$8192, %r14             # imm = 0x2000
	cmpq	$1024, %r15             # imm = 0x400
	jne	.LBB2_1
.Ltmp37:
# BB#6:                                 # %for.end11
	.loc	1 40 1                  # MatrixAdd.c:40:1
	popq	%rbx
	popq	%r12
	popq	%r14
	popq	%r15
	popq	%rbp
	retq
.Ltmp38:
.Lfunc_end2:
	.size	print_array, .Lfunc_end2-print_array
	.cfi_endproc

	.section	.rodata.cst16,"aM",@progbits,16
	.p2align	4
.LCPI3_0:
	.quad	1                       # 0x1
	.quad	1                       # 0x1
	.text
	.globl	main
	.p2align	4, 0x90
	.type	main,@function
main:                                   # @main
.Lfunc_begin3:
	.loc	1 43 0                  # MatrixAdd.c:43:0
	.cfi_startproc
# BB#0:                                 # %entry
	xorl	%eax, %eax
.Ltmp39:
	#DEBUG_VALUE: main:r <- 0
	.loc	1 13 21 prologue_end    # MatrixAdd.c:13:21
	movaps	.LCPI3_0(%rip), %xmm0   # xmm0 = [1,1]
.Ltmp40:
	.p2align	4, 0x90
.LBB3_1:                                # %for.body
                                        # =>This Loop Header: Depth=1
                                        #     Child Loop BB3_2 Depth 2
                                        #       Child Loop BB3_3 Depth 3
                                        #     Child Loop BB3_5 Depth 2
                                        #       Child Loop BB3_6 Depth 3
	#DEBUG_VALUE: init_array:i <- 0
	.loc	1 49 9                  # MatrixAdd.c:49:9
	xorl	%esi, %esi
	xorl	%edi, %edi
	.p2align	4, 0x90
.LBB3_2:                                # %vector.ph19
                                        #   Parent Loop BB3_1 Depth=1
                                        # =>  This Loop Header: Depth=2
                                        #       Child Loop BB3_3 Depth 3
	movq	%rsi, %rcx
	movl	$1024, %edx             # imm = 0x400
	.p2align	4, 0x90
.LBB3_3:                                # %vector.body15
                                        #   Parent Loop BB3_1 Depth=1
                                        #     Parent Loop BB3_2 Depth=2
                                        # =>    This Inner Loop Header: Depth=3
.Ltmp41:
	.loc	1 13 21                 # MatrixAdd.c:13:21
	movaps	%xmm0, A(%rcx)
	movaps	%xmm0, A+16(%rcx)
	.loc	1 14 21                 # MatrixAdd.c:14:21
	movaps	%xmm0, B(%rcx)
	movaps	%xmm0, B+16(%rcx)
	.loc	1 13 21                 # MatrixAdd.c:13:21
	movaps	%xmm0, A+32(%rcx)
	movaps	%xmm0, A+48(%rcx)
	.loc	1 14 21                 # MatrixAdd.c:14:21
	movaps	%xmm0, B+32(%rcx)
	movaps	%xmm0, B+48(%rcx)
.Ltmp42:
	.loc	1 12 9 discriminator 1  # MatrixAdd.c:12:9
	addq	$64, %rcx
	addq	$-8, %rdx
	jne	.LBB3_3
.Ltmp43:
# BB#4:                                 # %for.inc10.i
                                        #   in Loop: Header=BB3_2 Depth=2
	.loc	1 11 5 discriminator 1  # MatrixAdd.c:11:5
	incq	%rdi
	addq	$8192, %rsi             # imm = 0x2000
	cmpq	$1024, %rdi             # imm = 0x400
.Ltmp44:
	.loc	1 50 9                  # MatrixAdd.c:50:9
	movl	$0, %ecx
	movl	$0, %edx
	jne	.LBB3_2
	.p2align	4, 0x90
.LBB3_5:                                # %vector.ph
                                        #   Parent Loop BB3_1 Depth=1
                                        # =>  This Loop Header: Depth=2
                                        #       Child Loop BB3_6 Depth 3
	movq	%rcx, %rsi
	movl	$1024, %edi             # imm = 0x400
	.p2align	4, 0x90
.LBB3_6:                                # %vector.body
                                        #   Parent Loop BB3_1 Depth=1
                                        #     Parent Loop BB3_5 Depth=2
                                        # =>    This Inner Loop Header: Depth=3
.Ltmp45:
	.loc	1 23 33                 # MatrixAdd.c:23:33
	movdqa	B(%rsi), %xmm1
	movdqa	B+16(%rsi), %xmm2
	.loc	1 23 31 is_stmt 0       # MatrixAdd.c:23:31
	paddq	A(%rsi), %xmm1
	paddq	A+16(%rsi), %xmm2
	.loc	1 23 21                 # MatrixAdd.c:23:21
	movdqa	%xmm1, C(%rsi)
	movdqa	%xmm2, C+16(%rsi)
	.loc	1 23 33                 # MatrixAdd.c:23:33
	movdqa	B+32(%rsi), %xmm1
	movdqa	B+48(%rsi), %xmm2
	.loc	1 23 31                 # MatrixAdd.c:23:31
	paddq	A+32(%rsi), %xmm1
	paddq	A+48(%rsi), %xmm2
	.loc	1 23 21                 # MatrixAdd.c:23:21
	movdqa	%xmm1, C+32(%rsi)
	movdqa	%xmm2, C+48(%rsi)
.Ltmp46:
	.loc	1 22 9 is_stmt 1 discriminator 1 # MatrixAdd.c:22:9
	addq	$64, %rsi
	addq	$-8, %rdi
	jne	.LBB3_6
.Ltmp47:
# BB#7:                                 # %for.inc14.i
                                        #   in Loop: Header=BB3_5 Depth=2
	.loc	1 21 5 discriminator 1  # MatrixAdd.c:21:5
	incq	%rdx
	addq	$8192, %rcx             # imm = 0x2000
	cmpq	$1024, %rdx             # imm = 0x400
	jne	.LBB3_5
.Ltmp48:
# BB#8:                                 # %mat_add.exit
                                        #   in Loop: Header=BB3_1 Depth=1
	.loc	1 48 20 discriminator 2 # MatrixAdd.c:48:20
	incl	%eax
.Ltmp49:
	#DEBUG_VALUE: main:r <- %EAX
	.loc	1 48 5 is_stmt 0 discriminator 1 # MatrixAdd.c:48:5
	cmpl	$100, %eax
	jne	.LBB3_1
.Ltmp50:
# BB#9:                                 # %for.end
	#DEBUG_VALUE: main:r <- %EAX
	pushq	%rbp
.Ltmp51:
	.cfi_def_cfa_offset 16
.Ltmp52:
	.cfi_offset %rbp, -16
	movq	%rsp, %rbp
.Ltmp53:
	.cfi_def_cfa_register %rbp
	.loc	1 53 83 is_stmt 1       # MatrixAdd.c:53:83
	movq	C+8388600(%rip), %r9
	.loc	1 53 5 is_stmt 0        # MatrixAdd.c:53:5
	movl	$.L.str.2, %edi
	movl	$1024, %esi             # imm = 0x400
	movl	$1024, %edx             # imm = 0x400
	movl	$1023, %ecx             # imm = 0x3FF
	movl	$1023, %r8d             # imm = 0x3FF
	xorl	%eax, %eax
.Ltmp54:
	callq	printf
	.loc	1 54 5 is_stmt 1        # MatrixAdd.c:54:5
	xorl	%eax, %eax
	popq	%rbp
	retq
.Ltmp55:
.Lfunc_end3:
	.size	main, .Lfunc_end3-main
	.cfi_endproc

	.type	A,@object               # @A
	.comm	A,8388608,16
	.type	B,@object               # @B
	.comm	B,8388608,16
	.type	C,@object               # @C
	.comm	C,8388608,16
	.type	.L.str,@object          # @.str
	.section	.rodata.str1.1,"aMS",@progbits,1
.L.str:
	.asciz	"%lld "
	.size	.L.str, 6

	.type	.L.str.2,@object        # @.str.2
.L.str.2:
	.asciz	"Pass %d X %d matrix test case (C[%d][%d] =%lld) \n "
	.size	.L.str.2, 51

	.section	".note.GNU-stack","",@progbits