	.text
	.file	"MatrixAdd.vector.ll"
	.file	1 "MatrixAdd.c"
	.section	.rodata.cst16,"aM",@progbits,16
	.p2align	4
.LCPI0_0:
	.quad	1                       # 0x1
	.quad	1                       # 0x1
	.text
	.globl	init_array
	.p2align	4, 0x90
	.type	init_array,@function
init_array:                             # @init_array
.Lfunc_begin0:
	.loc	1 8 0                   # MatrixAdd.c:8:0
	.cfi_startproc
# BB#0:                                 # %entry
	pushq	%rbp
.Ltmp0:
	.cfi_def_cfa_offset 16
.Ltmp1:
	.cfi_offset %rbp, -16
	movq	%rsp, %rbp
.Ltmp2:
	.cfi_def_cfa_register %rbp
	xorl	%eax, %eax
.Ltmp3:
	.loc	1 13 21 prologue_end    # MatrixAdd.c:13:21
	movaps	.LCPI0_0(%rip), %xmm0   # xmm0 = [1,1]
	xorl	%ecx, %ecx
.Ltmp4:
	.p2align	4, 0x90
.LBB0_1:                                # %vector.ph
                                        # =>This Loop Header: Depth=1
                                        #     Child Loop BB0_2 Depth 2
	.loc	1 12 9 discriminator 1  # MatrixAdd.c:12:9
	movq	%rax, %rdx
	movl	$10240, %esi            # imm = 0x2800
	.p2align	4, 0x90
.LBB0_2:                                # %vector.body
                                        #   Parent Loop BB0_1 Depth=1
                                        # =>  This Inner Loop Header: Depth=2
.Ltmp5:
	.loc	1 13 21                 # MatrixAdd.c:13:21
	movaps	%xmm0, A(%rdx)
	movaps	%xmm0, A+16(%rdx)
	.loc	1 14 21                 # MatrixAdd.c:14:21
	movaps	%xmm0, B(%rdx)
	movaps	%xmm0, B+16(%rdx)
	.loc	1 13 21                 # MatrixAdd.c:13:21
	movaps	%xmm0, A+32(%rdx)
	movaps	%xmm0, A+48(%rdx)
	.loc	1 14 21                 # MatrixAdd.c:14:21
	movaps	%xmm0, B+32(%rdx)
	movaps	%xmm0, B+48(%rdx)
.Ltmp6:
	.loc	1 12 9 discriminator 1  # MatrixAdd.c:12:9
	addq	$64, %rdx
	addq	$-8, %rsi
	jne	.LBB0_2
.Ltmp7:
# BB#3:                                 # %for.inc10
                                        #   in Loop: Header=BB0_1 Depth=1
	.loc	1 11 5 discriminator 1  # MatrixAdd.c:11:5
	incq	%rcx
	addq	$81920, %rax            # imm = 0x14000
	cmpq	$10240, %rcx            # imm = 0x2800
	jne	.LBB0_1
.Ltmp8:
# BB#4:                                 # %for.end12
	.loc	1 17 1                  # MatrixAdd.c:17:1
	popq	%rbp
	retq
.Ltmp9:
.Lfunc_end0:
	.size	init_array, .Lfunc_end0-init_array
	.cfi_endproc

	.globl	mat_add
	.p2align	4, 0x90
	.type	mat_add,@function
mat_add:                                # @mat_add
.Lfunc_begin1:
	.loc	1 19 0                  # MatrixAdd.c:19:0
	.cfi_startproc
# BB#0:                                 # %polly.split_new_and_old
	pushq	%rbp
.Ltmp10:
	.cfi_def_cfa_offset 16
.Ltmp11:
	.cfi_offset %rbp, -16
	movq	%rsp, %rbp
.Ltmp12:
	.cfi_def_cfa_register %rbp
	xorl	%r8d, %r8d
	movl	$224, %ecx
.Ltmp13:
	#DEBUG_VALUE: mat_add:i <- 0
	.p2align	4, 0x90
.LBB1_1:                                # %polly.loop_header
                                        # =>This Loop Header: Depth=1
                                        #     Child Loop BB1_2 Depth 2
                                        #       Child Loop BB1_3 Depth 3
	movq	%rcx, %rax
	xorl	%esi, %esi
	.p2align	4, 0x90
.LBB1_2:                                # %polly.loop_header32
                                        #   Parent Loop BB1_1 Depth=1
                                        # =>  This Loop Header: Depth=2
                                        #       Child Loop BB1_3 Depth 3
	movq	$-1, %rdi
	movq	%rax, %rdx
	.p2align	4, 0x90
.LBB1_3:                                # %polly.stmt.polly.loop_preheader14
                                        #   Parent Loop BB1_1 Depth=1
                                        #     Parent Loop BB1_2 Depth=2
                                        # =>    This Inner Loop Header: Depth=3
	movdqa	B-208(%rdx), %xmm0
	movdqa	B-224(%rdx), %xmm1
	paddq	A-224(%rdx), %xmm1
	paddq	A-208(%rdx), %xmm0
	movdqa	%xmm0, C-208(%rdx)
	movdqa	%xmm1, C-224(%rdx)
	movdqa	B-176(%rdx), %xmm0
	movdqa	B-192(%rdx), %xmm1
	paddq	A-192(%rdx), %xmm1
	paddq	A-176(%rdx), %xmm0
	movdqa	%xmm0, C-176(%rdx)
	movdqa	%xmm1, C-192(%rdx)
	movdqa	B-144(%rdx), %xmm0
	movdqa	B-160(%rdx), %xmm1
	paddq	A-160(%rdx), %xmm1
	paddq	A-144(%rdx), %xmm0
	movdqa	%xmm0, C-144(%rdx)
	movdqa	%xmm1, C-160(%rdx)
	movdqa	B-112(%rdx), %xmm0
	movdqa	B-128(%rdx), %xmm1
	paddq	A-128(%rdx), %xmm1
	paddq	A-112(%rdx), %xmm0
	movdqa	%xmm0, C-112(%rdx)
	movdqa	%xmm1, C-128(%rdx)
	movdqa	B-80(%rdx), %xmm0
	movdqa	B-96(%rdx), %xmm1
	paddq	A-96(%rdx), %xmm1
	paddq	A-80(%rdx), %xmm0
	movdqa	%xmm0, C-80(%rdx)
	movdqa	%xmm1, C-96(%rdx)
	movdqa	B-48(%rdx), %xmm0
	movdqa	B-64(%rdx), %xmm1
	paddq	A-64(%rdx), %xmm1
	paddq	A-48(%rdx), %xmm0
	movdqa	%xmm0, C-48(%rdx)
	movdqa	%xmm1, C-64(%rdx)
	movdqa	B-16(%rdx), %xmm0
	movdqa	B-32(%rdx), %xmm1
	paddq	A-32(%rdx), %xmm1
	paddq	A-16(%rdx), %xmm0
	movdqa	%xmm0, C-16(%rdx)
	movdqa	%xmm1, C-32(%rdx)
	movdqa	B+16(%rdx), %xmm0
	movdqa	B(%rdx), %xmm1
	paddq	A(%rdx), %xmm1
	paddq	A+16(%rdx), %xmm0
	movdqa	%xmm0, C+16(%rdx)
	movdqa	%xmm1, C(%rdx)
	incq	%rdi
	addq	$81920, %rdx            # imm = 0x14000
	cmpq	$31, %rdi
	jl	.LBB1_3
# BB#4:                                 # %polly.loop_exit40
                                        #   in Loop: Header=BB1_2 Depth=2
	addq	$256, %rax              # imm = 0x100
	cmpq	$319, %rsi              # imm = 0x13F
	leaq	1(%rsi), %rsi
	jl	.LBB1_2
# BB#5:                                 # %polly.loop_exit34
                                        #   in Loop: Header=BB1_1 Depth=1
	addq	$2621440, %rcx          # imm = 0x280000
	cmpq	$319, %r8               # imm = 0x13F
	leaq	1(%r8), %r8
	jl	.LBB1_1
# BB#6:                                 # %polly.exiting
.Ltmp14:
	.loc	1 27 1 prologue_end     # MatrixAdd.c:27:1
	popq	%rbp
	retq
.Ltmp15:
.Lfunc_end1:
	.size	mat_add, .Lfunc_end1-mat_add
	.cfi_endproc

	.globl	print_array
	.p2align	4, 0x90
	.type	print_array,@function
print_array:                            # @print_array
.Lfunc_begin2:
	.loc	1 30 0                  # MatrixAdd.c:30:0
	.cfi_startproc
# BB#0:                                 # %entry
	pushq	%rbp
.Ltmp16:
	.cfi_def_cfa_offset 16
.Ltmp17:
	.cfi_offset %rbp, -16
	movq	%rsp, %rbp
.Ltmp18:
	.cfi_def_cfa_register %rbp
	pushq	%r15
	pushq	%r14
	pushq	%r12
	pushq	%rbx
.Ltmp19:
	.cfi_offset %rbx, -48
.Ltmp20:
	.cfi_offset %r12, -40
.Ltmp21:
	.cfi_offset %r14, -32
.Ltmp22:
	.cfi_offset %r15, -24
	movl	$C, %r14d
	xorl	%r15d, %r15d
	.p2align	4, 0x90
.LBB2_1:                                # %for.cond1.preheader
                                        # =>This Loop Header: Depth=1
                                        #     Child Loop BB2_2 Depth 2
.Ltmp23:
	.loc	1 35 21 prologue_end    # MatrixAdd.c:35:21
	movq	stdout(%rip), %rcx
	movq	%r14, %r12
	xorl	%ebx, %ebx
	.p2align	4, 0x90
.LBB2_2:                                # %for.body3
                                        #   Parent Loop BB2_1 Depth=1
                                        # =>  This Inner Loop Header: Depth=2
	.loc	1 35 38 is_stmt 0       # MatrixAdd.c:35:38
	movq	(%r12), %rdx
	.loc	1 35 13                 # MatrixAdd.c:35:13
	movl	$.L.str, %esi
	xorl	%eax, %eax
	movq	%rcx, %rdi
	callq	fprintf
.Ltmp24:
	.loc	1 36 18 is_stmt 1       # MatrixAdd.c:36:18
	movslq	%ebx, %rax
	imulq	$1717986919, %rax, %rcx # imm = 0x66666667
	movq	%rcx, %rdx
	shrq	$63, %rdx
	sarq	$37, %rcx
	addl	%edx, %ecx
	shll	$4, %ecx
	leal	(%rcx,%rcx,4), %ecx
	subl	%ecx, %eax
.Ltmp25:
	.loc	1 36 17 is_stmt 0       # MatrixAdd.c:36:17
	cmpl	$79, %eax
	jne	.LBB2_4
# BB#3:                                 # %if.then
                                        #   in Loop: Header=BB2_2 Depth=2
.Ltmp26:
	.loc	1 36 37 discriminator 1 # MatrixAdd.c:36:37
	movq	stdout(%rip), %rsi
	.loc	1 36 29 discriminator 1 # MatrixAdd.c:36:29
	movl	$10, %edi
	callq	fputc
.Ltmp27:
.LBB2_4:                                # %for.inc
                                        #   in Loop: Header=BB2_2 Depth=2
	.loc	1 34 9 is_stmt 1 discriminator 1 # MatrixAdd.c:34:9
	incq	%rbx
.Ltmp28:
	.loc	1 35 21                 # MatrixAdd.c:35:21
	movq	stdout(%rip), %rcx
.Ltmp29:
	.loc	1 34 9 discriminator 1  # MatrixAdd.c:34:9
	addq	$8, %r12
	cmpq	$10240, %rbx            # imm = 0x2800
	jne	.LBB2_2
.Ltmp30:
# BB#5:                                 # %for.end
                                        #   in Loop: Header=BB2_1 Depth=1
	.loc	1 38 9                  # MatrixAdd.c:38:9
	movl	$10, %edi
	movq	%rcx, %rsi
	callq	fputc
.Ltmp31:
	.loc	1 33 5 discriminator 1  # MatrixAdd.c:33:5
	incq	%r15
	addq	$81920, %r14            # imm = 0x14000
	cmpq	$10240, %r15            # imm = 0x2800
	jne	.LBB2_1
.Ltmp32:
# BB#6:                                 # %for.end11
	.loc	1 40 1                  # MatrixAdd.c:40:1
	popq	%rbx
	popq	%r12
	popq	%r14
	popq	%r15
	popq	%rbp
	retq
.Ltmp33:
.Lfunc_end2:
	.size	print_array, .Lfunc_end2-print_array
	.cfi_endproc

	.section	.rodata.cst16,"aM",@progbits,16
	.p2align	4
.LCPI3_0:
	.quad	1                       # 0x1
	.quad	1                       # 0x1
	.text
	.globl	main
	.p2align	4, 0x90
	.type	main,@function
main:                                   # @main
.Lfunc_begin3:
	.loc	1 43 0                  # MatrixAdd.c:43:0
	.cfi_startproc
# BB#0:                                 # %entry
	xorl	%eax, %eax
.Ltmp34:
	.loc	1 13 21 prologue_end    # MatrixAdd.c:13:21
	movdqa	.LCPI3_0(%rip), %xmm0   # xmm0 = [1,1]
.Ltmp35:
	.loc	1 49 5                  # MatrixAdd.c:49:5
	xorl	%ecx, %ecx
	.p2align	4, 0x90
.LBB3_1:                                # %vector.ph
                                        # =>This Loop Header: Depth=1
                                        #     Child Loop BB3_2 Depth 2
	movq	%rax, %rdx
	movl	$10240, %esi            # imm = 0x2800
	.p2align	4, 0x90
.LBB3_2:                                # %vector.body
                                        #   Parent Loop BB3_1 Depth=1
                                        # =>  This Inner Loop Header: Depth=2
.Ltmp36:
	.loc	1 13 21                 # MatrixAdd.c:13:21
	movdqa	%xmm0, A(%rdx)
	movdqa	%xmm0, A+16(%rdx)
	.loc	1 14 21                 # MatrixAdd.c:14:21
	movdqa	%xmm0, B(%rdx)
	movdqa	%xmm0, B+16(%rdx)
	.loc	1 13 21                 # MatrixAdd.c:13:21
	movdqa	%xmm0, A+32(%rdx)
	movdqa	%xmm0, A+48(%rdx)
	.loc	1 14 21                 # MatrixAdd.c:14:21
	movdqa	%xmm0, B+32(%rdx)
	movdqa	%xmm0, B+48(%rdx)
.Ltmp37:
	.loc	1 12 9 discriminator 1  # MatrixAdd.c:12:9
	addq	$64, %rdx
	addq	$-8, %rsi
	jne	.LBB3_2
.Ltmp38:
# BB#3:                                 # %for.inc10.i
                                        #   in Loop: Header=BB3_1 Depth=1
	.loc	1 11 5 discriminator 1  # MatrixAdd.c:11:5
	incq	%rcx
	addq	$81920, %rax            # imm = 0x14000
	cmpq	$10240, %rcx            # imm = 0x2800
	jne	.LBB3_1
.Ltmp39:
# BB#4:                                 # %polly.split_new_and_old
	xorl	%r8d, %r8d
	movl	$224, %ecx
	.p2align	4, 0x90
.LBB3_5:                                # %polly.loop_header
                                        # =>This Loop Header: Depth=1
                                        #     Child Loop BB3_6 Depth 2
                                        #       Child Loop BB3_7 Depth 3
	movq	%rcx, %rax
	xorl	%esi, %esi
	.p2align	4, 0x90
.LBB3_6:                                # %polly.loop_header3
                                        #   Parent Loop BB3_5 Depth=1
                                        # =>  This Loop Header: Depth=2
                                        #       Child Loop BB3_7 Depth 3
	movq	$-1, %rdi
	movq	%rax, %rdx
	.p2align	4, 0x90
.LBB3_7:                                # %polly.stmt.polly.loop_preheader14.i
                                        #   Parent Loop BB3_5 Depth=1
                                        #     Parent Loop BB3_6 Depth=2
                                        # =>    This Inner Loop Header: Depth=3
	movdqa	B-208(%rdx), %xmm0
	movdqa	B-224(%rdx), %xmm1
	.loc	1 50 5                  # MatrixAdd.c:50:5
	paddq	A-224(%rdx), %xmm1
	paddq	A-208(%rdx), %xmm0
	movdqa	%xmm0, C-208(%rdx)
	movdqa	%xmm1, C-224(%rdx)
	movdqa	B-176(%rdx), %xmm0
	movdqa	B-192(%rdx), %xmm1
	paddq	A-192(%rdx), %xmm1
	paddq	A-176(%rdx), %xmm0
	movdqa	%xmm0, C-176(%rdx)
	movdqa	%xmm1, C-192(%rdx)
	movdqa	B-144(%rdx), %xmm0
	movdqa	B-160(%rdx), %xmm1
	paddq	A-160(%rdx), %xmm1
	paddq	A-144(%rdx), %xmm0
	movdqa	%xmm0, C-144(%rdx)
	movdqa	%xmm1, C-160(%rdx)
	movdqa	B-112(%rdx), %xmm0
	movdqa	B-128(%rdx), %xmm1
	paddq	A-128(%rdx), %xmm1
	paddq	A-112(%rdx), %xmm0
	movdqa	%xmm0, C-112(%rdx)
	movdqa	%xmm1, C-128(%rdx)
	movdqa	B-80(%rdx), %xmm0
	movdqa	B-96(%rdx), %xmm1
	paddq	A-96(%rdx), %xmm1
	paddq	A-80(%rdx), %xmm0
	movdqa	%xmm0, C-80(%rdx)
	movdqa	%xmm1, C-96(%rdx)
	movdqa	B-48(%rdx), %xmm0
	movdqa	B-64(%rdx), %xmm1
	paddq	A-64(%rdx), %xmm1
	paddq	A-48(%rdx), %xmm0
	movdqa	%xmm0, C-48(%rdx)
	movdqa	%xmm1, C-64(%rdx)
	movdqa	B-16(%rdx), %xmm0
	movdqa	B-32(%rdx), %xmm1
	paddq	A-32(%rdx), %xmm1
	paddq	A-16(%rdx), %xmm0
	movdqa	%xmm0, C-16(%rdx)
	movdqa	%xmm1, C-32(%rdx)
	movdqa	B+16(%rdx), %xmm0
	movdqa	B(%rdx), %xmm1
	paddq	A(%rdx), %xmm1
	paddq	A+16(%rdx), %xmm0
	movdqa	%xmm0, C+16(%rdx)
	movdqa	%xmm1, C(%rdx)
	incq	%rdi
	addq	$81920, %rdx            # imm = 0x14000
	cmpq	$31, %rdi
	jl	.LBB3_7
# BB#8:                                 # %polly.loop_exit11
                                        #   in Loop: Header=BB3_6 Depth=2
	addq	$256, %rax              # imm = 0x100
	cmpq	$319, %rsi              # imm = 0x13F
	leaq	1(%rsi), %rsi
	jl	.LBB3_6
# BB#9:                                 # %polly.loop_exit5
                                        #   in Loop: Header=BB3_5 Depth=1
	addq	$2621440, %rcx          # imm = 0x280000
	cmpq	$319, %r8               # imm = 0x13F
	leaq	1(%r8), %r8
	jl	.LBB3_5
# BB#10:                                # %mat_add.exit
	pushq	%rbp
.Ltmp40:
	.cfi_def_cfa_offset 16
.Ltmp41:
	.cfi_offset %rbp, -16
	movq	%rsp, %rbp
.Ltmp42:
	.cfi_def_cfa_register %rbp
	.loc	1 53 83                 # MatrixAdd.c:53:83
	movl	$838860792, %eax        # imm = 0x31FFFFF8
	movq	C(%rax), %r9
	.loc	1 53 5 is_stmt 0        # MatrixAdd.c:53:5
	movl	$.L.str.2, %edi
	movl	$10240, %esi            # imm = 0x2800
	movl	$10240, %edx            # imm = 0x2800
	movl	$10239, %ecx            # imm = 0x27FF
	movl	$10239, %r8d            # imm = 0x27FF
	xorl	%eax, %eax
	callq	printf
	.loc	1 54 5 is_stmt 1        # MatrixAdd.c:54:5
	xorl	%eax, %eax
	popq	%rbp
	retq
.Ltmp43:
.Lfunc_end3:
	.size	main, .Lfunc_end3-main
	.cfi_endproc

	.type	A,@object               # @A
	.comm	A,838860800,16
	.type	B,@object               # @B
	.comm	B,838860800,16
	.type	C,@object               # @C
	.comm	C,838860800,16
	.type	.L.str,@object          # @.str
	.section	.rodata.str1.1,"aMS",@progbits,1
.L.str:
	.asciz	"%lld "
	.size	.L.str, 6

	.type	.L.str.2,@object        # @.str.2
.L.str.2:
	.asciz	"Pass %d X %d matrix test case (C[%d][%d] =%lld) \n "
	.size	.L.str.2, 51

	.section	".note.GNU-stack","",@progbits