	.text
	.file	"MatrixAdd.openmp.ll"
	.file	1 "MatrixAdd.c"
	.globl	getRand
	.p2align	4, 0x90
	.type	getRand,@function
getRand:                                # @getRand
.Lfunc_begin0:
	.loc	1 8 0                   # MatrixAdd.c:8:0
	.cfi_startproc
# BB#0:                                 # %entry
	.loc	1 9 12 prologue_end     # MatrixAdd.c:9:12
	pushq	%rax
.Ltmp0:
	.cfi_def_cfa_offset 16
	callq	rand
	.loc	1 9 19 is_stmt 0        # MatrixAdd.c:9:19
	cltq
	imulq	$1374389535, %rax, %rcx # imm = 0x51EB851F
	movq	%rcx, %rdx
	shrq	$63, %rdx
	sarq	$37, %rcx
	addl	%edx, %ecx
	imull	$100, %ecx, %ecx
	subl	%ecx, %eax
	.loc	1 9 5                   # MatrixAdd.c:9:5
	popq	%rcx
	retq
.Ltmp1:
.Lfunc_end0:
	.size	getRand, .Lfunc_end0-getRand
	.cfi_endproc

	.globl	init
	.p2align	4, 0x90
	.type	init,@function
init:                                   # @init
.Lfunc_begin1:
	.loc	1 13 0 is_stmt 1        # MatrixAdd.c:13:0
	.cfi_startproc
# BB#0:                                 # %entry
	pushq	%rbp
.Ltmp2:
	.cfi_def_cfa_offset 16
	pushq	%r15
.Ltmp3:
	.cfi_def_cfa_offset 24
	pushq	%r14
.Ltmp4:
	.cfi_def_cfa_offset 32
	pushq	%r13
.Ltmp5:
	.cfi_def_cfa_offset 40
	pushq	%r12
.Ltmp6:
	.cfi_def_cfa_offset 48
	pushq	%rbx
.Ltmp7:
	.cfi_def_cfa_offset 56
	subq	$419430472, %rsp        # imm = 0x19000048
.Ltmp8:
	.cfi_def_cfa_offset 419430528
.Ltmp9:
	.cfi_offset %rbx, -56
.Ltmp10:
	.cfi_offset %r12, -48
.Ltmp11:
	.cfi_offset %r13, -40
.Ltmp12:
	.cfi_offset %r14, -32
.Ltmp13:
	.cfi_offset %r15, -24
.Ltmp14:
	.cfi_offset %rbp, -16
	leaq	56(%rsp), %rdi
.Ltmp15:
	#DEBUG_VALUE: init:t <- [%RDI+0]
	.loc	1 20 22 prologue_end    # MatrixAdd.c:20:22
	callq	time
	.loc	1 20 5 is_stmt 0 discriminator 1 # MatrixAdd.c:20:5
	movl	%eax, %edi
.Ltmp16:
	callq	srand
	leaq	64(%rsp), %r14
.Ltmp17:
	#DEBUG_VALUE: init:R <- [%R14+0]
	xorl	%r15d, %r15d
.Ltmp18:
	#DEBUG_VALUE: init:i <- 0
	.p2align	4, 0x90
.LBB1_1:                                # %for.cond2.preheader
                                        # =>This Loop Header: Depth=1
                                        #     Child Loop BB1_2 Depth 2
	movq	%r14, %rbx
	movl	$10240, %r12d           # imm = 0x2800
	.p2align	4, 0x90
.LBB1_2:                                # %for.body5
                                        #   Parent Loop BB1_1 Depth=1
                                        # =>  This Inner Loop Header: Depth=2
.Ltmp19:
	.loc	1 23 23 is_stmt 1       # MatrixAdd.c:23:23
	callq	rand
	.loc	1 23 30 is_stmt 0       # MatrixAdd.c:23:30
	cltq
	imulq	$1374389535, %rax, %rcx # imm = 0x51EB851F
	movq	%rcx, %rdx
	shrq	$63, %rdx
	sarq	$37, %rcx
	addl	%edx, %ecx
	imull	$100, %ecx, %ecx
	subl	%ecx, %eax
	.loc	1 23 21                 # MatrixAdd.c:23:21
	movl	%eax, (%rbx)
.Ltmp20:
	.loc	1 22 9 is_stmt 1 discriminator 1 # MatrixAdd.c:22:9
	addq	$4, %rbx
	decq	%r12
	jne	.LBB1_2
.Ltmp21:
# BB#3:                                 # %for.inc9
                                        #   in Loop: Header=BB1_1 Depth=1
	.loc	1 21 5 discriminator 1  # MatrixAdd.c:21:5
	incq	%r15
	addq	$40960, %r14            # imm = 0xA000
	cmpq	$10240, %r15            # imm = 0x2800
	jne	.LBB1_1
.Ltmp22:
# BB#4:                                 # %polly.parallel.for
	leaq	64(%rsp), %rax
	movq	%rax, 16(%rsp)
	leaq	16(%rsp), %rsi
	movl	$init_polly_subfn, %edi
	xorl	%edx, %edx
	xorl	%ecx, %ecx
	movl	$320, %r8d              # imm = 0x140
	movl	$1, %r9d
	callq	GOMP_parallel_loop_runtime_start
	movq	16(%rsp), %rax
	movq	%rax, 8(%rsp)           # 8-byte Spill
	leaq	32(%rsp), %rdi
	leaq	24(%rsp), %rsi
	callq	GOMP_loop_runtime_next
	testb	%al, %al
	je	.LBB1_15
# BB#5:                                 # %polly.par.loadIVBounds.i.preheader
	addq	$4, 8(%rsp)             # 8-byte Folded Spill
	.p2align	4, 0x90
.LBB1_7:                                # %polly.par.loadIVBounds.i
                                        # =>This Loop Header: Depth=1
                                        #     Child Loop BB1_10 Depth 2
                                        #       Child Loop BB1_11 Depth 3
                                        #         Child Loop BB1_14 Depth 4
                                        #           Child Loop BB1_12 Depth 5
	movq	24(%rsp), %rax
	movq	32(%rsp), %rcx
	addq	$-2, %rax
	movq	%rax, 40(%rsp)          # 8-byte Spill
	movq	%rcx, %rax
	shlq	$18, %rax
	leaq	(%rax,%rax,4), %r10
	movq	8(%rsp), %rax           # 8-byte Reload
	leaq	(%rax,%r10), %r11
	.p2align	4, 0x90
.LBB1_10:                               # %polly.loop_preheader3.i
                                        #   Parent Loop BB1_7 Depth=1
                                        # =>  This Loop Header: Depth=2
                                        #       Child Loop BB1_11 Depth 3
                                        #         Child Loop BB1_14 Depth 4
                                        #           Child Loop BB1_12 Depth 5
	movq	%rcx, 48(%rsp)          # 8-byte Spill
	movq	%r11, %r13
	movq	%r10, %r8
	xorl	%r9d, %r9d
	.p2align	4, 0x90
.LBB1_11:                               # %polly.loop_preheader9.i
                                        #   Parent Loop BB1_7 Depth=1
                                        #     Parent Loop BB1_10 Depth=2
                                        # =>    This Loop Header: Depth=3
                                        #         Child Loop BB1_14 Depth 4
                                        #           Child Loop BB1_12 Depth 5
	movq	%r13, %rdi
	movq	%r8, %rdx
	xorl	%esi, %esi
	.p2align	4, 0x90
.LBB1_14:                               # %polly.loop_preheader15.i
                                        #   Parent Loop BB1_7 Depth=1
                                        #     Parent Loop BB1_10 Depth=2
                                        #       Parent Loop BB1_11 Depth=3
                                        # =>      This Loop Header: Depth=4
                                        #           Child Loop BB1_12 Depth 5
	movq	%rdi, %rcx
	movq	%rdx, %rbp
	movl	$32, %r14d
	.p2align	4, 0x90
.LBB1_12:                               # %polly.loop_header14.i
                                        #   Parent Loop BB1_7 Depth=1
                                        #     Parent Loop BB1_10 Depth=2
                                        #       Parent Loop BB1_11 Depth=3
                                        #         Parent Loop BB1_14 Depth=4
                                        # =>        This Inner Loop Header: Depth=5
	movl	-4(%rcx), %r15d
	movl	%r15d, A(%rbp)
.Ltmp23:
	.loc	1 30 27                 # MatrixAdd.c:30:27
	movl	$100, %r12d
	subl	%r15d, %r12d
	movl	%r12d, B(%rbp)
	movl	(%rcx), %ebx
	movl	%ebx, A+4(%rbp)
	movl	$100, %eax
	subl	%ebx, %eax
	movl	%eax, B+4(%rbp)
	addq	$8, %rbp
	addq	$8, %rcx
	addq	$-2, %r14
	jne	.LBB1_12
.Ltmp24:
# BB#13:                                # %polly.loop_exit16.i
                                        #   in Loop: Header=BB1_14 Depth=4
	incq	%rsi
	addq	$40960, %rdx            # imm = 0xA000
	addq	$40960, %rdi            # imm = 0xA000
	cmpq	$32, %rsi
	jne	.LBB1_14
# BB#8:                                 # %polly.loop_exit10.i
                                        #   in Loop: Header=BB1_11 Depth=3
	incq	%r9
	subq	$-128, %r8
	subq	$-128, %r13
	cmpq	$320, %r9               # imm = 0x140
	jne	.LBB1_11
# BB#9:                                 # %polly.loop_exit4.i
                                        #   in Loop: Header=BB1_10 Depth=2
	addq	$1310720, %r10          # imm = 0x140000
	addq	$1310720, %r11          # imm = 0x140000
	movq	48(%rsp), %rcx          # 8-byte Reload
	cmpq	40(%rsp), %rcx          # 8-byte Folded Reload
	leaq	1(%rcx), %rcx
	jle	.LBB1_10
# BB#6:                                 # %polly.par.checkNext.loopexit.i
                                        #   in Loop: Header=BB1_7 Depth=1
	leaq	32(%rsp), %rdi
	leaq	24(%rsp), %rsi
	callq	GOMP_loop_runtime_next
	testb	%al, %al
	jne	.LBB1_7
.LBB1_15:                               # %init_polly_subfn.exit
	callq	GOMP_loop_end_nowait
	callq	GOMP_parallel_end
	.loc	1 33 1                  # MatrixAdd.c:33:1
	addq	$419430472, %rsp        # imm = 0x19000048
	popq	%rbx
	popq	%r12
	popq	%r13
	popq	%r14
	popq	%r15
	popq	%rbp
	retq
.Ltmp25:
.Lfunc_end1:
	.size	init, .Lfunc_end1-init
	.cfi_endproc

	.globl	mat_add
	.p2align	4, 0x90
	.type	mat_add,@function
mat_add:                                # @mat_add
.Lfunc_begin2:
	.loc	1 35 0                  # MatrixAdd.c:35:0
	.cfi_startproc
# BB#0:                                 # %entry
	pushq	%r15
.Ltmp26:
	.cfi_def_cfa_offset 16
	pushq	%r14
.Ltmp27:
	.cfi_def_cfa_offset 24
	pushq	%rbx
.Ltmp28:
	.cfi_def_cfa_offset 32
	subq	$32, %rsp
.Ltmp29:
	.cfi_def_cfa_offset 64
.Ltmp30:
	.cfi_offset %rbx, -32
.Ltmp31:
	.cfi_offset %r14, -24
.Ltmp32:
	.cfi_offset %r15, -16
.Ltmp33:
	#DEBUG_VALUE: mat_add:i <- 0
	leaq	8(%rsp), %rsi
	movl	$mat_add_polly_subfn, %edi
	xorl	%edx, %edx
	xorl	%ecx, %ecx
	movl	$320, %r8d              # imm = 0x140
	movl	$1, %r9d
	callq	GOMP_parallel_loop_runtime_start
	leaq	24(%rsp), %rdi
	leaq	16(%rsp), %rsi
	callq	GOMP_loop_runtime_next
	testb	%al, %al
	je	.LBB2_11
# BB#1:
	leaq	24(%rsp), %r14
	leaq	16(%rsp), %r15
	.p2align	4, 0x90
.LBB2_3:                                # %polly.par.loadIVBounds.i
                                        # =>This Loop Header: Depth=1
                                        #     Child Loop BB2_6 Depth 2
                                        #       Child Loop BB2_7 Depth 3
                                        #         Child Loop BB2_10 Depth 4
                                        #           Child Loop BB2_8 Depth 5
	movq	16(%rsp), %r8
	movq	24(%rsp), %r9
	addq	$-2, %r8
	movq	%r9, %rax
	shlq	$18, %rax
	leaq	(%rax,%rax,4), %r10
	.p2align	4, 0x90
.LBB2_6:                                # %polly.loop_preheader3.i
                                        #   Parent Loop BB2_3 Depth=1
                                        # =>  This Loop Header: Depth=2
                                        #       Child Loop BB2_7 Depth 3
                                        #         Child Loop BB2_10 Depth 4
                                        #           Child Loop BB2_8 Depth 5
	movq	%r10, %r11
	xorl	%edi, %edi
	.p2align	4, 0x90
.LBB2_7:                                # %polly.loop_preheader9.i
                                        #   Parent Loop BB2_3 Depth=1
                                        #     Parent Loop BB2_6 Depth=2
                                        # =>    This Loop Header: Depth=3
                                        #         Child Loop BB2_10 Depth 4
                                        #           Child Loop BB2_8 Depth 5
	movq	%r11, %rcx
	xorl	%eax, %eax
	.p2align	4, 0x90
.LBB2_10:                               # %polly.loop_preheader15.i
                                        #   Parent Loop BB2_3 Depth=1
                                        #     Parent Loop BB2_6 Depth=2
                                        #       Parent Loop BB2_7 Depth=3
                                        # =>      This Loop Header: Depth=4
                                        #           Child Loop BB2_8 Depth 5
	movq	%rcx, %rbx
	movl	$32, %edx
	.p2align	4, 0x90
.LBB2_8:                                # %polly.loop_header14.i
                                        #   Parent Loop BB2_3 Depth=1
                                        #     Parent Loop BB2_6 Depth=2
                                        #       Parent Loop BB2_7 Depth=3
                                        #         Parent Loop BB2_10 Depth=4
                                        # =>        This Inner Loop Header: Depth=5
	movl	B(%rbx), %esi
.Ltmp34:
	.loc	1 39 31 prologue_end    # MatrixAdd.c:39:31
	addl	A(%rbx), %esi
	movl	%esi, C(%rbx)
	movl	B+4(%rbx), %esi
	addl	A+4(%rbx), %esi
	movl	%esi, C+4(%rbx)
	addq	$8, %rbx
	addq	$-2, %rdx
	jne	.LBB2_8
.Ltmp35:
# BB#9:                                 # %polly.loop_exit16.i
                                        #   in Loop: Header=BB2_10 Depth=4
	incq	%rax
	addq	$40960, %rcx            # imm = 0xA000
	cmpq	$32, %rax
	jne	.LBB2_10
# BB#4:                                 # %polly.loop_exit10.i
                                        #   in Loop: Header=BB2_7 Depth=3
	incq	%rdi
	subq	$-128, %r11
	cmpq	$320, %rdi              # imm = 0x140
	jne	.LBB2_7
# BB#5:                                 # %polly.loop_exit4.i
                                        #   in Loop: Header=BB2_6 Depth=2
	addq	$1310720, %r10          # imm = 0x140000
	cmpq	%r8, %r9
	leaq	1(%r9), %r9
	jle	.LBB2_6
# BB#2:                                 # %polly.par.checkNext.loopexit.i
                                        #   in Loop: Header=BB2_3 Depth=1
	movq	%r14, %rdi
	movq	%r15, %rsi
	callq	GOMP_loop_runtime_next
	testb	%al, %al
	jne	.LBB2_3
.LBB2_11:                               # %mat_add_polly_subfn.exit
	callq	GOMP_loop_end_nowait
	callq	GOMP_parallel_end
	.loc	1 42 1                  # MatrixAdd.c:42:1
	addq	$32, %rsp
	popq	%rbx
	popq	%r14
	popq	%r15
	retq
.Ltmp36:
.Lfunc_end2:
	.size	mat_add, .Lfunc_end2-mat_add
	.cfi_endproc

	.globl	print_array
	.p2align	4, 0x90
	.type	print_array,@function
print_array:                            # @print_array
.Lfunc_begin3:
	.loc	1 45 0                  # MatrixAdd.c:45:0
	.cfi_startproc
# BB#0:                                 # %entry
	pushq	%r15
.Ltmp37:
	.cfi_def_cfa_offset 16
	pushq	%r14
.Ltmp38:
	.cfi_def_cfa_offset 24
	pushq	%r12
.Ltmp39:
	.cfi_def_cfa_offset 32
	pushq	%rbx
.Ltmp40:
	.cfi_def_cfa_offset 40
	pushq	%rax
.Ltmp41:
	.cfi_def_cfa_offset 48
.Ltmp42:
	.cfi_offset %rbx, -40
.Ltmp43:
	.cfi_offset %r12, -32
.Ltmp44:
	.cfi_offset %r14, -24
.Ltmp45:
	.cfi_offset %r15, -16
	movl	$C, %r14d
.Ltmp46:
	#DEBUG_VALUE: print_array:i <- 0
	xorl	%r15d, %r15d
	.p2align	4, 0x90
.LBB3_1:                                # %for.cond1.preheader
                                        # =>This Loop Header: Depth=1
                                        #     Child Loop BB3_2 Depth 2
	movq	%r14, %r12
	xorl	%ebx, %ebx
	.p2align	4, 0x90
.LBB3_2:                                # %for.body3
                                        #   Parent Loop BB3_1 Depth=1
                                        # =>  This Inner Loop Header: Depth=2
.Ltmp47:
	.loc	1 50 27 prologue_end    # MatrixAdd.c:50:27
	movl	(%r12), %esi
	.loc	1 50 13 is_stmt 0       # MatrixAdd.c:50:13
	movl	$.L.str, %edi
	xorl	%eax, %eax
	callq	printf
.Ltmp48:
	.loc	1 51 18 is_stmt 1       # MatrixAdd.c:51:18
	movslq	%ebx, %rax
	imulq	$1717986919, %rax, %rcx # imm = 0x66666667
	movq	%rcx, %rdx
	shrq	$63, %rdx
	sarq	$37, %rcx
	addl	%edx, %ecx
	shll	$4, %ecx
	leal	(%rcx,%rcx,4), %ecx
	subl	%ecx, %eax
.Ltmp49:
	.loc	1 51 17 is_stmt 0       # MatrixAdd.c:51:17
	cmpl	$79, %eax
	jne	.LBB3_4
# BB#3:                                 # %if.then
                                        #   in Loop: Header=BB3_2 Depth=2
.Ltmp50:
	.loc	1 51 29 discriminator 1 # MatrixAdd.c:51:29
	movl	$10, %edi
	callq	putchar
.Ltmp51:
.LBB3_4:                                # %for.inc
                                        #   in Loop: Header=BB3_2 Depth=2
	.loc	1 49 9 is_stmt 1 discriminator 1 # MatrixAdd.c:49:9
	incq	%rbx
	addq	$4, %r12
	cmpq	$10240, %rbx            # imm = 0x2800
	jne	.LBB3_2
.Ltmp52:
# BB#5:                                 # %for.end
                                        #   in Loop: Header=BB3_1 Depth=1
	.loc	1 53 9                  # MatrixAdd.c:53:9
	movl	$10, %edi
	callq	putchar
.Ltmp53:
	.loc	1 48 5 discriminator 1  # MatrixAdd.c:48:5
	incq	%r15
	addq	$40960, %r14            # imm = 0xA000
	cmpq	$10240, %r15            # imm = 0x2800
	jne	.LBB3_1
.Ltmp54:
# BB#6:                                 # %for.end11
	.loc	1 55 1                  # MatrixAdd.c:55:1
	addq	$8, %rsp
	popq	%rbx
	popq	%r12
	popq	%r14
	popq	%r15
	retq
.Ltmp55:
.Lfunc_end3:
	.size	print_array, .Lfunc_end3-print_array
	.cfi_endproc

	.globl	main
	.p2align	4, 0x90
	.type	main,@function
main:                                   # @main
.Lfunc_begin4:
	.loc	1 58 0                  # MatrixAdd.c:58:0
	.cfi_startproc
# BB#0:                                 # %entry
	.loc	1 61 5 prologue_end     # MatrixAdd.c:61:5
	subq	$40, %rsp
.Ltmp56:
	.cfi_def_cfa_offset 48
	callq	init
	.loc	1 62 5                  # MatrixAdd.c:62:5
	callq	mat_add
	.loc	1 64 5                  # MatrixAdd.c:64:5
	movl	$.L.str.2, %edi
	movl	$10240, %esi            # imm = 0x2800
	movl	$10240, %edx            # imm = 0x2800
	xorl	%eax, %eax
	callq	printf
	movl	$419430396, %eax        # imm = 0x18FFFFFC
	.loc	1 66 19                 # MatrixAdd.c:66:19
	movl	A(%rax), %ecx
	.loc	1 67 19                 # MatrixAdd.c:67:19
	movl	B(%rax), %edx
	.loc	1 68 19                 # MatrixAdd.c:68:19
	movl	C(%rax), %eax
	.loc	1 65 5                  # MatrixAdd.c:65:5
	movl	%eax, 24(%rsp)
	movl	%edx, (%rsp)
	movl	$10239, 16(%rsp)        # imm = 0x27FF
	movl	$10239, 8(%rsp)         # imm = 0x27FF
	movl	$.L.str.3, %edi
	movl	$10239, %esi            # imm = 0x27FF
	movl	$10239, %edx            # imm = 0x27FF
	movl	$10239, %r8d            # imm = 0x27FF
	movl	$10239, %r9d            # imm = 0x27FF
	xorl	%eax, %eax
	callq	printf
	.loc	1 69 5                  # MatrixAdd.c:69:5
	xorl	%eax, %eax
	addq	$40, %rsp
	retq
.Ltmp57:
.Lfunc_end4:
	.size	main, .Lfunc_end4-main
	.cfi_endproc

	.p2align	4, 0x90
	.type	init_polly_subfn,@function
init_polly_subfn:                       # @init_polly_subfn
.Lfunc_begin5:
	.cfi_startproc
# BB#0:                                 # %polly.par.setup
	pushq	%rbp
.Ltmp58:
	.cfi_def_cfa_offset 16
	pushq	%r15
.Ltmp59:
	.cfi_def_cfa_offset 24
	pushq	%r14
.Ltmp60:
	.cfi_def_cfa_offset 32
	pushq	%r13
.Ltmp61:
	.cfi_def_cfa_offset 40
	pushq	%r12
.Ltmp62:
	.cfi_def_cfa_offset 48
	pushq	%rbx
.Ltmp63:
	.cfi_def_cfa_offset 56
	subq	$40, %rsp
.Ltmp64:
	.cfi_def_cfa_offset 96
.Ltmp65:
	.cfi_offset %rbx, -56
.Ltmp66:
	.cfi_offset %r12, -48
.Ltmp67:
	.cfi_offset %r13, -40
.Ltmp68:
	.cfi_offset %r14, -32
.Ltmp69:
	.cfi_offset %r15, -24
.Ltmp70:
	.cfi_offset %rbp, -16
	movq	(%rdi), %rax
	movq	%rax, (%rsp)            # 8-byte Spill
	leaq	16(%rsp), %rdi
	leaq	8(%rsp), %rsi
	callq	GOMP_loop_runtime_next
	testb	%al, %al
	je	.LBB5_2
# BB#1:                                 # %polly.par.loadIVBounds.preheader
	addq	$4, (%rsp)              # 8-byte Folded Spill
	.p2align	4, 0x90
.LBB5_4:                                # %polly.par.loadIVBounds
                                        # =>This Loop Header: Depth=1
                                        #     Child Loop BB5_7 Depth 2
                                        #       Child Loop BB5_8 Depth 3
                                        #         Child Loop BB5_11 Depth 4
                                        #           Child Loop BB5_9 Depth 5
	movq	8(%rsp), %rax
	movq	16(%rsp), %rcx
	addq	$-2, %rax
	movq	%rax, 24(%rsp)          # 8-byte Spill
	movq	%rcx, %rax
	shlq	$18, %rax
	leaq	(%rax,%rax,4), %r10
	movq	(%rsp), %rax            # 8-byte Reload
	leaq	(%rax,%r10), %r11
	.p2align	4, 0x90
.LBB5_7:                                # %polly.loop_preheader3
                                        #   Parent Loop BB5_4 Depth=1
                                        # =>  This Loop Header: Depth=2
                                        #       Child Loop BB5_8 Depth 3
                                        #         Child Loop BB5_11 Depth 4
                                        #           Child Loop BB5_9 Depth 5
	movq	%rcx, 32(%rsp)          # 8-byte Spill
	movq	%r11, %r13
	movq	%r10, %r8
	xorl	%r9d, %r9d
	.p2align	4, 0x90
.LBB5_8:                                # %polly.loop_preheader9
                                        #   Parent Loop BB5_4 Depth=1
                                        #     Parent Loop BB5_7 Depth=2
                                        # =>    This Loop Header: Depth=3
                                        #         Child Loop BB5_11 Depth 4
                                        #           Child Loop BB5_9 Depth 5
	movq	%r13, %rdi
	movq	%r8, %rdx
	xorl	%esi, %esi
	.p2align	4, 0x90
.LBB5_11:                               # %polly.loop_preheader15
                                        #   Parent Loop BB5_4 Depth=1
                                        #     Parent Loop BB5_7 Depth=2
                                        #       Parent Loop BB5_8 Depth=3
                                        # =>      This Loop Header: Depth=4
                                        #           Child Loop BB5_9 Depth 5
	movq	%rdi, %rcx
	movq	%rdx, %rbp
	movl	$32, %r14d
	.p2align	4, 0x90
.LBB5_9:                                # %polly.loop_header14
                                        #   Parent Loop BB5_4 Depth=1
                                        #     Parent Loop BB5_7 Depth=2
                                        #       Parent Loop BB5_8 Depth=3
                                        #         Parent Loop BB5_11 Depth=4
                                        # =>        This Inner Loop Header: Depth=5
	movl	-4(%rcx), %r15d
	movl	%r15d, A(%rbp)
	.loc	1 30 27                 # MatrixAdd.c:30:27
	movl	$100, %r12d
	subl	%r15d, %r12d
	movl	%r12d, B(%rbp)
	movl	(%rcx), %ebx
	movl	%ebx, A+4(%rbp)
	movl	$100, %eax
	subl	%ebx, %eax
	movl	%eax, B+4(%rbp)
	addq	$8, %rbp
	addq	$8, %rcx
	addq	$-2, %r14
	jne	.LBB5_9
# BB#10:                                # %polly.loop_exit16
                                        #   in Loop: Header=BB5_11 Depth=4
	incq	%rsi
	addq	$40960, %rdx            # imm = 0xA000
	addq	$40960, %rdi            # imm = 0xA000
	cmpq	$32, %rsi
	jne	.LBB5_11
# BB#5:                                 # %polly.loop_exit10
                                        #   in Loop: Header=BB5_8 Depth=3
	incq	%r9
	subq	$-128, %r8
	subq	$-128, %r13
	cmpq	$320, %r9               # imm = 0x140
	jne	.LBB5_8
# BB#6:                                 # %polly.loop_exit4
                                        #   in Loop: Header=BB5_7 Depth=2
	addq	$1310720, %r10          # imm = 0x140000
	addq	$1310720, %r11          # imm = 0x140000
	movq	32(%rsp), %rcx          # 8-byte Reload
	cmpq	24(%rsp), %rcx          # 8-byte Folded Reload
	leaq	1(%rcx), %rcx
	jle	.LBB5_7
# BB#3:                                 # %polly.par.checkNext.loopexit
                                        #   in Loop: Header=BB5_4 Depth=1
	leaq	16(%rsp), %rdi
	leaq	8(%rsp), %rsi
	callq	GOMP_loop_runtime_next
	testb	%al, %al
	jne	.LBB5_4
.LBB5_2:                                # %polly.par.exit
	callq	GOMP_loop_end_nowait
	addq	$40, %rsp
	popq	%rbx
	popq	%r12
	popq	%r13
	popq	%r14
	popq	%r15
	popq	%rbp
	retq
.Lfunc_end5:
	.size	init_polly_subfn, .Lfunc_end5-init_polly_subfn
	.cfi_endproc

	.p2align	4, 0x90
	.type	mat_add_polly_subfn,@function
mat_add_polly_subfn:                    # @mat_add_polly_subfn
.Lfunc_begin6:
	.cfi_startproc
# BB#0:                                 # %polly.par.setup
	pushq	%r15
.Ltmp71:
	.cfi_def_cfa_offset 16
	pushq	%r14
.Ltmp72:
	.cfi_def_cfa_offset 24
	pushq	%rbx
.Ltmp73:
	.cfi_def_cfa_offset 32
	subq	$16, %rsp
.Ltmp74:
	.cfi_def_cfa_offset 48
.Ltmp75:
	.cfi_offset %rbx, -32
.Ltmp76:
	.cfi_offset %r14, -24
.Ltmp77:
	.cfi_offset %r15, -16
	leaq	8(%rsp), %rdi
	leaq	(%rsp), %rsi
	callq	GOMP_loop_runtime_next
	testb	%al, %al
	je	.LBB6_2
# BB#1:
	leaq	8(%rsp), %r14
	leaq	(%rsp), %r15
	.p2align	4, 0x90
.LBB6_4:                                # %polly.par.loadIVBounds
                                        # =>This Loop Header: Depth=1
                                        #     Child Loop BB6_7 Depth 2
                                        #       Child Loop BB6_8 Depth 3
                                        #         Child Loop BB6_11 Depth 4
                                        #           Child Loop BB6_9 Depth 5
	movq	(%rsp), %r8
	movq	8(%rsp), %r9
	addq	$-2, %r8
	movq	%r9, %rax
	shlq	$18, %rax
	leaq	(%rax,%rax,4), %r10
	.p2align	4, 0x90
.LBB6_7:                                # %polly.loop_preheader3
                                        #   Parent Loop BB6_4 Depth=1
                                        # =>  This Loop Header: Depth=2
                                        #       Child Loop BB6_8 Depth 3
                                        #         Child Loop BB6_11 Depth 4
                                        #           Child Loop BB6_9 Depth 5
	movq	%r10, %r11
	xorl	%edi, %edi
	.p2align	4, 0x90
.LBB6_8:                                # %polly.loop_preheader9
                                        #   Parent Loop BB6_4 Depth=1
                                        #     Parent Loop BB6_7 Depth=2
                                        # =>    This Loop Header: Depth=3
                                        #         Child Loop BB6_11 Depth 4
                                        #           Child Loop BB6_9 Depth 5
	movq	%r11, %rcx
	xorl	%eax, %eax
	.p2align	4, 0x90
.LBB6_11:                               # %polly.loop_preheader15
                                        #   Parent Loop BB6_4 Depth=1
                                        #     Parent Loop BB6_7 Depth=2
                                        #       Parent Loop BB6_8 Depth=3
                                        # =>      This Loop Header: Depth=4
                                        #           Child Loop BB6_9 Depth 5
	movq	%rcx, %rbx
	movl	$32, %edx
	.p2align	4, 0x90
.LBB6_9:                                # %polly.loop_header14
                                        #   Parent Loop BB6_4 Depth=1
                                        #     Parent Loop BB6_7 Depth=2
                                        #       Parent Loop BB6_8 Depth=3
                                        #         Parent Loop BB6_11 Depth=4
                                        # =>        This Inner Loop Header: Depth=5
	movl	B(%rbx), %esi
	.loc	1 39 31                 # MatrixAdd.c:39:31
	addl	A(%rbx), %esi
	movl	%esi, C(%rbx)
	movl	B+4(%rbx), %esi
	addl	A+4(%rbx), %esi
	movl	%esi, C+4(%rbx)
	addq	$8, %rbx
	addq	$-2, %rdx
	jne	.LBB6_9
# BB#10:                                # %polly.loop_exit16
                                        #   in Loop: Header=BB6_11 Depth=4
	incq	%rax
	addq	$40960, %rcx            # imm = 0xA000
	cmpq	$32, %rax
	jne	.LBB6_11
# BB#5:                                 # %polly.loop_exit10
                                        #   in Loop: Header=BB6_8 Depth=3
	incq	%rdi
	subq	$-128, %r11
	cmpq	$320, %rdi              # imm = 0x140
	jne	.LBB6_8
# BB#6:                                 # %polly.loop_exit4
                                        #   in Loop: Header=BB6_7 Depth=2
	addq	$1310720, %r10          # imm = 0x140000
	cmpq	%r8, %r9
	leaq	1(%r9), %r9
	jle	.LBB6_7
# BB#3:                                 # %polly.par.checkNext.loopexit
                                        #   in Loop: Header=BB6_4 Depth=1
	movq	%r14, %rdi
	movq	%r15, %rsi
	callq	GOMP_loop_runtime_next
	testb	%al, %al
	jne	.LBB6_4
.LBB6_2:                                # %polly.par.exit
	callq	GOMP_loop_end_nowait
	addq	$16, %rsp
	popq	%rbx
	popq	%r14
	popq	%r15
	retq
.Lfunc_end6:
	.size	mat_add_polly_subfn, .Lfunc_end6-mat_add_polly_subfn
	.cfi_endproc

	.type	A,@object               # @A
	.comm	A,419430400,16
	.type	B,@object               # @B
	.comm	B,419430400,16
	.type	C,@object               # @C
	.comm	C,419430400,16
	.type	.L.str,@object          # @.str
	.section	.rodata.str1.1,"aMS",@progbits,1
.L.str:
	.asciz	"%d "
	.size	.L.str, 4

	.type	.L.str.2,@object        # @.str.2
.L.str.2:
	.asciz	"Pass %d X %d matrix test case \n"
	.size	.L.str.2, 32

	.type	.L.str.3,@object        # @.str.3
.L.str.3:
	.asciz	"A[%d][%d] = %d, B[%d][%d] =%d, C[%d][%d] =%d \n"
	.size	.L.str.3, 47

	.file	2 "/usr/include/x86_64-linux-gnu/bits/types.h"
	.file	3 "/usr/include/time.h"
	.section	".note.GNU-stack","",@progbits