	.text
	.file	"MatrixAdd.polly.ll"
	.file	1 "MatrixAdd.c"
	.globl	init
	.p2align	4, 0x90
	.type	init,@function
init:                                   # @init
.Lfunc_begin0:
	.loc	1 8 0                   # MatrixAdd.c:8:0
	.cfi_startproc
# BB#0:                                 # %entry
	pushq	%r15
.Ltmp0:
	.cfi_def_cfa_offset 16
	pushq	%r14
.Ltmp1:
	.cfi_def_cfa_offset 24
	pushq	%r12
.Ltmp2:
	.cfi_def_cfa_offset 32
	pushq	%rbx
.Ltmp3:
	.cfi_def_cfa_offset 40
	pushq	%rax
.Ltmp4:
	.cfi_def_cfa_offset 48
.Ltmp5:
	.cfi_offset %rbx, -40
.Ltmp6:
	.cfi_offset %r12, -32
.Ltmp7:
	.cfi_offset %r14, -24
.Ltmp8:
	.cfi_offset %r15, -16
	leaq	(%rsp), %rdi
.Ltmp9:
	#DEBUG_VALUE: init:t <- [%RDI+0]
	.loc	1 13 22 prologue_end    # MatrixAdd.c:13:22
	callq	time
	.loc	1 13 5 is_stmt 0 discriminator 1 # MatrixAdd.c:13:5
	movl	%eax, %edi
.Ltmp10:
	callq	srand
	xorl	%r14d, %r14d
.Ltmp11:
	#DEBUG_VALUE: init:i <- 0
	xorl	%r15d, %r15d
	.p2align	4, 0x90
.LBB0_1:                                # %for.cond2.preheader
                                        # =>This Loop Header: Depth=1
                                        #     Child Loop BB0_2 Depth 2
	movq	%r14, %rbx
	movl	$10240, %r12d           # imm = 0x2800
	.p2align	4, 0x90
.LBB0_2:                                # %for.body5
                                        #   Parent Loop BB0_1 Depth=1
                                        # =>  This Inner Loop Header: Depth=2
.Ltmp12:
	.loc	1 16 21 is_stmt 1 discriminator 1 # MatrixAdd.c:16:21
	callq	rand
	.loc	1 16 28 is_stmt 0       # MatrixAdd.c:16:28
	cltq
	imulq	$1374389535, %rax, %rcx # imm = 0x51EB851F
	movq	%rcx, %rdx
	shrq	$63, %rdx
	sarq	$37, %rcx
	addl	%edx, %ecx
	imull	$100, %ecx, %ecx
	subl	%ecx, %eax
.Ltmp13:
	#DEBUG_VALUE: r <- %EAX
	.loc	1 17 21 is_stmt 1       # MatrixAdd.c:17:21
	addl	%eax, A(%rbx)
	.loc	1 18 31                 # MatrixAdd.c:18:31
	movl	$100, %ecx
	subl	%eax, %ecx
	.loc	1 18 21 is_stmt 0       # MatrixAdd.c:18:21
	addl	%ecx, B(%rbx)
.Ltmp14:
	.loc	1 15 9 is_stmt 1 discriminator 1 # MatrixAdd.c:15:9
	addq	$4, %rbx
	decq	%r12
	jne	.LBB0_2
.Ltmp15:
# BB#3:                                 # %for.inc22
                                        #   in Loop: Header=BB0_1 Depth=1
	#DEBUG_VALUE: r <- %EAX
	.loc	1 14 5 discriminator 1  # MatrixAdd.c:14:5
	incq	%r15
	addq	$40960, %r14            # imm = 0xA000
	cmpq	$10240, %r15            # imm = 0x2800
	jne	.LBB0_1
.Ltmp16:
# BB#4:                                 # %for.end24
	#DEBUG_VALUE: r <- %EAX
	.loc	1 21 1                  # MatrixAdd.c:21:1
	addq	$8, %rsp
	popq	%rbx
	popq	%r12
	popq	%r14
	popq	%r15
	retq
.Ltmp17:
.Lfunc_end0:
	.size	init, .Lfunc_end0-init
	.cfi_endproc

	.globl	mat_add
	.p2align	4, 0x90
	.type	mat_add,@function
mat_add:                                # @mat_add
.Lfunc_begin1:
	.loc	1 23 0                  # MatrixAdd.c:23:0
	.cfi_startproc
# BB#0:                                 # %entry
	xorl	%r8d, %r8d
.Ltmp18:
	#DEBUG_VALUE: mat_add:i <- 0
	xorl	%r9d, %r9d
	.p2align	4, 0x90
.LBB1_1:                                # %polly.loop_preheader34
                                        # =>This Loop Header: Depth=1
                                        #     Child Loop BB1_6 Depth 2
                                        #       Child Loop BB1_7 Depth 3
                                        #         Child Loop BB1_8 Depth 4
	movq	%r8, %r10
	xorl	%r11d, %r11d
	.p2align	4, 0x90
.LBB1_6:                                # %polly.loop_preheader40
                                        #   Parent Loop BB1_1 Depth=1
                                        # =>  This Loop Header: Depth=2
                                        #       Child Loop BB1_7 Depth 3
                                        #         Child Loop BB1_8 Depth 4
	movq	%r10, %rcx
	xorl	%eax, %eax
	.p2align	4, 0x90
.LBB1_7:                                # %polly.loop_preheader46
                                        #   Parent Loop BB1_1 Depth=1
                                        #     Parent Loop BB1_6 Depth=2
                                        # =>    This Loop Header: Depth=3
                                        #         Child Loop BB1_8 Depth 4
	movq	%rcx, %rdi
	movl	$32, %edx
	.p2align	4, 0x90
.LBB1_8:                                # %polly.loop_header45
                                        #   Parent Loop BB1_1 Depth=1
                                        #     Parent Loop BB1_6 Depth=2
                                        #       Parent Loop BB1_7 Depth=3
                                        # =>      This Inner Loop Header: Depth=4
	movl	B(%rdi), %esi
.Ltmp19:
	.loc	1 27 31 prologue_end    # MatrixAdd.c:27:31
	addl	A(%rdi), %esi
	movl	%esi, C(%rdi)
	movl	B+4(%rdi), %esi
	addl	A+4(%rdi), %esi
	movl	%esi, C+4(%rdi)
	addq	$8, %rdi
	addq	$-2, %rdx
	jne	.LBB1_8
.Ltmp20:
# BB#4:                                 # %polly.loop_exit47
                                        #   in Loop: Header=BB1_7 Depth=3
	incq	%rax
	addq	$40960, %rcx            # imm = 0xA000
	cmpq	$32, %rax
	jne	.LBB1_7
# BB#5:                                 # %polly.loop_exit41
                                        #   in Loop: Header=BB1_6 Depth=2
	incq	%r11
	subq	$-128, %r10
	cmpq	$320, %r11              # imm = 0x140
	jne	.LBB1_6
# BB#2:                                 # %polly.loop_exit35
                                        #   in Loop: Header=BB1_1 Depth=1
	incq	%r9
	addq	$1310720, %r8           # imm = 0x140000
	cmpq	$320, %r9               # imm = 0x140
	jne	.LBB1_1
# BB#3:                                 # %polly.exiting
	.loc	1 30 1                  # MatrixAdd.c:30:1
	retq
.Ltmp21:
.Lfunc_end1:
	.size	mat_add, .Lfunc_end1-mat_add
	.cfi_endproc

	.globl	print_array
	.p2align	4, 0x90
	.type	print_array,@function
print_array:                            # @print_array
.Lfunc_begin2:
	.loc	1 33 0                  # MatrixAdd.c:33:0
	.cfi_startproc
# BB#0:                                 # %entry
	pushq	%r15
.Ltmp22:
	.cfi_def_cfa_offset 16
	pushq	%r14
.Ltmp23:
	.cfi_def_cfa_offset 24
	pushq	%r12
.Ltmp24:
	.cfi_def_cfa_offset 32
	pushq	%rbx
.Ltmp25:
	.cfi_def_cfa_offset 40
	pushq	%rax
.Ltmp26:
	.cfi_def_cfa_offset 48
.Ltmp27:
	.cfi_offset %rbx, -40
.Ltmp28:
	.cfi_offset %r12, -32
.Ltmp29:
	.cfi_offset %r14, -24
.Ltmp30:
	.cfi_offset %r15, -16
	movl	$C, %r14d
.Ltmp31:
	#DEBUG_VALUE: print_array:i <- 0
	xorl	%r15d, %r15d
	.p2align	4, 0x90
.LBB2_1:                                # %for.cond1.preheader
                                        # =>This Loop Header: Depth=1
                                        #     Child Loop BB2_2 Depth 2
	movq	%r14, %r12
	xorl	%ebx, %ebx
	.p2align	4, 0x90
.LBB2_2:                                # %for.body3
                                        #   Parent Loop BB2_1 Depth=1
                                        # =>  This Inner Loop Header: Depth=2
.Ltmp32:
	.loc	1 38 27 prologue_end    # MatrixAdd.c:38:27
	movl	(%r12), %esi
	.loc	1 38 13 is_stmt 0       # MatrixAdd.c:38:13
	movl	$.L.str, %edi
	xorl	%eax, %eax
	callq	printf
.Ltmp33:
	.loc	1 39 18 is_stmt 1       # MatrixAdd.c:39:18
	movslq	%ebx, %rax
	imulq	$1717986919, %rax, %rcx # imm = 0x66666667
	movq	%rcx, %rdx
	shrq	$63, %rdx
	sarq	$37, %rcx
	addl	%edx, %ecx
	shll	$4, %ecx
	leal	(%rcx,%rcx,4), %ecx
	subl	%ecx, %eax
.Ltmp34:
	.loc	1 39 17 is_stmt 0       # MatrixAdd.c:39:17
	cmpl	$79, %eax
	jne	.LBB2_4
# BB#3:                                 # %if.then
                                        #   in Loop: Header=BB2_2 Depth=2
.Ltmp35:
	.loc	1 39 29 discriminator 1 # MatrixAdd.c:39:29
	movl	$10, %edi
	callq	putchar
.Ltmp36:
.LBB2_4:                                # %for.inc
                                        #   in Loop: Header=BB2_2 Depth=2
	.loc	1 37 9 is_stmt 1 discriminator 1 # MatrixAdd.c:37:9
	incq	%rbx
	addq	$4, %r12
	cmpq	$10240, %rbx            # imm = 0x2800
	jne	.LBB2_2
.Ltmp37:
# BB#5:                                 # %for.end
                                        #   in Loop: Header=BB2_1 Depth=1
	.loc	1 41 9                  # MatrixAdd.c:41:9
	movl	$10, %edi
	callq	putchar
.Ltmp38:
	.loc	1 36 5 discriminator 1  # MatrixAdd.c:36:5
	incq	%r15
	addq	$40960, %r14            # imm = 0xA000
	cmpq	$10240, %r15            # imm = 0x2800
	jne	.LBB2_1
.Ltmp39:
# BB#6:                                 # %for.end11
	.loc	1 43 1                  # MatrixAdd.c:43:1
	addq	$8, %rsp
	popq	%rbx
	popq	%r12
	popq	%r14
	popq	%r15
	retq
.Ltmp40:
.Lfunc_end2:
	.size	print_array, .Lfunc_end2-print_array
	.cfi_endproc

	.globl	main
	.p2align	4, 0x90
	.type	main,@function
main:                                   # @main
.Lfunc_begin3:
	.loc	1 46 0                  # MatrixAdd.c:46:0
	.cfi_startproc
# BB#0:                                 # %entry
	pushq	%r15
.Ltmp41:
	.cfi_def_cfa_offset 16
	pushq	%r14
.Ltmp42:
	.cfi_def_cfa_offset 24
	pushq	%r12
.Ltmp43:
	.cfi_def_cfa_offset 32
	pushq	%rbx
.Ltmp44:
	.cfi_def_cfa_offset 40
	pushq	%rax
.Ltmp45:
	.cfi_def_cfa_offset 48
.Ltmp46:
	.cfi_offset %rbx, -40
.Ltmp47:
	.cfi_offset %r12, -32
.Ltmp48:
	.cfi_offset %r14, -24
.Ltmp49:
	.cfi_offset %r15, -16
	leaq	(%rsp), %rdi
.Ltmp50:
	#DEBUG_VALUE: init:t <- [%RDI+0]
	.loc	1 13 22 prologue_end    # MatrixAdd.c:13:22
	callq	time
.Ltmp51:
	.loc	1 13 5 is_stmt 0 discriminator 1 # MatrixAdd.c:13:5
	movl	%eax, %edi
.Ltmp52:
	callq	srand
	xorl	%r14d, %r14d
.Ltmp53:
	#DEBUG_VALUE: init:i <- 0
	.loc	1 49 5 is_stmt 1        # MatrixAdd.c:49:5
	xorl	%r15d, %r15d
	.p2align	4, 0x90
.LBB3_1:                                # %for.cond2.preheader.i
                                        # =>This Loop Header: Depth=1
                                        #     Child Loop BB3_2 Depth 2
	movq	%r14, %rbx
	movl	$10240, %r12d           # imm = 0x2800
	.p2align	4, 0x90
.LBB3_2:                                # %for.body5.i
                                        #   Parent Loop BB3_1 Depth=1
                                        # =>  This Inner Loop Header: Depth=2
.Ltmp54:
	.loc	1 16 21 discriminator 1 # MatrixAdd.c:16:21
	callq	rand
.Ltmp55:
	.loc	1 16 28 is_stmt 0       # MatrixAdd.c:16:28
	cltq
	imulq	$1374389535, %rax, %rcx # imm = 0x51EB851F
	movq	%rcx, %rdx
	shrq	$63, %rdx
	sarq	$37, %rcx
	addl	%edx, %ecx
	imull	$100, %ecx, %ecx
	subl	%ecx, %eax
.Ltmp56:
	#DEBUG_VALUE: r <- %EAX
	.loc	1 17 21 is_stmt 1       # MatrixAdd.c:17:21
	addl	%eax, A(%rbx)
	.loc	1 18 31                 # MatrixAdd.c:18:31
	movl	$100, %ecx
	subl	%eax, %ecx
	.loc	1 18 21 is_stmt 0       # MatrixAdd.c:18:21
	addl	%ecx, B(%rbx)
.Ltmp57:
	.loc	1 15 9 is_stmt 1 discriminator 1 # MatrixAdd.c:15:9
	addq	$4, %rbx
	decq	%r12
	jne	.LBB3_2
.Ltmp58:
# BB#3:                                 # %for.inc22.i
                                        #   in Loop: Header=BB3_1 Depth=1
	#DEBUG_VALUE: r <- %EAX
	.loc	1 14 5 discriminator 1  # MatrixAdd.c:14:5
	incq	%r15
	addq	$40960, %r14            # imm = 0xA000
	cmpq	$10240, %r15            # imm = 0x2800
	jne	.LBB3_1
.Ltmp59:
# BB#4:                                 # %init.exit
	#DEBUG_VALUE: r <- %EAX
	xorl	%r8d, %r8d
.Ltmp60:
	#DEBUG_VALUE: mat_add:i <- 0
	.loc	1 50 5                  # MatrixAdd.c:50:5
	xorl	%r9d, %r9d
.Ltmp61:
	.p2align	4, 0x90
.LBB3_7:                                # %polly.loop_preheader34.i
                                        # =>This Loop Header: Depth=1
                                        #     Child Loop BB3_8 Depth 2
                                        #       Child Loop BB3_11 Depth 3
                                        #         Child Loop BB3_9 Depth 4
	movq	%r8, %r10
	xorl	%esi, %esi
	.p2align	4, 0x90
.LBB3_8:                                # %polly.loop_preheader40.i
                                        #   Parent Loop BB3_7 Depth=1
                                        # =>  This Loop Header: Depth=2
                                        #       Child Loop BB3_11 Depth 3
                                        #         Child Loop BB3_9 Depth 4
	movq	%r10, %rax
	xorl	%ebx, %ebx
	.p2align	4, 0x90
.LBB3_11:                               # %polly.loop_preheader46.i
                                        #   Parent Loop BB3_7 Depth=1
                                        #     Parent Loop BB3_8 Depth=2
                                        # =>    This Loop Header: Depth=3
                                        #         Child Loop BB3_9 Depth 4
	movq	%rax, %rdi
	movl	$32, %ecx
	.p2align	4, 0x90
.LBB3_9:                                # %polly.loop_header45.i
                                        #   Parent Loop BB3_7 Depth=1
                                        #     Parent Loop BB3_8 Depth=2
                                        #       Parent Loop BB3_11 Depth=3
                                        # =>      This Inner Loop Header: Depth=4
	movl	B(%rdi), %edx
.Ltmp62:
	.loc	1 27 31                 # MatrixAdd.c:27:31
	addl	A(%rdi), %edx
.Ltmp63:
	.loc	1 50 5                  # MatrixAdd.c:50:5
	movl	%edx, C(%rdi)
	movl	B+4(%rdi), %edx
.Ltmp64:
	.loc	1 27 31                 # MatrixAdd.c:27:31
	addl	A+4(%rdi), %edx
.Ltmp65:
	.loc	1 50 5                  # MatrixAdd.c:50:5
	movl	%edx, C+4(%rdi)
	addq	$8, %rdi
	addq	$-2, %rcx
	jne	.LBB3_9
# BB#10:                                # %polly.loop_exit47.i
                                        #   in Loop: Header=BB3_11 Depth=3
	incq	%rbx
	addq	$40960, %rax            # imm = 0xA000
	cmpq	$32, %rbx
	jne	.LBB3_11
# BB#5:                                 # %polly.loop_exit41.i
                                        #   in Loop: Header=BB3_8 Depth=2
	incq	%rsi
	subq	$-128, %r10
	cmpq	$320, %rsi              # imm = 0x140
	jne	.LBB3_8
# BB#6:                                 # %polly.loop_exit35.i
                                        #   in Loop: Header=BB3_7 Depth=1
	incq	%r9
	addq	$1310720, %r8           # imm = 0x140000
	cmpq	$320, %r9               # imm = 0x140
	jne	.LBB3_7
# BB#12:                                # %mat_add.exit
	.loc	1 52 81                 # MatrixAdd.c:52:81
	movl	$419430396, %eax        # imm = 0x18FFFFFC
	movl	C(%rax), %r9d
	.loc	1 52 5 is_stmt 0        # MatrixAdd.c:52:5
	movl	$.L.str.2, %edi
	movl	$10240, %esi            # imm = 0x2800
	movl	$10240, %edx            # imm = 0x2800
	movl	$10239, %ecx            # imm = 0x27FF
	movl	$10239, %r8d            # imm = 0x27FF
	xorl	%eax, %eax
	callq	printf
	.loc	1 53 5 is_stmt 1        # MatrixAdd.c:53:5
	xorl	%eax, %eax
	addq	$8, %rsp
	popq	%rbx
	popq	%r12
	popq	%r14
	popq	%r15
	retq
.Ltmp66:
.Lfunc_end3:
	.size	main, .Lfunc_end3-main
	.cfi_endproc
	.file	2 "/usr/include/x86_64-linux-gnu/bits/types.h"
	.file	3 "/usr/include/time.h"

	.type	A,@object               # @A
	.comm	A,419430400,16
	.type	B,@object               # @B
	.comm	B,419430400,16
	.type	C,@object               # @C
	.comm	C,419430400,16
	.type	.L.str,@object          # @.str
	.section	.rodata.str1.1,"aMS",@progbits,1
.L.str:
	.asciz	"%d "
	.size	.L.str, 4

	.type	.L.str.2,@object        # @.str.2
.L.str.2:
	.asciz	"Pass %d X %d matrix test case (C[%d][%d] =%d) \n "
	.size	.L.str.2, 49

	.section	".note.GNU-stack","",@progbits