	.text
	.file	"llvm/CoinGame.polly.enablevc.ll"
	.section	.rodata.cst16,"aM",@progbits,16
	.p2align	4
.LCPI0_0:
	.quad	2                       # 0x2
	.quad	3                       # 0x3
	.text
	.globl	init
	.p2align	4, 0x90
	.type	init,@function
init:                                   # @init
.Lfunc_begin0:
	.file	1 "CoinGame.c"
	.loc	1 2 0                   # CoinGame.c:2:0
	.cfi_startproc
# BB#0:                                 # %entry
	pushq	%rbx
.Ltmp0:
	.cfi_def_cfa_offset 16
.Ltmp1:
	.cfi_offset %rbx, -16
	#DEBUG_VALUE: init:n <- %RDI
.Ltmp2:
	#DEBUG_VALUE: init:_5_size <- %RDI
	#DEBUG_VALUE: init:coins_size <- %RDI
	movq	%rdi, %rbx
.Ltmp3:
	#DEBUG_VALUE: init:_10 <- 0
	#DEBUG_VALUE: init:_9 <- 0
	#DEBUG_VALUE: init:_8 <- 0
	#DEBUG_VALUE: init:_7 <- 0
	#DEBUG_VALUE: init:_6 <- 0
	#DEBUG_VALUE: init:_5_has_ownership <- 0
	#DEBUG_VALUE: init:_4 <- 0
	#DEBUG_VALUE: init:i <- 0
	#DEBUG_VALUE: init:coins_has_ownership <- 0
	#DEBUG_VALUE: init:_1_has_ownership <- 0
	#DEBUG_VALUE: init:_1_size <- 0
	#DEBUG_VALUE: init:coins_size <- 0
	#DEBUG_VALUE: init:_5_size <- 0
	#DEBUG_VALUE: init:n <- %RBX
	.loc	1 20 2 prologue_end     # CoinGame.c:20:2
	xorl	%edi, %edi
	movl	%ebx, %esi
	callq	gen1DArray
.Ltmp4:
	#DEBUG_VALUE: init:_5 <- %RAX
	#DEBUG_VALUE: init:coins <- %RAX
	#DEBUG_VALUE: init:coins_has_ownership <- 1
	.loc	1 34 6                  # CoinGame.c:34:6
	testq	%rbx, %rbx
	jle	.LBB0_10
.Ltmp5:
# BB#1:                                 # %if.end7.preheader
	#DEBUG_VALUE: init:coins <- %RAX
	#DEBUG_VALUE: init:_5 <- %RAX
	#DEBUG_VALUE: init:n <- %RBX
	xorl	%edx, %edx
	.loc	1 36 6                  # CoinGame.c:36:6
	cmpq	$4, %rbx
	jb	.LBB0_9
.Ltmp6:
# BB#2:                                 # %min.iters.checked
	#DEBUG_VALUE: init:n <- %RBX
	#DEBUG_VALUE: init:_5 <- %RAX
	#DEBUG_VALUE: init:coins <- %RAX
	xorl	%edx, %edx
	movq	%rbx, %rcx
	andq	$-4, %rcx
	je	.LBB0_9
.Ltmp7:
# BB#3:                                 # %vector.body.preheader
	#DEBUG_VALUE: init:coins <- %RAX
	#DEBUG_VALUE: init:_5 <- %RAX
	#DEBUG_VALUE: init:n <- %RBX
	leaq	-4(%rcx), %rdi
	movq	%rdi, %rsi
	shrq	$2, %rsi
	xorl	%edx, %edx
	btq	$2, %rdi
	jb	.LBB0_5
.Ltmp8:
# BB#4:                                 # %vector.body.prol
	#DEBUG_VALUE: init:n <- %RBX
	#DEBUG_VALUE: init:_5 <- %RAX
	#DEBUG_VALUE: init:coins <- %RAX
	movdqu	(%rax), %xmm0
	movdqu	16(%rax), %xmm1
	.loc	1 38 8                  # CoinGame.c:38:8
	movl	$1, %edx
	movd	%rdx, %xmm2
	pslldq	$8, %xmm2               # xmm2 = zero,zero,zero,zero,zero,zero,zero,zero,xmm2[0,1,2,3,4,5,6,7]
	paddq	%xmm0, %xmm2
	paddq	.LCPI0_0(%rip), %xmm1
	.loc	1 40 12                 # CoinGame.c:40:12
	movdqu	%xmm2, (%rax)
	movdqu	%xmm1, 16(%rax)
	movl	$4, %edx
.Ltmp9:
.LBB0_5:                                # %vector.body.preheader.split
	#DEBUG_VALUE: init:n <- %RBX
	#DEBUG_VALUE: init:_5 <- %RAX
	#DEBUG_VALUE: init:coins <- %RAX
	testq	%rsi, %rsi
	je	.LBB0_8
.Ltmp10:
# BB#6:
	#DEBUG_VALUE: init:coins <- %RAX
	#DEBUG_VALUE: init:_5 <- %RAX
	#DEBUG_VALUE: init:n <- %RBX
	movl	$1, %esi
	movd	%rsi, %xmm0
	pslldq	$8, %xmm0               # xmm0 = zero,zero,zero,zero,zero,zero,zero,zero,xmm0[0,1,2,3,4,5,6,7]
	movdqa	.LCPI0_0(%rip), %xmm1   # xmm1 = [2,3]
.Ltmp11:
	.p2align	4, 0x90
.LBB0_7:                                # %vector.body
                                        # =>This Inner Loop Header: Depth=1
	movd	%rdx, %xmm2
	pshufd	$68, %xmm2, %xmm2       # xmm2 = xmm2[0,1,0,1]
	.loc	1 36 6                  # CoinGame.c:36:6
	movdqu	(%rax,%rdx,8), %xmm3
	paddq	%xmm2, %xmm3
	movdqu	16(%rax,%rdx,8), %xmm4
	paddq	%xmm2, %xmm4
	.loc	1 38 8                  # CoinGame.c:38:8
	paddq	%xmm0, %xmm3
	paddq	%xmm1, %xmm4
	.loc	1 40 12                 # CoinGame.c:40:12
	movdqu	%xmm3, (%rax,%rdx,8)
	movdqu	%xmm4, 16(%rax,%rdx,8)
	.loc	1 36 6                  # CoinGame.c:36:6
	leaq	4(%rdx), %rsi
	movd	%rsi, %xmm2
	pshufd	$68, %xmm2, %xmm2       # xmm2 = xmm2[0,1,0,1]
	movdqu	32(%rax,%rdx,8), %xmm3
	paddq	%xmm2, %xmm3
	movdqu	48(%rax,%rdx,8), %xmm4
	paddq	%xmm2, %xmm4
	.loc	1 38 8                  # CoinGame.c:38:8
	paddq	%xmm0, %xmm3
	paddq	%xmm1, %xmm4
	.loc	1 40 12                 # CoinGame.c:40:12
	movdqu	%xmm3, 32(%rax,%rdx,8)
	movdqu	%xmm4, 48(%rax,%rdx,8)
	.loc	1 36 6                  # CoinGame.c:36:6
	addq	$8, %rdx
	cmpq	%rcx, %rdx
	jne	.LBB0_7
.LBB0_8:                                # %middle.block
	cmpq	%rbx, %rcx
	movq	%rcx, %rdx
	je	.LBB0_10
	.p2align	4, 0x90
.LBB0_9:                                # %if.end7
                                        # =>This Inner Loop Header: Depth=1
	.loc	1 40 12                 # CoinGame.c:40:12
	addq	%rdx, (%rax,%rdx,8)
.Ltmp12:
	#DEBUG_VALUE: init:_9 <- 1
	.loc	1 44 8                  # CoinGame.c:44:8
	incq	%rdx
.Ltmp13:
	#DEBUG_VALUE: init:_10 <- %RDX
	#DEBUG_VALUE: init:i <- %RDX
	.loc	1 34 6                  # CoinGame.c:34:6
	cmpq	%rdx, %rbx
	jne	.LBB0_9
.Ltmp14:
.LBB0_10:                               # %if.end15
	.loc	1 55 2                  # CoinGame.c:55:2
	popq	%rbx
	retq
.Ltmp15:
.Lfunc_end0:
	.size	init, .Lfunc_end0-init
	.cfi_endproc

	.globl	getBobSum
	.p2align	4, 0x90
	.type	getBobSum,@function
getBobSum:                              # @getBobSum
.Lfunc_begin1:
	.loc	1 59 0                  # CoinGame.c:59:0
	.cfi_startproc
# BB#0:                                 # %entry
	pushq	%rbx
.Ltmp16:
	.cfi_def_cfa_offset 16
.Ltmp17:
	.cfi_offset %rbx, -16
	#DEBUG_VALUE: getBobSum:sum_alice <- %RDI
	#DEBUG_VALUE: getBobSum:coins <- %RSI
	#DEBUG_VALUE: getBobSum:coins_size <- %RDX
	#DEBUG_VALUE: getBobSum:coins_has_ownership [bit_piece offset=0 size=1] <- %ECX
.Ltmp18:
	#DEBUG_VALUE: getBobSum:coins_has_ownership [bit_piece offset=0 size=1] <- %CL
	#DEBUG_VALUE: getBobSum:n <- %R8
	#DEBUG_VALUE: getBobSum:_3 <- 0
	#DEBUG_VALUE: getBobSum:i <- 0
	#DEBUG_VALUE: getBobSum:sum <- 0
	#DEBUG_VALUE: getBobSum:_6 <- 0
	#DEBUG_VALUE: getBobSum:_7 <- 0
	#DEBUG_VALUE: getBobSum:_8 <- 0
	#DEBUG_VALUE: getBobSum:_9 <- 0
	#DEBUG_VALUE: getBobSum:_10 <- 0
	#DEBUG_VALUE: getBobSum:_11 <- 0
	#DEBUG_VALUE: getBobSum:_12 <- 0
	xorl	%ebx, %ebx
.Ltmp19:
	.loc	1 81 6 prologue_end     # CoinGame.c:81:6
	testq	%r8, %r8
	jle	.LBB1_13
.Ltmp20:
# BB#1:                                 # %if.end.preheader
	#DEBUG_VALUE: getBobSum:n <- %R8
	#DEBUG_VALUE: getBobSum:coins_has_ownership [bit_piece offset=0 size=1] <- %CL
	#DEBUG_VALUE: getBobSum:coins_size <- %RDX
	#DEBUG_VALUE: getBobSum:coins <- %RSI
	#DEBUG_VALUE: getBobSum:sum_alice <- %RDI
	xorl	%edx, %edx
.Ltmp21:
	.loc	1 83 6                  # CoinGame.c:83:6
	cmpq	$4, %r8
	movl	$0, %ebx
	jb	.LBB1_11
.Ltmp22:
# BB#2:                                 # %min.iters.checked
	#DEBUG_VALUE: getBobSum:sum_alice <- %RDI
	#DEBUG_VALUE: getBobSum:coins <- %RSI
	#DEBUG_VALUE: getBobSum:coins_has_ownership [bit_piece offset=0 size=1] <- %CL
	#DEBUG_VALUE: getBobSum:n <- %R8
	xorl	%edx, %edx
	movq	%r8, %rax
	andq	$-4, %rax
	movl	$0, %ebx
	je	.LBB1_11
.Ltmp23:
# BB#3:                                 # %vector.body.preheader
	#DEBUG_VALUE: getBobSum:n <- %R8
	#DEBUG_VALUE: getBobSum:coins_has_ownership [bit_piece offset=0 size=1] <- %CL
	#DEBUG_VALUE: getBobSum:coins <- %RSI
	#DEBUG_VALUE: getBobSum:sum_alice <- %RDI
	leaq	-4(%rax), %r9
	movl	%r9d, %edx
	shrl	$2, %edx
	incl	%edx
	xorl	%ebx, %ebx
	andq	$3, %rdx
	je	.LBB1_4
.Ltmp24:
# BB#5:                                 # %vector.body.prol.preheader
	#DEBUG_VALUE: getBobSum:sum_alice <- %RDI
	#DEBUG_VALUE: getBobSum:coins <- %RSI
	#DEBUG_VALUE: getBobSum:coins_has_ownership [bit_piece offset=0 size=1] <- %CL
	#DEBUG_VALUE: getBobSum:n <- %R8
	negq	%rdx
	pxor	%xmm0, %xmm0
	xorl	%ebx, %ebx
	pxor	%xmm1, %xmm1
.Ltmp25:
	.p2align	4, 0x90
.LBB1_6:                                # %vector.body.prol
                                        # =>This Inner Loop Header: Depth=1
	movdqu	(%rsi,%rbx,8), %xmm2
	movdqu	16(%rsi,%rbx,8), %xmm3
	.loc	1 85 9                  # CoinGame.c:85:9
	paddq	%xmm2, %xmm0
	paddq	%xmm3, %xmm1
	.loc	1 83 6                  # CoinGame.c:83:6
	addq	$4, %rbx
	incq	%rdx
	jne	.LBB1_6
	jmp	.LBB1_7
.LBB1_4:
.Ltmp26:
	#DEBUG_VALUE: getBobSum:sum_alice <- %RDI
	#DEBUG_VALUE: getBobSum:coins <- %RSI
	#DEBUG_VALUE: getBobSum:coins_has_ownership [bit_piece offset=0 size=1] <- %CL
	#DEBUG_VALUE: getBobSum:n <- %R8
	pxor	%xmm0, %xmm0
	pxor	%xmm1, %xmm1
.Ltmp27:
.LBB1_7:                                # %vector.body.preheader.split
	cmpq	$12, %r9
	jb	.LBB1_10
# BB#8:                                 # %vector.body.preheader.split.split
	movq	%rax, %rdx
	subq	%rbx, %rdx
	leaq	112(%rsi,%rbx,8), %rbx
	.p2align	4, 0x90
.LBB1_9:                                # %vector.body
                                        # =>This Inner Loop Header: Depth=1
	movdqu	-112(%rbx), %xmm2
	movdqu	-96(%rbx), %xmm3
	movdqu	-80(%rbx), %xmm4
	movdqu	-64(%rbx), %xmm5
	.loc	1 85 9                  # CoinGame.c:85:9
	paddq	%xmm0, %xmm2
	paddq	%xmm1, %xmm3
	paddq	%xmm4, %xmm2
	paddq	%xmm5, %xmm3
	.loc	1 83 6                  # CoinGame.c:83:6
	movdqu	-48(%rbx), %xmm4
	movdqu	-32(%rbx), %xmm5
	.loc	1 85 9                  # CoinGame.c:85:9
	paddq	%xmm2, %xmm4
	paddq	%xmm3, %xmm5
	.loc	1 83 6                  # CoinGame.c:83:6
	movdqu	-16(%rbx), %xmm0
	movdqu	(%rbx), %xmm1
	.loc	1 85 9                  # CoinGame.c:85:9
	paddq	%xmm4, %xmm0
	paddq	%xmm5, %xmm1
	.loc	1 83 6                  # CoinGame.c:83:6
	subq	$-128, %rbx
	addq	$-16, %rdx
	jne	.LBB1_9
.LBB1_10:                               # %middle.block
	.loc	1 85 9                  # CoinGame.c:85:9
	paddq	%xmm0, %xmm1
	pshufd	$78, %xmm1, %xmm0       # xmm0 = xmm1[2,3,0,1]
	paddq	%xmm1, %xmm0
	movd	%xmm0, %rbx
	cmpq	%r8, %rax
	movq	%rax, %rdx
	je	.LBB1_13
.LBB1_11:                               # %if.end.preheader27
	.loc	1 83 6                  # CoinGame.c:83:6
	subq	%rdx, %r8
	leaq	(%rsi,%rdx,8), %rax
	.p2align	4, 0x90
.LBB1_12:                               # %if.end
                                        # =>This Inner Loop Header: Depth=1
	.loc	1 85 9                  # CoinGame.c:85:9
	addq	(%rax), %rbx
.Ltmp28:
	#DEBUG_VALUE: getBobSum:_10 <- 1
	#DEBUG_VALUE: getBobSum:_9 <- %RBX
	#DEBUG_VALUE: getBobSum:sum <- %RBX
	.loc	1 81 6                  # CoinGame.c:81:6
	addq	$8, %rax
	decq	%r8
	jne	.LBB1_12
.Ltmp29:
.LBB1_13:                               # %blklab2
	.loc	1 100 9                 # CoinGame.c:100:9
	subq	%rdi, %rbx
.Ltmp30:
	#DEBUG_VALUE: getBobSum:_12 <- %RBX
	.loc	1 102 2                 # CoinGame.c:102:2
	testb	%cl, %cl
	je	.LBB1_15
.Ltmp31:
# BB#14:                                # %if.then2
	#DEBUG_VALUE: getBobSum:_12 <- %RBX
	.loc	1 102 2 is_stmt 0 discriminator 1 # CoinGame.c:102:2
	movq	%rsi, %rdi
	callq	free
.Ltmp32:
	#DEBUG_VALUE: getBobSum:coins_has_ownership <- 0
.LBB1_15:                               # %if.end3
	#DEBUG_VALUE: getBobSum:_12 <- %RBX
	.loc	1 103 2 is_stmt 1       # CoinGame.c:103:2
	movq	%rbx, %rax
	popq	%rbx
.Ltmp33:
	retq
.Ltmp34:
.Lfunc_end1:
	.size	getBobSum, .Lfunc_end1-getBobSum
	.cfi_endproc

	.globl	findMoves
	.p2align	4, 0x90
	.type	findMoves,@function
findMoves:                              # @findMoves
.Lfunc_begin2:
	.loc	1 107 0                 # CoinGame.c:107:0
	.cfi_startproc
# BB#0:                                 # %entry
	pushq	%rbp
.Ltmp35:
	.cfi_def_cfa_offset 16
	pushq	%r15
.Ltmp36:
	.cfi_def_cfa_offset 24
	pushq	%r14
.Ltmp37:
	.cfi_def_cfa_offset 32
	pushq	%r13
.Ltmp38:
	.cfi_def_cfa_offset 40
	pushq	%r12
.Ltmp39:
	.cfi_def_cfa_offset 48
	pushq	%rbx
.Ltmp40:
	.cfi_def_cfa_offset 56
	subq	$88, %rsp
.Ltmp41:
	.cfi_def_cfa_offset 144
.Ltmp42:
	.cfi_offset %rbx, -56
.Ltmp43:
	.cfi_offset %r12, -48
.Ltmp44:
	.cfi_offset %r13, -40
.Ltmp45:
	.cfi_offset %r14, -32
.Ltmp46:
	.cfi_offset %r15, -24
.Ltmp47:
	.cfi_offset %rbp, -16
	#DEBUG_VALUE: findMoves:coins <- %RDI
	#DEBUG_VALUE: findMoves:coins_size <- %RSI
	#DEBUG_VALUE: findMoves:coins_has_ownership [bit_piece offset=0 size=1] <- %EDX
	#DEBUG_VALUE: findMoves:n <- %RCX
	movq	%rcx, %r15
.Ltmp48:
	#DEBUG_VALUE: findMoves:n <- %R15
	movl	%edx, 20(%rsp)          # 4-byte Spill
.Ltmp49:
	#DEBUG_VALUE: findMoves:coins_has_ownership [bit_piece offset=0 size=1] <-  [complex expression]
	movq	%rdi, %r12
.Ltmp50:
	#DEBUG_VALUE: findMoves:_62 <- 0
	#DEBUG_VALUE: findMoves:_61 <- 0
	#DEBUG_VALUE: findMoves:_60 <- 0
	#DEBUG_VALUE: findMoves:_59 <- 0
	#DEBUG_VALUE: findMoves:_58 <- 0
	#DEBUG_VALUE: findMoves:_57 <- 0
	#DEBUG_VALUE: findMoves:_56 <- 0
	#DEBUG_VALUE: findMoves:_55 <- 0
	#DEBUG_VALUE: findMoves:_54 <- 0
	#DEBUG_VALUE: findMoves:_53 <- 0
	#DEBUG_VALUE: findMoves:_52 <- 0
	#DEBUG_VALUE: findMoves:_51 <- 0
	#DEBUG_VALUE: findMoves:_50 <- 0
	#DEBUG_VALUE: findMoves:_49 <- 0
	#DEBUG_VALUE: findMoves:_48 <- 0
	#DEBUG_VALUE: findMoves:_47 <- 0
	#DEBUG_VALUE: findMoves:_46 <- 0
	#DEBUG_VALUE: findMoves:_45 <- 0
	#DEBUG_VALUE: findMoves:_44 <- 0
	#DEBUG_VALUE: findMoves:_43 <- 0
	#DEBUG_VALUE: findMoves:_42 <- 0
	#DEBUG_VALUE: findMoves:_41 <- 0
	#DEBUG_VALUE: findMoves:_40 <- 0
	#DEBUG_VALUE: findMoves:_39 <- 0
	#DEBUG_VALUE: findMoves:_38 <- 0
	#DEBUG_VALUE: findMoves:_37 <- 0
	#DEBUG_VALUE: findMoves:_36 <- 0
	#DEBUG_VALUE: findMoves:_35 <- 0
	#DEBUG_VALUE: findMoves:_34 <- 0
	#DEBUG_VALUE: findMoves:_33 <- 0
	#DEBUG_VALUE: findMoves:_32 <- 0
	#DEBUG_VALUE: findMoves:_31 <- 0
	#DEBUG_VALUE: findMoves:_30 <- 0
	#DEBUG_VALUE: findMoves:_29 <- 0
	#DEBUG_VALUE: findMoves:_28 <- 0
	#DEBUG_VALUE: findMoves:_27 <- 0
	#DEBUG_VALUE: findMoves:_26 <- 0
	#DEBUG_VALUE: findMoves:_25 <- 0
	#DEBUG_VALUE: findMoves:_24 <- 0
	#DEBUG_VALUE: findMoves:_23 <- 0
	#DEBUG_VALUE: findMoves:_22 <- 0
	#DEBUG_VALUE: findMoves:_21 <- 0
	#DEBUG_VALUE: findMoves:_20 <- 0
	#DEBUG_VALUE: findMoves:_19 <- 0
	#DEBUG_VALUE: findMoves:_18 <- 0
	#DEBUG_VALUE: findMoves:_17 <- 0
	#DEBUG_VALUE: findMoves:_16 <- 0
	#DEBUG_VALUE: findMoves:_15 <- 0
	#DEBUG_VALUE: findMoves:_14 <- 0
	#DEBUG_VALUE: findMoves:_13 <- 0
	#DEBUG_VALUE: findMoves:_12_has_ownership <- 0
	#DEBUG_VALUE: findMoves:_12_size <- 0
	#DEBUG_VALUE: findMoves:_11 <- 0
	#DEBUG_VALUE: findMoves:_10 <- 0
	#DEBUG_VALUE: findMoves:z <- 0
	#DEBUG_VALUE: findMoves:x <- 0
	#DEBUG_VALUE: findMoves:y <- 0
	#DEBUG_VALUE: findMoves:i <- 0
	#DEBUG_VALUE: findMoves:j <- 0
	#DEBUG_VALUE: findMoves:s <- 0
	#DEBUG_VALUE: findMoves:moves_has_ownership <- 0
	#DEBUG_VALUE: findMoves:moves_size <- 0
	#DEBUG_VALUE: findMoves:_2_has_ownership <- 0
	#DEBUG_VALUE: findMoves:_2_size <- 0
	#DEBUG_VALUE: findMoves:coins <- %R12
	.loc	1 175 7 prologue_end    # CoinGame.c:175:7
	movq	%r15, %rbx
	imulq	%rbx, %rbx
.Ltmp51:
	#DEBUG_VALUE: findMoves:_12_size <- %RBX
	#DEBUG_VALUE: findMoves:_11 <- %RBX
	#DEBUG_VALUE: findMoves:moves_size <- %RBX
	.loc	1 178 2                 # CoinGame.c:178:2
	xorl	%edi, %edi
	movl	%ebx, %esi
.Ltmp52:
	callq	gen1DArray
.Ltmp53:
	movq	%rax, 8(%rsp)           # 8-byte Spill
.Ltmp54:
	#DEBUG_VALUE: findMoves:moves <- [%RSP+8]
	#DEBUG_VALUE: findMoves:_12 <- [%RSP+8]
	#DEBUG_VALUE: findMoves:moves_has_ownership <- 1
	.loc	1 192 6                 # CoinGame.c:192:6
	testq	%r15, %r15
	jle	.LBB2_15
.Ltmp55:
# BB#1:                                 # %polly.split_new_and_old
	#DEBUG_VALUE: findMoves:_12 <- [%RSP+8]
	#DEBUG_VALUE: findMoves:moves <- [%RSP+8]
	#DEBUG_VALUE: findMoves:moves_size <- %RBX
	#DEBUG_VALUE: findMoves:_11 <- %RBX
	#DEBUG_VALUE: findMoves:_12_size <- %RBX
	#DEBUG_VALUE: findMoves:coins <- %R12
	#DEBUG_VALUE: findMoves:n <- %R15
	leaq	(%r12,%r15,8), %rcx
	leaq	-1(%r15), %rax
	xorl	%edx, %edx
	cmpq	$1, %r15
	cmovleq	%rax, %rdx
	movq	%rdx, %rsi
	imulq	%r15, %rsi
	addq	%rdx, %rsi
	movq	8(%rsp), %rdi           # 8-byte Reload
	leaq	(%rdi,%rsi,8), %rdx
	cmpq	%rdx, %rcx
	setbe	%cl
	leaq	(%rdi,%rbx,8), %rdx
	cmpq	%r12, %rdx
	setbe	%dl
	movabsq	$1152921504606846976, %rsi # imm = 0x1000000000000000
	cmpq	%rsi, %r15
	jg	.LBB2_3
.Ltmp56:
# BB#2:                                 # %polly.split_new_and_old
	#DEBUG_VALUE: findMoves:n <- %R15
	#DEBUG_VALUE: findMoves:coins <- %R12
	#DEBUG_VALUE: findMoves:_12_size <- %RBX
	#DEBUG_VALUE: findMoves:_11 <- %RBX
	#DEBUG_VALUE: findMoves:moves_size <- %RBX
	#DEBUG_VALUE: findMoves:moves <- [%RSP+8]
	#DEBUG_VALUE: findMoves:_12 <- [%RSP+8]
	orb	%dl, %cl
	je	.LBB2_3
.Ltmp57:
# BB#18:                                # %polly.loop_preheader
	#DEBUG_VALUE: findMoves:_12 <- [%RSP+8]
	#DEBUG_VALUE: findMoves:moves <- [%RSP+8]
	#DEBUG_VALUE: findMoves:moves_size <- %RBX
	#DEBUG_VALUE: findMoves:_11 <- %RBX
	#DEBUG_VALUE: findMoves:_12_size <- %RBX
	#DEBUG_VALUE: findMoves:coins <- %R12
	#DEBUG_VALUE: findMoves:n <- %R15
	movq	8(%rsp), %rcx           # 8-byte Reload
	leaq	(%rcx,%rax,8), %rax
	movq	%rax, 80(%rsp)          # 8-byte Spill
	leaq	8(,%r15,8), %r13
	movq	%r15, %rax
	shlq	$4, %rax
	addq	%rcx, %rax
	movq	%rax, 72(%rsp)          # 8-byte Spill
	leaq	-16(%rcx), %rax
	movq	%rax, 64(%rsp)          # 8-byte Spill
	xorl	%r10d, %r10d
.Ltmp58:
	.p2align	4, 0x90
.LBB2_19:                               # %polly.loop_header
                                        # =>This Loop Header: Depth=1
                                        #     Child Loop BB2_21 Depth 2
                                        #     Child Loop BB2_28 Depth 2
	movq	%r15, %r11
	subq	%r10, %r11
	jle	.LBB2_20
# BB#27:                                # %polly.loop_preheader210
                                        #   in Loop: Header=BB2_19 Depth=1
	movq	80(%rsp), %rax          # 8-byte Reload
	leaq	(%rax,%r10,8), %rax
	movq	%rax, 56(%rsp)          # 8-byte Spill
	movq	72(%rsp), %rax          # 8-byte Reload
	leaq	(%rax,%r10,8), %rax
	movq	%rax, 32(%rsp)          # 8-byte Spill
	movq	64(%rsp), %rax          # 8-byte Reload
	leaq	(%rax,%r10,8), %rax
	movq	%rax, 24(%rsp)          # 8-byte Spill
	leaq	(%r12,%r10,8), %rax
	movq	%rax, 48(%rsp)          # 8-byte Spill
	movq	8(%rsp), %rax           # 8-byte Reload
	leaq	(%rax,%r10,8), %rax
	movq	%rax, 40(%rsp)          # 8-byte Spill
	leaq	(%r10,%r15), %r14
	decq	%r11
	cmpq	$3, %r15
	movl	$0, %r8d
	movl	$0, %r9d
	jl	.LBB2_21
	.p2align	4, 0x90
.LBB2_28:                               # %polly.loop_header209.us
                                        #   Parent Loop BB2_19 Depth=1
                                        # =>  This Inner Loop Header: Depth=2
	leaq	2(%r9), %rax
	leaq	(%r9,%r10), %rsi
	cmpq	%r15, %rax
	jg	.LBB2_30
# BB#29:                                # %polly.loop_header209.us
                                        #   in Loop: Header=BB2_28 Depth=2
	testq	%rsi, %rsi
	jle	.LBB2_30
# BB#33:                                # %polly.cond220.thread.us
                                        #   in Loop: Header=BB2_28 Depth=2
	movq	%r9, %rax
	imulq	%r13, %rax
	movq	56(%rsp), %rcx          # 8-byte Reload
	movq	(%rcx,%rax), %rax
	testq	%r9, %r9
	sete	%r8b
	leaq	1(%r9), %rbp
	jmp	.LBB2_34
	.p2align	4, 0x90
.LBB2_30:                               # %polly.cond220.us
                                        #   in Loop: Header=BB2_28 Depth=2
	testq	%r9, %r9
	sete	%r8b
	leaq	1(%r9), %rbp
	cmpq	%r15, %rbp
	je	.LBB2_31
# BB#32:                                # %polly.cond220.us
                                        #   in Loop: Header=BB2_28 Depth=2
	testq	%r9, %r9
	movl	$0, %eax
	jne	.LBB2_42
	jmp	.LBB2_34
.LBB2_31:                               #   in Loop: Header=BB2_28 Depth=2
	xorl	%eax, %eax
	.p2align	4, 0x90
.LBB2_34:                               # %polly.cond224.us
                                        #   in Loop: Header=BB2_28 Depth=2
	testq	%rsi, %rsi
	setg	%cl
	leaq	3(%r9), %rdx
	cmpq	%r15, %rdx
	setle	%dl
	testb	%cl, %dl
	jne	.LBB2_36
# BB#35:                                # %polly.cond224.us
                                        #   in Loop: Header=BB2_28 Depth=2
	movq	%r9, %rcx
	orq	%r10, %rcx
	movl	$0, %ecx
	jne	.LBB2_37
.LBB2_36:                               # %polly.stmt.if.end30.us
                                        #   in Loop: Header=BB2_28 Depth=2
	movq	%r9, %rcx
	imulq	%r13, %rcx
	movq	32(%rsp), %rdx          # 8-byte Reload
	movq	(%rdx,%rcx), %rcx
.LBB2_37:                               # %polly.cond234.us
                                        #   in Loop: Header=BB2_28 Depth=2
	cmpq	$2, %rsi
	movl	$0, %edi
	jl	.LBB2_39
# BB#38:                                # %polly.stmt.if.end39.us
                                        #   in Loop: Header=BB2_28 Depth=2
	movq	%r9, %rdx
	imulq	%r13, %rdx
	movq	24(%rsp), %rdi          # 8-byte Reload
	movq	(%rdi,%rdx), %rdi
.LBB2_39:                               # %polly.cond244.us
                                        #   in Loop: Header=BB2_28 Depth=2
	testq	%rsi, %rsi
	setg	%dl
	cmpq	$2, %r14
	setg	%bl
	cmpq	$2, %r15
	je	.LBB2_41
# BB#40:                                # %polly.cond244.us
                                        #   in Loop: Header=BB2_28 Depth=2
	andb	%dl, %bl
	orb	%r8b, %bl
	je	.LBB2_42
.LBB2_41:                               # %polly.stmt.blklab10.us
                                        #   in Loop: Header=BB2_28 Depth=2
.Ltmp59:
	.loc	1 290 8                 # CoinGame.c:290:8
	cmpq	%rax, %rcx
.Ltmp60:
	.loc	1 290 7 is_stmt 0       # CoinGame.c:290:7
	cmovgq	%rax, %rcx
.Ltmp61:
	.loc	1 296 8 is_stmt 1       # CoinGame.c:296:8
	cmpq	%rax, %rdi
.Ltmp62:
	.loc	1 296 7 is_stmt 0       # CoinGame.c:296:7
	cmovgq	%rax, %rdi
	.loc	1 304 11 is_stmt 1      # CoinGame.c:304:11
	addq	(%r12,%r9,8), %rcx
	.loc	1 308 11                # CoinGame.c:308:11
	movq	48(%rsp), %rax          # 8-byte Reload
	addq	(%rax,%r9,8), %rdi
.Ltmp63:
	.loc	1 310 10                # CoinGame.c:310:10
	cmpq	%rdi, %rcx
.Ltmp64:
	.loc	1 322 4                 # CoinGame.c:322:4
	cmovgeq	%rcx, %rdi
	movq	%r9, %rax
	imulq	%r13, %rax
	movq	40(%rsp), %rcx          # 8-byte Reload
	movq	%rdi, (%rcx,%rax)
.LBB2_42:                               # %polly.merge221.us
                                        #   in Loop: Header=BB2_28 Depth=2
	cmpq	%r11, %r9
	movq	%rbp, %r9
	jl	.LBB2_28
	jmp	.LBB2_20
	.p2align	4, 0x90
.LBB2_21:                               # %polly.loop_header209
                                        #   Parent Loop BB2_19 Depth=1
                                        # =>  This Inner Loop Header: Depth=2
	leaq	2(%r8), %rax
	leaq	(%r8,%r10), %rsi
	cmpq	%r15, %rax
	jg	.LBB2_23
# BB#22:                                # %polly.loop_header209
                                        #   in Loop: Header=BB2_21 Depth=2
	testq	%rsi, %rsi
	jle	.LBB2_23
# BB#43:                                # %polly.cond220.thread
                                        #   in Loop: Header=BB2_21 Depth=2
	movq	%r8, %rax
	imulq	%r13, %rax
	movq	56(%rsp), %rcx          # 8-byte Reload
	movq	(%rcx,%rax), %rax
	testq	%r8, %r8
	sete	%r9b
	leaq	1(%r8), %rbp
	jmp	.LBB2_44
	.p2align	4, 0x90
.LBB2_23:                               # %polly.cond220
                                        #   in Loop: Header=BB2_21 Depth=2
	testq	%r8, %r8
	sete	%r9b
	leaq	1(%r8), %rbp
	cmpq	%r15, %rbp
	je	.LBB2_24
# BB#25:                                # %polly.cond220
                                        #   in Loop: Header=BB2_21 Depth=2
	testq	%r8, %r8
	movl	$0, %eax
	jne	.LBB2_26
	jmp	.LBB2_44
.LBB2_24:                               #   in Loop: Header=BB2_21 Depth=2
	xorl	%eax, %eax
	.p2align	4, 0x90
.LBB2_44:                               # %polly.cond224
                                        #   in Loop: Header=BB2_21 Depth=2
	leaq	3(%r8), %rcx
	cmpq	%r15, %rcx
	jg	.LBB2_45
# BB#46:                                # %polly.cond224
                                        #   in Loop: Header=BB2_21 Depth=2
	testq	%rsi, %rsi
	movl	$0, %ecx
	jle	.LBB2_47
# BB#51:                                # %polly.stmt.if.end30
                                        #   in Loop: Header=BB2_21 Depth=2
	movq	%r8, %rcx
	imulq	%r13, %rcx
	movq	32(%rsp), %rdx          # 8-byte Reload
	movq	(%rdx,%rcx), %rcx
	jmp	.LBB2_47
.LBB2_45:                               #   in Loop: Header=BB2_21 Depth=2
	xorl	%ecx, %ecx
.LBB2_47:                               # %polly.cond234
                                        #   in Loop: Header=BB2_21 Depth=2
	cmpq	$1, %rsi
	movl	$0, %edi
	jle	.LBB2_48
# BB#52:                                # %polly.stmt.if.end39
                                        #   in Loop: Header=BB2_21 Depth=2
	movq	%r8, %rdx
	imulq	%r13, %rdx
	movq	24(%rsp), %rdi          # 8-byte Reload
	movq	(%rdi,%rdx), %rdi
.LBB2_48:                               # %polly.cond244
                                        #   in Loop: Header=BB2_21 Depth=2
	cmpq	$2, %r14
	setg	%bl
	testq	%rsi, %rsi
	setg	%dl
	cmpq	$2, %r15
	je	.LBB2_50
# BB#49:                                # %polly.cond244
                                        #   in Loop: Header=BB2_21 Depth=2
	andb	%dl, %bl
	orb	%r9b, %bl
	je	.LBB2_26
.LBB2_50:                               # %polly.stmt.blklab10
                                        #   in Loop: Header=BB2_21 Depth=2
.Ltmp65:
	.loc	1 290 8                 # CoinGame.c:290:8
	cmpq	%rax, %rcx
.Ltmp66:
	.loc	1 290 7 is_stmt 0       # CoinGame.c:290:7
	cmovgq	%rax, %rcx
.Ltmp67:
	.loc	1 296 8 is_stmt 1       # CoinGame.c:296:8
	cmpq	%rax, %rdi
.Ltmp68:
	.loc	1 296 7 is_stmt 0       # CoinGame.c:296:7
	cmovgq	%rax, %rdi
	.loc	1 304 11 is_stmt 1      # CoinGame.c:304:11
	addq	(%r12,%r8,8), %rcx
	.loc	1 308 11                # CoinGame.c:308:11
	movq	48(%rsp), %rax          # 8-byte Reload
	addq	(%rax,%r8,8), %rdi
.Ltmp69:
	.loc	1 310 10                # CoinGame.c:310:10
	cmpq	%rdi, %rcx
.Ltmp70:
	.loc	1 322 4                 # CoinGame.c:322:4
	cmovgeq	%rcx, %rdi
	movq	%r8, %rax
	imulq	%r13, %rax
	movq	40(%rsp), %rcx          # 8-byte Reload
	movq	%rdi, (%rcx,%rax)
.LBB2_26:                               # %polly.merge221
                                        #   in Loop: Header=BB2_21 Depth=2
	cmpq	%r11, %r8
	movq	%rbp, %r8
	jl	.LBB2_21
.LBB2_20:                               # %polly.loop_exit211
                                        #   in Loop: Header=BB2_19 Depth=1
	incq	%r10
	cmpq	%r15, %r10
	jne	.LBB2_19
	jmp	.LBB2_15
.LBB2_3:                                # %while.cond8.preheader.preheader
.Ltmp71:
	#DEBUG_VALUE: findMoves:n <- %R15
	#DEBUG_VALUE: findMoves:coins <- %R12
	#DEBUG_VALUE: findMoves:_12_size <- %RBX
	#DEBUG_VALUE: findMoves:_11 <- %RBX
	#DEBUG_VALUE: findMoves:moves_size <- %RBX
	#DEBUG_VALUE: findMoves:moves <- [%RSP+8]
	#DEBUG_VALUE: findMoves:_12 <- [%RSP+8]
	.loc	1 202 7                 # CoinGame.c:202:7
	leaq	8(,%r15,8), %r11
	movq	%r15, %r9
	shlq	$4, %r9
	movq	%r15, %r8
	negq	%r8
	leaq	-8(,%r15,8), %r10
	xorl	%edi, %edi
.Ltmp72:
	.p2align	4, 0x90
.LBB2_4:                                # %while.cond8.preheader
                                        # =>This Loop Header: Depth=1
                                        #     Child Loop BB2_5 Depth 2
	leaq	(%r8,%rdi), %r14
	xorl	%ecx, %ecx
	movq	8(%rsp), %rsi           # 8-byte Reload
	movl	$2, %ebx
.Ltmp73:
	.p2align	4, 0x90
.LBB2_5:                                # %if.end13
                                        #   Parent Loop BB2_4 Depth=1
                                        # =>  This Inner Loop Header: Depth=2
	.loc	1 124 12                # CoinGame.c:124:12
	leaq	-2(%rdi,%rbx), %rbp
.Ltmp74:
	#DEBUG_VALUE: findMoves:_16 <- 1
	#DEBUG_VALUE: findMoves:_15 <- 0
	#DEBUG_VALUE: findMoves:y <- 0
	.loc	1 220 10                # CoinGame.c:220:10
	testq	%rbp, %rbp
	#DEBUG_VALUE: findMoves:_20 <- 0
.Ltmp75:
	#DEBUG_VALUE: findMoves:_18 <- 1
	jle	.LBB2_6
.Ltmp76:
# BB#7:                                 # %if.end13
                                        #   in Loop: Header=BB2_5 Depth=2
	.loc	1 212 10                # CoinGame.c:212:10
	leaq	-1(%rbx), %rax
	cmpq	%r15, %rax
	movl	$0, %eax
	jge	.LBB2_9
.Ltmp77:
# BB#8:                                 # %if.end21
                                        #   in Loop: Header=BB2_5 Depth=2
	#DEBUG_VALUE: findMoves:_21 <- 1
	#DEBUG_VALUE: findMoves:_25 <- 1
	.loc	1 234 8                 # CoinGame.c:234:8
	leaq	(%rsi,%r10), %rax
	movq	(%rax,%rdi,8), %rax
.Ltmp78:
	#DEBUG_VALUE: findMoves:_27 <- %RAX
	#DEBUG_VALUE: findMoves:y <- %RAX
	jmp	.LBB2_9
.Ltmp79:
	.p2align	4, 0x90
.LBB2_6:                                #   in Loop: Header=BB2_5 Depth=2
	xorl	%eax, %eax
.LBB2_9:                                # %blklab8
                                        #   in Loop: Header=BB2_5 Depth=2
	#DEBUG_VALUE: findMoves:x <- 0
	#DEBUG_VALUE: findMoves:_28 <- 0
.Ltmp80:
	#DEBUG_VALUE: findMoves:_29 <- 2
	.loc	1 248 7                 # CoinGame.c:248:7
	cmpq	%r15, %rbx
	movl	$0, %edx
	jge	.LBB2_11
# BB#10:                                # %if.end30
                                        #   in Loop: Header=BB2_5 Depth=2
.Ltmp81:
	#DEBUG_VALUE: findMoves:_31 <- 2
	.loc	1 258 8                 # CoinGame.c:258:8
	leaq	(%rsi,%r9), %rdx
	movq	(%rdx,%rdi,8), %rdx
.Ltmp82:
	#DEBUG_VALUE: findMoves:_35 <- %RDX
	#DEBUG_VALUE: findMoves:x <- %RDX
.LBB2_11:                               # %blklab9
                                        #   in Loop: Header=BB2_5 Depth=2
	#DEBUG_VALUE: findMoves:z <- 0
	#DEBUG_VALUE: findMoves:_36 <- 0
	#DEBUG_VALUE: findMoves:_37 <- 1
	#DEBUG_VALUE: findMoves:_39 <- 0
	.loc	1 274 10                # CoinGame.c:274:10
	cmpq	$2, %rbp
	movl	$0, %ebp
	jl	.LBB2_13
.Ltmp83:
# BB#12:                                # %if.end39
                                        #   in Loop: Header=BB2_5 Depth=2
	#DEBUG_VALUE: findMoves:_42 <- 2
	.loc	1 284 8                 # CoinGame.c:284:8
	movq	-16(%rsi,%rdi,8), %rbp
.Ltmp84:
	#DEBUG_VALUE: findMoves:_44 <- %RBP
	#DEBUG_VALUE: findMoves:z <- %RBP
.LBB2_13:                               # %blklab10
                                        #   in Loop: Header=BB2_5 Depth=2
	#DEBUG_VALUE: findMoves:x <- %RAX
	.loc	1 290 8                 # CoinGame.c:290:8
	cmpq	%rax, %rdx
.Ltmp85:
	.loc	1 290 7 is_stmt 0       # CoinGame.c:290:7
	cmovgq	%rax, %rdx
.Ltmp86:
	.loc	1 296 8 is_stmt 1       # CoinGame.c:296:8
	cmpq	%rax, %rbp
.Ltmp87:
	.loc	1 296 7 is_stmt 0       # CoinGame.c:296:7
	cmovgq	%rax, %rbp
	.loc	1 304 11 is_stmt 1      # CoinGame.c:304:11
	addq	-16(%r12,%rbx,8), %rdx
.Ltmp88:
	#DEBUG_VALUE: findMoves:_46 <- %RDX
	.loc	1 306 8                 # CoinGame.c:306:8
	leaq	(%r12,%rcx), %rax
.Ltmp89:
	.loc	1 308 11                # CoinGame.c:308:11
	addq	(%rax,%rdi,8), %rbp
.Ltmp90:
	#DEBUG_VALUE: findMoves:_48 <- %RBP
	.loc	1 310 10                # CoinGame.c:310:10
	cmpq	%rbp, %rdx
.Ltmp91:
	.loc	1 322 4                 # CoinGame.c:322:4
	cmovgeq	%rdx, %rbp
.Ltmp92:
	.loc	1 320 15                # CoinGame.c:320:15
	movq	%rbp, (%rsi,%rdi,8)
	.loc	1 202 7                 # CoinGame.c:202:7
	addq	%r11, %rsi
	leaq	1(%r14,%rbx), %rax
.Ltmp93:
	#DEBUG_VALUE: findMoves:_59 <- 1
	#DEBUG_VALUE: findMoves:_57 <- 1
	incq	%rbx
	addq	$8, %rcx
	cmpq	$2, %rax
	jne	.LBB2_5
.Ltmp94:
# BB#14:                                # %blklab6
                                        #   in Loop: Header=BB2_4 Depth=1
	#DEBUG_VALUE: findMoves:_46 <- %RDX
	#DEBUG_VALUE: findMoves:_61 <- 1
	.loc	1 357 8                 # CoinGame.c:357:8
	incq	%rdi
.Ltmp95:
	#DEBUG_VALUE: findMoves:_62 <- %RDI
	#DEBUG_VALUE: findMoves:s <- %RDI
	.loc	1 192 6                 # CoinGame.c:192:6
	cmpq	%r15, %rdi
	jne	.LBB2_4
.Ltmp96:
.LBB2_15:                               # %blklab4
	.loc	1 366 2                 # CoinGame.c:366:2
	movl	20(%rsp), %eax          # 4-byte Reload
	testb	%al, %al
	je	.LBB2_17
# BB#16:                                # %if.then74
.Ltmp97:
	.loc	1 366 2 is_stmt 0 discriminator 1 # CoinGame.c:366:2
	movq	%r12, %rdi
	callq	free
.Ltmp98:
	#DEBUG_VALUE: findMoves:coins_has_ownership <- 0
.LBB2_17:                               # %if.end81
	.loc	1 369 2 is_stmt 1       # CoinGame.c:369:2
	movq	8(%rsp), %rax           # 8-byte Reload
	addq	$88, %rsp
	popq	%rbx
	popq	%r12
	popq	%r13
	popq	%r14
	popq	%r15
	popq	%rbp
	retq
.Ltmp99:
.Lfunc_end2:
	.size	findMoves, .Lfunc_end2-findMoves
	.cfi_endproc

	.section	.rodata.cst16,"aM",@progbits,16
	.p2align	4
.LCPI3_0:
	.quad	2                       # 0x2
	.quad	3                       # 0x3
.LCPI3_1:
	.quad	84                      # 0x54
	.quad	104                     # 0x68
.LCPI3_2:
	.quad	101                     # 0x65
	.quad	32                      # 0x20
.LCPI3_3:
	.quad	116                     # 0x74
	.quad	111                     # 0x6f
.LCPI3_4:
	.quad	116                     # 0x74
	.quad	97                      # 0x61
.LCPI3_5:
	.quad	108                     # 0x6c
	.quad	32                      # 0x20
.LCPI3_6:
	.quad	97                      # 0x61
	.quad	109                     # 0x6d
.LCPI3_7:
	.quad	111                     # 0x6f
	.quad	117                     # 0x75
.LCPI3_8:
	.quad	110                     # 0x6e
	.quad	116                     # 0x74
.LCPI3_9:
	.quad	32                      # 0x20
	.quad	111                     # 0x6f
.LCPI3_10:
	.quad	102                     # 0x66
	.quad	32                      # 0x20
.LCPI3_11:
	.quad	109                     # 0x6d
	.quad	111                     # 0x6f
.LCPI3_12:
	.quad	110                     # 0x6e
	.quad	101                     # 0x65
.LCPI3_13:
	.quad	121                     # 0x79
	.quad	32                      # 0x20
.LCPI3_14:
	.quad	40                      # 0x28
	.quad	109                     # 0x6d
.LCPI3_15:
	.quad	97                      # 0x61
	.quad	120                     # 0x78
.LCPI3_16:
	.quad	105                     # 0x69
	.quad	109                     # 0x6d
.LCPI3_17:
	.quad	117                     # 0x75
	.quad	109                     # 0x6d
.LCPI3_18:
	.quad	41                      # 0x29
	.quad	32                      # 0x20
.LCPI3_19:
	.quad	65                      # 0x41
	.quad	108                     # 0x6c
.LCPI3_20:
	.quad	105                     # 0x69
	.quad	99                      # 0x63
.LCPI3_21:
	.quad	103                     # 0x67
	.quad	101                     # 0x65
.LCPI3_22:
	.quad	116                     # 0x74
	.quad	115                     # 0x73
.LCPI3_23:
	.quad	32                      # 0x20
	.quad	105                     # 0x69
.LCPI3_24:
	.quad	115                     # 0x73
	.quad	32                      # 0x20
.LCPI3_25:
	.quad	66                      # 0x42
	.quad	111                     # 0x6f
.LCPI3_26:
	.quad	98                      # 0x62
	.quad	32                      # 0x20
	.text
	.globl	main
	.p2align	4, 0x90
	.type	main,@function
main:                                   # @main
.Lfunc_begin3:
	.loc	1 373 0                 # CoinGame.c:373:0
	.cfi_startproc
# BB#0:                                 # %entry
	pushq	%rbp
.Ltmp100:
	.cfi_def_cfa_offset 16
	pushq	%r15
.Ltmp101:
	.cfi_def_cfa_offset 24
	pushq	%r14
.Ltmp102:
	.cfi_def_cfa_offset 32
	pushq	%r13
.Ltmp103:
	.cfi_def_cfa_offset 40
	pushq	%r12
.Ltmp104:
	.cfi_def_cfa_offset 48
	pushq	%rbx
.Ltmp105:
	.cfi_def_cfa_offset 56
	pushq	%rax
.Ltmp106:
	.cfi_def_cfa_offset 64
.Ltmp107:
	.cfi_offset %rbx, -56
.Ltmp108:
	.cfi_offset %r12, -48
.Ltmp109:
	.cfi_offset %r13, -40
.Ltmp110:
	.cfi_offset %r14, -32
.Ltmp111:
	.cfi_offset %r15, -24
.Ltmp112:
	.cfi_offset %rbp, -16
	#DEBUG_VALUE: main:argc <- %EDI
	#DEBUG_VALUE: main:args <- %RSI
	movl	%edi, %ebx
.Ltmp113:
	#DEBUG_VALUE: main:_24_has_ownership <- 0
	#DEBUG_VALUE: main:_24_size <- 0
	#DEBUG_VALUE: main:_19_has_ownership <- 0
	#DEBUG_VALUE: main:_19_size <- 0
	#DEBUG_VALUE: main:_16 <- 0
	#DEBUG_VALUE: main:_15 <- 0
	#DEBUG_VALUE: main:_14 <- 0
	#DEBUG_VALUE: main:_13 <- 0
	#DEBUG_VALUE: main:_12_has_ownership <- 0
	#DEBUG_VALUE: main:_12_size <- 0
	#DEBUG_VALUE: main:_11_has_ownership <- 0
	#DEBUG_VALUE: main:_11_size <- 0
	#DEBUG_VALUE: main:_10_has_ownership <- 0
	#DEBUG_VALUE: main:_10_size <- 0
	#DEBUG_VALUE: main:_9 <- 0
	#DEBUG_VALUE: main:_8_has_ownership <- 0
	#DEBUG_VALUE: main:_8_size_size <- 0
	#DEBUG_VALUE: main:_8_size <- 0
	#DEBUG_VALUE: main:sum_bob <- 0
	#DEBUG_VALUE: main:sum_alice <- 0
	#DEBUG_VALUE: main:moves_has_ownership <- 0
	#DEBUG_VALUE: main:moves_size <- 0
	#DEBUG_VALUE: main:coins_has_ownership <- 0
	#DEBUG_VALUE: main:coins_size <- 0
	#DEBUG_VALUE: main:n <- 0
	#DEBUG_VALUE: main:argc <- %EBX
	.loc	1 405 2 prologue_end    # CoinGame.c:405:2
	callq	convertArgsToIntArray
.Ltmp114:
	movq	%rax, %r15
.Ltmp115:
	#DEBUG_VALUE: main:_8 <- %R15
	decl	%ebx
.Ltmp116:
	movslq	%ebx, %rbp
.Ltmp117:
	#DEBUG_VALUE: main:_8_has_ownership <- 1
	#DEBUG_VALUE: main:_8_size <- %EBX
	.loc	1 410 6                 # CoinGame.c:410:6
	movq	(%r15), %rdi
.Ltmp118:
	#DEBUG_VALUE: main:_10 <- %RDI
	.loc	1 412 2                 # CoinGame.c:412:2
	callq	parseStringToInt
.Ltmp119:
	#DEBUG_VALUE: main:max <- %RAX
	#DEBUG_VALUE: main:_7 <- %RAX
	.loc	1 416 9                 # CoinGame.c:416:9
	testq	%rax, %rax
.Ltmp120:
	.loc	1 416 5 is_stmt 0       # CoinGame.c:416:5
	je	.LBB3_26
.Ltmp121:
# BB#1:                                 # %if.end
	#DEBUG_VALUE: main:_7 <- %RAX
	#DEBUG_VALUE: main:max <- %RAX
	#DEBUG_VALUE: main:_8_size <- %EBX
	#DEBUG_VALUE: main:_8 <- %R15
	.loc	1 418 6 is_stmt 1       # CoinGame.c:418:6
	movq	(%rax), %rbx
.Ltmp122:
	#DEBUG_VALUE: init:_10 <- 0
	#DEBUG_VALUE: init:_9 <- 0
	#DEBUG_VALUE: init:_8 <- 0
	#DEBUG_VALUE: init:_7 <- 0
	#DEBUG_VALUE: init:_6 <- 0
	#DEBUG_VALUE: init:_5_has_ownership <- 0
	#DEBUG_VALUE: init:_5_size <- %RBX
	#DEBUG_VALUE: init:_4 <- 0
	#DEBUG_VALUE: init:i <- 0
	#DEBUG_VALUE: init:coins_has_ownership <- 0
	#DEBUG_VALUE: init:_1_has_ownership <- 0
	#DEBUG_VALUE: init:_1_size <- 0
	#DEBUG_VALUE: init:n <- %RBX
	#DEBUG_VALUE: init:coins_size <- 0
	#DEBUG_VALUE: getBobSum:n <- %RBX
	#DEBUG_VALUE: main:n <- %RBX
	.loc	1 20 2                  # CoinGame.c:20:2
	xorl	%edi, %edi
	movl	%ebx, %esi
	callq	gen1DArray
.Ltmp123:
	movq	%rax, %r13
.Ltmp124:
	#DEBUG_VALUE: init:_5 <- %R13
	#DEBUG_VALUE: init:coins <- %R13
	#DEBUG_VALUE: main:_11 <- %R13
	#DEBUG_VALUE: main:coins <- %R13
	#DEBUG_VALUE: getBobSum:coins <- %R13
	#DEBUG_VALUE: init:coins_has_ownership <- 1
	.loc	1 34 6                  # CoinGame.c:34:6
	testq	%rbx, %rbx
	jle	.LBB3_11
.Ltmp125:
# BB#2:                                 # %if.end7.i.preheader
	#DEBUG_VALUE: main:_8 <- %R15
	#DEBUG_VALUE: getBobSum:coins <- %R13
	#DEBUG_VALUE: main:coins <- %R13
	#DEBUG_VALUE: main:_11 <- %R13
	#DEBUG_VALUE: init:coins <- %R13
	#DEBUG_VALUE: init:_5 <- %R13
	#DEBUG_VALUE: main:n <- %RBX
	#DEBUG_VALUE: getBobSum:n <- %RBX
	#DEBUG_VALUE: init:n <- %RBX
	#DEBUG_VALUE: init:_5_size <- %RBX
	xorl	%ecx, %ecx
	.loc	1 36 6                  # CoinGame.c:36:6
	cmpq	$4, %rbx
	jb	.LBB3_10
.Ltmp126:
# BB#3:                                 # %min.iters.checked
	#DEBUG_VALUE: init:_5_size <- %RBX
	#DEBUG_VALUE: init:n <- %RBX
	#DEBUG_VALUE: getBobSum:n <- %RBX
	#DEBUG_VALUE: main:n <- %RBX
	#DEBUG_VALUE: init:_5 <- %R13
	#DEBUG_VALUE: init:coins <- %R13
	#DEBUG_VALUE: main:_11 <- %R13
	#DEBUG_VALUE: main:coins <- %R13
	#DEBUG_VALUE: getBobSum:coins <- %R13
	#DEBUG_VALUE: main:_8 <- %R15
	xorl	%ecx, %ecx
	movq	%rbx, %rax
	andq	$-4, %rax
	je	.LBB3_10
.Ltmp127:
# BB#4:                                 # %vector.body.preheader
	#DEBUG_VALUE: main:_8 <- %R15
	#DEBUG_VALUE: getBobSum:coins <- %R13
	#DEBUG_VALUE: main:coins <- %R13
	#DEBUG_VALUE: main:_11 <- %R13
	#DEBUG_VALUE: init:coins <- %R13
	#DEBUG_VALUE: init:_5 <- %R13
	#DEBUG_VALUE: main:n <- %RBX
	#DEBUG_VALUE: getBobSum:n <- %RBX
	#DEBUG_VALUE: init:n <- %RBX
	#DEBUG_VALUE: init:_5_size <- %RBX
	.loc	1 421 8                 # CoinGame.c:421:8
	leaq	-4(%rax), %rsi
	movq	%rsi, %rdx
	shrq	$2, %rdx
	xorl	%ecx, %ecx
	btq	$2, %rsi
	jb	.LBB3_6
.Ltmp128:
# BB#5:                                 # %vector.body.prol
	#DEBUG_VALUE: init:_5_size <- %RBX
	#DEBUG_VALUE: init:n <- %RBX
	#DEBUG_VALUE: getBobSum:n <- %RBX
	#DEBUG_VALUE: main:n <- %RBX
	#DEBUG_VALUE: init:_5 <- %R13
	#DEBUG_VALUE: init:coins <- %R13
	#DEBUG_VALUE: main:_11 <- %R13
	#DEBUG_VALUE: main:coins <- %R13
	#DEBUG_VALUE: getBobSum:coins <- %R13
	#DEBUG_VALUE: main:_8 <- %R15
	.loc	1 36 6                  # CoinGame.c:36:6
	movdqu	(%r13), %xmm0
	movdqu	16(%r13), %xmm1
	.loc	1 38 8                  # CoinGame.c:38:8
	movl	$1, %ecx
	movd	%rcx, %xmm2
	pslldq	$8, %xmm2               # xmm2 = zero,zero,zero,zero,zero,zero,zero,zero,xmm2[0,1,2,3,4,5,6,7]
	paddq	%xmm0, %xmm2
	paddq	.LCPI3_0(%rip), %xmm1
	.loc	1 40 12                 # CoinGame.c:40:12
	movdqu	%xmm2, (%r13)
	movdqu	%xmm1, 16(%r13)
	movl	$4, %ecx
.Ltmp129:
.LBB3_6:                                # %vector.body.preheader.split
	#DEBUG_VALUE: init:_5_size <- %RBX
	#DEBUG_VALUE: init:n <- %RBX
	#DEBUG_VALUE: getBobSum:n <- %RBX
	#DEBUG_VALUE: main:n <- %RBX
	#DEBUG_VALUE: init:_5 <- %R13
	#DEBUG_VALUE: init:coins <- %R13
	#DEBUG_VALUE: main:_11 <- %R13
	#DEBUG_VALUE: main:coins <- %R13
	#DEBUG_VALUE: getBobSum:coins <- %R13
	#DEBUG_VALUE: main:_8 <- %R15
	.loc	1 421 8                 # CoinGame.c:421:8
	testq	%rdx, %rdx
	je	.LBB3_9
.Ltmp130:
# BB#7:
	#DEBUG_VALUE: main:_8 <- %R15
	#DEBUG_VALUE: getBobSum:coins <- %R13
	#DEBUG_VALUE: main:coins <- %R13
	#DEBUG_VALUE: main:_11 <- %R13
	#DEBUG_VALUE: init:coins <- %R13
	#DEBUG_VALUE: init:_5 <- %R13
	#DEBUG_VALUE: main:n <- %RBX
	#DEBUG_VALUE: getBobSum:n <- %RBX
	#DEBUG_VALUE: init:n <- %RBX
	#DEBUG_VALUE: init:_5_size <- %RBX
	movl	$1, %edx
	movd	%rdx, %xmm0
	pslldq	$8, %xmm0               # xmm0 = zero,zero,zero,zero,zero,zero,zero,zero,xmm0[0,1,2,3,4,5,6,7]
	movdqa	.LCPI3_0(%rip), %xmm1   # xmm1 = [2,3]
.Ltmp131:
	.p2align	4, 0x90
.LBB3_8:                                # %vector.body
                                        # =>This Inner Loop Header: Depth=1
	movd	%rcx, %xmm2
	pshufd	$68, %xmm2, %xmm2       # xmm2 = xmm2[0,1,0,1]
.Ltmp132:
	.loc	1 36 6                  # CoinGame.c:36:6
	movdqu	(%r13,%rcx,8), %xmm3
	paddq	%xmm2, %xmm3
	movdqu	16(%r13,%rcx,8), %xmm4
	paddq	%xmm2, %xmm4
	.loc	1 38 8                  # CoinGame.c:38:8
	paddq	%xmm0, %xmm3
	paddq	%xmm1, %xmm4
	.loc	1 40 12                 # CoinGame.c:40:12
	movdqu	%xmm3, (%r13,%rcx,8)
	movdqu	%xmm4, 16(%r13,%rcx,8)
	.loc	1 36 6                  # CoinGame.c:36:6
	leaq	4(%rcx), %rdx
.Ltmp133:
	.loc	1 421 8                 # CoinGame.c:421:8
	movd	%rdx, %xmm2
	pshufd	$68, %xmm2, %xmm2       # xmm2 = xmm2[0,1,0,1]
.Ltmp134:
	.loc	1 36 6                  # CoinGame.c:36:6
	movdqu	32(%r13,%rcx,8), %xmm3
	paddq	%xmm2, %xmm3
	movdqu	48(%r13,%rcx,8), %xmm4
	paddq	%xmm2, %xmm4
	.loc	1 38 8                  # CoinGame.c:38:8
	paddq	%xmm0, %xmm3
	paddq	%xmm1, %xmm4
	.loc	1 40 12                 # CoinGame.c:40:12
	movdqu	%xmm3, 32(%r13,%rcx,8)
	movdqu	%xmm4, 48(%r13,%rcx,8)
	.loc	1 36 6                  # CoinGame.c:36:6
	addq	$8, %rcx
	cmpq	%rax, %rcx
	jne	.LBB3_8
.Ltmp135:
.LBB3_9:                                # %middle.block
	cmpq	%rax, %rbx
	.loc	1 421 8                 # CoinGame.c:421:8
	movq	%rax, %rcx
	je	.LBB3_11
	.p2align	4, 0x90
.LBB3_10:                               # %if.end7.i
                                        # =>This Inner Loop Header: Depth=1
.Ltmp136:
	.loc	1 40 12                 # CoinGame.c:40:12
	addq	%rcx, (%r13,%rcx,8)
.Ltmp137:
	#DEBUG_VALUE: init:_9 <- 1
	.loc	1 44 8                  # CoinGame.c:44:8
	incq	%rcx
.Ltmp138:
	#DEBUG_VALUE: init:_10 <- %RCX
	#DEBUG_VALUE: init:i <- %RCX
	.loc	1 34 6                  # CoinGame.c:34:6
	cmpq	%rcx, %rbx
	jne	.LBB3_10
.Ltmp139:
.LBB3_11:                               # %init.exit
	#DEBUG_VALUE: main:coins_size <- 0
	#DEBUG_VALUE: main:coins_has_ownership <- 1
	#DEBUG_VALUE: main:_11_has_ownership <- 0
	#DEBUG_VALUE: main:_12_size <- 0
	movq	%rbp, (%rsp)            # 8-byte Spill
	.loc	1 432 8                 # CoinGame.c:432:8
	xorl	%r14d, %r14d
	xorl	%edx, %edx
	movq	%r13, %rdi
	movq	%rbx, %rcx
	callq	findMoves
	movq	%rax, %r12
.Ltmp140:
	#DEBUG_VALUE: main:moves <- %R12
	#DEBUG_VALUE: main:_12 <- %R12
	#DEBUG_VALUE: main:_13 <- 1
	#DEBUG_VALUE: main:_12_has_ownership <- 0
	#DEBUG_VALUE: main:moves_has_ownership <- 1
	#DEBUG_VALUE: main:moves_size <- 0
	.loc	1 444 6                 # CoinGame.c:444:6
	movq	-8(%r12,%rbx,8), %rbp
.Ltmp141:
	#DEBUG_VALUE: getBobSum:_12 <- 0
	#DEBUG_VALUE: getBobSum:_11 <- 0
	#DEBUG_VALUE: getBobSum:_10 <- 0
	#DEBUG_VALUE: getBobSum:_9 <- 0
	#DEBUG_VALUE: getBobSum:_8 <- 0
	#DEBUG_VALUE: getBobSum:_7 <- 0
	#DEBUG_VALUE: getBobSum:_6 <- 0
	#DEBUG_VALUE: getBobSum:sum <- 0
	#DEBUG_VALUE: getBobSum:i <- 0
	#DEBUG_VALUE: getBobSum:_3 <- 0
	#DEBUG_VALUE: getBobSum:coins_has_ownership [bit_piece offset=0 size=1] <- 0
	#DEBUG_VALUE: getBobSum:sum_alice <- %RBP
	#DEBUG_VALUE: main:_15 <- %RBP
	#DEBUG_VALUE: main:sum_alice <- %RBP
	.loc	1 81 6                  # CoinGame.c:81:6
	testq	%rbx, %rbx
	jle	.LBB3_24
.Ltmp142:
# BB#12:                                # %if.end.i.preheader
	#DEBUG_VALUE: main:sum_alice <- %RBP
	#DEBUG_VALUE: main:_15 <- %RBP
	#DEBUG_VALUE: getBobSum:sum_alice <- %RBP
	#DEBUG_VALUE: main:_12 <- %R12
	#DEBUG_VALUE: main:moves <- %R12
	xorl	%ecx, %ecx
	.loc	1 83 6                  # CoinGame.c:83:6
	cmpq	$4, %rbx
	movl	$0, %r14d
	jb	.LBB3_22
.Ltmp143:
# BB#13:                                # %min.iters.checked299
	#DEBUG_VALUE: main:moves <- %R12
	#DEBUG_VALUE: main:_12 <- %R12
	#DEBUG_VALUE: getBobSum:sum_alice <- %RBP
	#DEBUG_VALUE: main:_15 <- %RBP
	#DEBUG_VALUE: main:sum_alice <- %RBP
	xorl	%ecx, %ecx
	movq	%rbx, %rax
	andq	$-4, %rax
	movl	$0, %r14d
	je	.LBB3_22
.Ltmp144:
# BB#14:                                # %vector.body295.preheader
	#DEBUG_VALUE: main:sum_alice <- %RBP
	#DEBUG_VALUE: main:_15 <- %RBP
	#DEBUG_VALUE: getBobSum:sum_alice <- %RBP
	#DEBUG_VALUE: main:_12 <- %R12
	#DEBUG_VALUE: main:moves <- %R12
	leaq	-4(%rax), %rcx
	movl	%ecx, %esi
	shrl	$2, %esi
	incl	%esi
	xorl	%edx, %edx
	andq	$3, %rsi
	je	.LBB3_15
.Ltmp145:
# BB#16:                                # %vector.body295.prol.preheader
	#DEBUG_VALUE: main:moves <- %R12
	#DEBUG_VALUE: main:_12 <- %R12
	#DEBUG_VALUE: getBobSum:sum_alice <- %RBP
	#DEBUG_VALUE: main:_15 <- %RBP
	#DEBUG_VALUE: main:sum_alice <- %RBP
	negq	%rsi
	pxor	%xmm0, %xmm0
	xorl	%edx, %edx
	pxor	%xmm1, %xmm1
.Ltmp146:
	.p2align	4, 0x90
.LBB3_17:                               # %vector.body295.prol
                                        # =>This Inner Loop Header: Depth=1
	movdqu	(%r13,%rdx,8), %xmm2
	movdqu	16(%r13,%rdx,8), %xmm3
	.loc	1 85 9                  # CoinGame.c:85:9
	paddq	%xmm2, %xmm0
	paddq	%xmm3, %xmm1
	.loc	1 83 6                  # CoinGame.c:83:6
	addq	$4, %rdx
	incq	%rsi
	jne	.LBB3_17
	jmp	.LBB3_18
.LBB3_15:
.Ltmp147:
	#DEBUG_VALUE: main:moves <- %R12
	#DEBUG_VALUE: main:_12 <- %R12
	#DEBUG_VALUE: getBobSum:sum_alice <- %RBP
	#DEBUG_VALUE: main:_15 <- %RBP
	#DEBUG_VALUE: main:sum_alice <- %RBP
	pxor	%xmm0, %xmm0
	pxor	%xmm1, %xmm1
.Ltmp148:
.LBB3_18:                               # %vector.body295.preheader.split
	cmpq	$12, %rcx
	jb	.LBB3_21
# BB#19:                                # %vector.body295.preheader.split.split
	movq	%rax, %rcx
	subq	%rdx, %rcx
	leaq	112(%r13,%rdx,8), %rdx
	.p2align	4, 0x90
.LBB3_20:                               # %vector.body295
                                        # =>This Inner Loop Header: Depth=1
	movdqu	-112(%rdx), %xmm2
	movdqu	-96(%rdx), %xmm3
	movdqu	-80(%rdx), %xmm4
	movdqu	-64(%rdx), %xmm5
	.loc	1 85 9                  # CoinGame.c:85:9
	paddq	%xmm0, %xmm2
	paddq	%xmm1, %xmm3
	paddq	%xmm4, %xmm2
	paddq	%xmm5, %xmm3
	.loc	1 83 6                  # CoinGame.c:83:6
	movdqu	-48(%rdx), %xmm4
	movdqu	-32(%rdx), %xmm5
	.loc	1 85 9                  # CoinGame.c:85:9
	paddq	%xmm2, %xmm4
	paddq	%xmm3, %xmm5
	.loc	1 83 6                  # CoinGame.c:83:6
	movdqu	-16(%rdx), %xmm0
	movdqu	(%rdx), %xmm1
	.loc	1 85 9                  # CoinGame.c:85:9
	paddq	%xmm4, %xmm0
	paddq	%xmm5, %xmm1
	.loc	1 83 6                  # CoinGame.c:83:6
	subq	$-128, %rdx
	addq	$-16, %rcx
	jne	.LBB3_20
.LBB3_21:                               # %middle.block296
	.loc	1 85 9                  # CoinGame.c:85:9
	paddq	%xmm0, %xmm1
	pshufd	$78, %xmm1, %xmm0       # xmm0 = xmm1[2,3,0,1]
	paddq	%xmm1, %xmm0
	movd	%xmm0, %r14
	cmpq	%rax, %rbx
	movq	%rax, %rcx
	je	.LBB3_24
.LBB3_22:                               # %if.end.i.preheader318
	.loc	1 83 6                  # CoinGame.c:83:6
	subq	%rcx, %rbx
	leaq	(%r13,%rcx,8), %rax
	.p2align	4, 0x90
.LBB3_23:                               # %if.end.i
                                        # =>This Inner Loop Header: Depth=1
	.loc	1 85 9                  # CoinGame.c:85:9
	addq	(%rax), %r14
.Ltmp149:
	#DEBUG_VALUE: getBobSum:_10 <- 1
	#DEBUG_VALUE: getBobSum:_9 <- %R14
	#DEBUG_VALUE: getBobSum:sum <- %R14
	.loc	1 81 6                  # CoinGame.c:81:6
	addq	$8, %rax
	decq	%rbx
	jne	.LBB3_23
.Ltmp150:
.LBB3_24:                               # %getBobSum.exit
	.loc	1 100 9                 # CoinGame.c:100:9
	subq	%rbp, %r14
.Ltmp151:
	#DEBUG_VALUE: getBobSum:_12 <- %R14
	#DEBUG_VALUE: main:_16 <- %R14
	#DEBUG_VALUE: main:sum_bob <- %R14
	.loc	1 455 6                 # CoinGame.c:455:6
	cmpq	%r14, %rbp
	jge	.LBB3_25
.Ltmp152:
# BB#28:                                # %if.end22
	#DEBUG_VALUE: main:sum_bob <- %R14
	#DEBUG_VALUE: main:_16 <- %R14
	#DEBUG_VALUE: getBobSum:_12 <- %R14
	.loc	1 457 11                # CoinGame.c:457:11
	movq	stderr(%rip), %rcx
	.loc	1 457 3 is_stmt 0       # CoinGame.c:457:3
	movl	$.L.str, %edi
	movl	$4, %esi
	movl	$1, %edx
	callq	fwrite
	.loc	1 458 3 is_stmt 1       # CoinGame.c:458:3
	movl	$-1, %edi
	callq	exit
.Ltmp153:
.LBB3_25:                               # %if.then133
	#DEBUG_VALUE: main:sum_bob <- %R14
	#DEBUG_VALUE: main:_16 <- %R14
	#DEBUG_VALUE: getBobSum:_12 <- %R14
	#DEBUG_VALUE: main:_19_size <- 50
	.loc	1 467 2                 # CoinGame.c:467:2
	movl	$400, %edi              # imm = 0x190
	callq	malloc
	movq	%rax, %rbx
.Ltmp154:
	#DEBUG_VALUE: main:_19 <- %RBX
	.loc	1 468 9                 # CoinGame.c:468:9
	movaps	.LCPI3_1(%rip), %xmm0   # xmm0 = [84,104]
	movups	%xmm0, (%rbx)
	.loc	1 468 36 is_stmt 0      # CoinGame.c:468:36
	movaps	.LCPI3_2(%rip), %xmm0   # xmm0 = [101,32]
	movups	%xmm0, 16(%rbx)
	movaps	%xmm0, %xmm1
	.loc	1 468 63                # CoinGame.c:468:63
	movaps	.LCPI3_3(%rip), %xmm0   # xmm0 = [116,111]
	movups	%xmm0, 32(%rbx)
	.loc	1 468 91                # CoinGame.c:468:91
	movaps	.LCPI3_4(%rip), %xmm0   # xmm0 = [116,97]
	movups	%xmm0, 48(%rbx)
	.loc	1 468 118               # CoinGame.c:468:118
	movaps	.LCPI3_5(%rip), %xmm0   # xmm0 = [108,32]
	movups	%xmm0, 64(%rbx)
	.loc	1 468 146               # CoinGame.c:468:146
	movaps	.LCPI3_6(%rip), %xmm0   # xmm0 = [97,109]
	movups	%xmm0, 80(%rbx)
	.loc	1 468 175               # CoinGame.c:468:175
	movaps	.LCPI3_7(%rip), %xmm0   # xmm0 = [111,117]
	movups	%xmm0, 96(%rbx)
	.loc	1 468 205               # CoinGame.c:468:205
	movaps	.LCPI3_8(%rip), %xmm0   # xmm0 = [110,116]
	movups	%xmm0, 112(%rbx)
	.loc	1 468 235               # CoinGame.c:468:235
	movaps	.LCPI3_9(%rip), %xmm0   # xmm0 = [32,111]
	movups	%xmm0, 128(%rbx)
	.loc	1 468 264               # CoinGame.c:468:264
	movaps	.LCPI3_10(%rip), %xmm0  # xmm0 = [102,32]
	movups	%xmm0, 144(%rbx)
	.loc	1 468 293               # CoinGame.c:468:293
	movaps	.LCPI3_11(%rip), %xmm0  # xmm0 = [109,111]
	movups	%xmm0, 160(%rbx)
	.loc	1 468 323               # CoinGame.c:468:323
	movaps	.LCPI3_12(%rip), %xmm0  # xmm0 = [110,101]
	movups	%xmm0, 176(%rbx)
	.loc	1 468 353               # CoinGame.c:468:353
	movaps	.LCPI3_13(%rip), %xmm0  # xmm0 = [121,32]
	movups	%xmm0, 192(%rbx)
	.loc	1 468 382               # CoinGame.c:468:382
	movaps	.LCPI3_14(%rip), %xmm0  # xmm0 = [40,109]
	movups	%xmm0, 208(%rbx)
	.loc	1 468 411               # CoinGame.c:468:411
	movaps	.LCPI3_15(%rip), %xmm0  # xmm0 = [97,120]
	movups	%xmm0, 224(%rbx)
	.loc	1 468 440               # CoinGame.c:468:440
	movaps	.LCPI3_16(%rip), %xmm0  # xmm0 = [105,109]
	movups	%xmm0, 240(%rbx)
	.loc	1 468 470               # CoinGame.c:468:470
	movaps	.LCPI3_17(%rip), %xmm0  # xmm0 = [117,109]
	movups	%xmm0, 256(%rbx)
	.loc	1 468 500               # CoinGame.c:468:500
	movaps	.LCPI3_18(%rip), %xmm0  # xmm0 = [41,32]
	movups	%xmm0, 272(%rbx)
	.loc	1 468 528               # CoinGame.c:468:528
	movaps	.LCPI3_19(%rip), %xmm0  # xmm0 = [65,108]
	movups	%xmm0, 288(%rbx)
	.loc	1 468 557               # CoinGame.c:468:557
	movaps	.LCPI3_20(%rip), %xmm0  # xmm0 = [105,99]
	movups	%xmm0, 304(%rbx)
	.loc	1 468 586               # CoinGame.c:468:586
	movups	%xmm1, 320(%rbx)
	.loc	1 468 615               # CoinGame.c:468:615
	movaps	.LCPI3_21(%rip), %xmm0  # xmm0 = [103,101]
	movups	%xmm0, 336(%rbx)
	.loc	1 468 645               # CoinGame.c:468:645
	movaps	.LCPI3_22(%rip), %xmm0  # xmm0 = [116,115]
	movups	%xmm0, 352(%rbx)
	.loc	1 468 675               # CoinGame.c:468:675
	movaps	.LCPI3_23(%rip), %xmm0  # xmm0 = [32,105]
	movups	%xmm0, 368(%rbx)
	.loc	1 468 704               # CoinGame.c:468:704
	movaps	.LCPI3_24(%rip), %xmm0  # xmm0 = [115,32]
	movups	%xmm0, 384(%rbx)
.Ltmp155:
	#DEBUG_VALUE: main:_19_has_ownership <- 1
	.loc	1 471 2 is_stmt 1       # CoinGame.c:471:2
	movl	$50, %esi
	movq	%rbx, %rdi
	callq	printf_s
	.loc	1 475 2                 # CoinGame.c:475:2
	movl	$.L.str.1, %edi
	xorl	%eax, %eax
	movq	%rbp, %rsi
	callq	printf
.Ltmp156:
	#DEBUG_VALUE: main:_24_size <- 48
	.loc	1 480 2                 # CoinGame.c:480:2
	movl	$384, %edi              # imm = 0x180
	callq	malloc
	movq	%rax, %rbp
.Ltmp157:
	#DEBUG_VALUE: main:_24 <- %RBP
	.loc	1 468 9                 # CoinGame.c:468:9
	movaps	.LCPI3_1(%rip), %xmm0   # xmm0 = [84,104]
	.loc	1 481 9                 # CoinGame.c:481:9
	movups	%xmm0, (%rbp)
	.loc	1 468 36                # CoinGame.c:468:36
	movaps	.LCPI3_2(%rip), %xmm0   # xmm0 = [101,32]
	.loc	1 481 36                # CoinGame.c:481:36
	movups	%xmm0, 16(%rbp)
	.loc	1 468 63                # CoinGame.c:468:63
	movaps	.LCPI3_3(%rip), %xmm0   # xmm0 = [116,111]
	.loc	1 481 63                # CoinGame.c:481:63
	movups	%xmm0, 32(%rbp)
	.loc	1 468 91                # CoinGame.c:468:91
	movaps	.LCPI3_4(%rip), %xmm0   # xmm0 = [116,97]
	.loc	1 481 91                # CoinGame.c:481:91
	movups	%xmm0, 48(%rbp)
	.loc	1 468 118               # CoinGame.c:468:118
	movaps	.LCPI3_5(%rip), %xmm0   # xmm0 = [108,32]
	.loc	1 481 118               # CoinGame.c:481:118
	movups	%xmm0, 64(%rbp)
	.loc	1 468 146               # CoinGame.c:468:146
	movaps	.LCPI3_6(%rip), %xmm0   # xmm0 = [97,109]
	.loc	1 481 146               # CoinGame.c:481:146
	movups	%xmm0, 80(%rbp)
	.loc	1 468 175               # CoinGame.c:468:175
	movaps	.LCPI3_7(%rip), %xmm0   # xmm0 = [111,117]
	.loc	1 481 175               # CoinGame.c:481:175
	movups	%xmm0, 96(%rbp)
	.loc	1 468 205               # CoinGame.c:468:205
	movaps	.LCPI3_8(%rip), %xmm0   # xmm0 = [110,116]
	.loc	1 481 205               # CoinGame.c:481:205
	movups	%xmm0, 112(%rbp)
	.loc	1 468 235               # CoinGame.c:468:235
	movaps	.LCPI3_9(%rip), %xmm0   # xmm0 = [32,111]
	.loc	1 481 235               # CoinGame.c:481:235
	movups	%xmm0, 128(%rbp)
	.loc	1 468 264               # CoinGame.c:468:264
	movaps	.LCPI3_10(%rip), %xmm0  # xmm0 = [102,32]
	.loc	1 481 264               # CoinGame.c:481:264
	movups	%xmm0, 144(%rbp)
	.loc	1 468 293               # CoinGame.c:468:293
	movaps	.LCPI3_11(%rip), %xmm0  # xmm0 = [109,111]
	.loc	1 481 293               # CoinGame.c:481:293
	movups	%xmm0, 160(%rbp)
	.loc	1 468 323               # CoinGame.c:468:323
	movaps	.LCPI3_12(%rip), %xmm0  # xmm0 = [110,101]
	.loc	1 481 323               # CoinGame.c:481:323
	movups	%xmm0, 176(%rbp)
	.loc	1 468 353               # CoinGame.c:468:353
	movaps	.LCPI3_13(%rip), %xmm0  # xmm0 = [121,32]
	.loc	1 481 353               # CoinGame.c:481:353
	movups	%xmm0, 192(%rbp)
	.loc	1 468 382               # CoinGame.c:468:382
	movaps	.LCPI3_14(%rip), %xmm0  # xmm0 = [40,109]
	.loc	1 481 382               # CoinGame.c:481:382
	movups	%xmm0, 208(%rbp)
	.loc	1 468 411               # CoinGame.c:468:411
	movaps	.LCPI3_15(%rip), %xmm0  # xmm0 = [97,120]
	.loc	1 481 411               # CoinGame.c:481:411
	movups	%xmm0, 224(%rbp)
	.loc	1 468 440               # CoinGame.c:468:440
	movaps	.LCPI3_16(%rip), %xmm0  # xmm0 = [105,109]
	.loc	1 481 440               # CoinGame.c:481:440
	movups	%xmm0, 240(%rbp)
	.loc	1 468 470               # CoinGame.c:468:470
	movaps	.LCPI3_17(%rip), %xmm0  # xmm0 = [117,109]
	.loc	1 481 470               # CoinGame.c:481:470
	movups	%xmm0, 256(%rbp)
	.loc	1 468 500               # CoinGame.c:468:500
	movaps	.LCPI3_18(%rip), %xmm0  # xmm0 = [41,32]
	.loc	1 481 500               # CoinGame.c:481:500
	movups	%xmm0, 272(%rbp)
	.loc	1 481 528 is_stmt 0     # CoinGame.c:481:528
	movaps	.LCPI3_25(%rip), %xmm0  # xmm0 = [66,111]
	movups	%xmm0, 288(%rbp)
	.loc	1 481 557               # CoinGame.c:481:557
	movaps	.LCPI3_26(%rip), %xmm0  # xmm0 = [98,32]
	movups	%xmm0, 304(%rbp)
	.loc	1 468 615 is_stmt 1     # CoinGame.c:468:615
	movaps	.LCPI3_21(%rip), %xmm0  # xmm0 = [103,101]
	.loc	1 481 585               # CoinGame.c:481:585
	movups	%xmm0, 320(%rbp)
	.loc	1 468 645               # CoinGame.c:468:645
	movaps	.LCPI3_22(%rip), %xmm0  # xmm0 = [116,115]
	.loc	1 481 615               # CoinGame.c:481:615
	movups	%xmm0, 336(%rbp)
	.loc	1 468 675               # CoinGame.c:468:675
	movaps	.LCPI3_23(%rip), %xmm0  # xmm0 = [32,105]
	.loc	1 481 645               # CoinGame.c:481:645
	movups	%xmm0, 352(%rbp)
	.loc	1 468 704               # CoinGame.c:468:704
	movaps	.LCPI3_24(%rip), %xmm0  # xmm0 = [115,32]
	.loc	1 481 674               # CoinGame.c:481:674
	movups	%xmm0, 368(%rbp)
.Ltmp158:
	#DEBUG_VALUE: main:_24_has_ownership <- 1
	.loc	1 484 2                 # CoinGame.c:484:2
	movl	$48, %esi
	movq	%rbp, %rdi
	callq	printf_s
	.loc	1 488 2                 # CoinGame.c:488:2
	movl	$.L.str.1, %edi
	xorl	%eax, %eax
	movq	%r14, %rsi
	callq	printf
.Ltmp159:
	.loc	1 492 2 discriminator 1 # CoinGame.c:492:2
	movq	%r13, %rdi
	callq	free
.Ltmp160:
	#DEBUG_VALUE: main:coins_has_ownership <- 0
	.loc	1 493 2 discriminator 1 # CoinGame.c:493:2
	movq	%r12, %rdi
	callq	free
.Ltmp161:
	#DEBUG_VALUE: main:moves_has_ownership <- 0
	.loc	1 494 2 discriminator 1 # CoinGame.c:494:2
	movq	%r15, %rdi
	movq	(%rsp), %rsi            # 8-byte Reload
	callq	free2DArray
.Ltmp162:
	#DEBUG_VALUE: main:_8_has_ownership <- 0
	.loc	1 498 2 discriminator 1 # CoinGame.c:498:2
	movq	%rbx, %rdi
	callq	free
.Ltmp163:
	#DEBUG_VALUE: main:_19_has_ownership <- 0
	.loc	1 499 2 discriminator 1 # CoinGame.c:499:2
	movq	%rbp, %rdi
	callq	free
.Ltmp164:
	#DEBUG_VALUE: main:_24_has_ownership <- 0
	.loc	1 500 2                 # CoinGame.c:500:2
	xorl	%edi, %edi
	callq	exit
.Ltmp165:
.LBB3_26:                               # %if.end155.critedge
	#DEBUG_VALUE: main:_7 <- %RAX
	#DEBUG_VALUE: main:max <- %RAX
	#DEBUG_VALUE: main:_8_size <- %EBX
	#DEBUG_VALUE: main:_8 <- %R15
	.loc	1 494 2 discriminator 1 # CoinGame.c:494:2
	movq	%r15, %rdi
	movq	%rbp, %rsi
	callq	free2DArray
.Ltmp166:
	#DEBUG_VALUE: main:_8_has_ownership <- 0
	.loc	1 500 2                 # CoinGame.c:500:2
	xorl	%edi, %edi
	callq	exit
.Ltmp167:
.Lfunc_end3:
	.size	main, .Lfunc_end3-main
	.cfi_endproc

	.type	.L.str,@object          # @.str
	.section	.rodata.str1.1,"aMS",@progbits,1
.L.str:
	.asciz	"fail"
	.size	.L.str, 5

	.type	.L.str.1,@object        # @.str.1
.L.str.1:
	.asciz	"%lld\n"
	.size	.L.str.1, 6

	.section	".note.GNU-stack","",@progbits