	.text
	.file	"llvm/CoinGame.openmp.enablevc.ll"
	.section	.rodata.cst16,"aM",@progbits,16
	.p2align	4
.LCPI0_0:
	.quad	65                      # 0x41
	.quad	108                     # 0x6c
.LCPI0_1:
	.quad	105                     # 0x69
	.quad	99                      # 0x63
.LCPI0_2:
	.quad	101                     # 0x65
	.quad	32                      # 0x20
.LCPI0_3:
	.quad	116                     # 0x74
	.quad	97                      # 0x61
.LCPI0_4:
	.quad	107                     # 0x6b
	.quad	101                     # 0x65
.LCPI0_5:
	.quad	32                      # 0x20
	.quad	99                      # 0x63
.LCPI0_6:
	.quad	111                     # 0x6f
	.quad	105                     # 0x69
.LCPI0_7:
	.quad	110                     # 0x6e
	.quad	32                      # 0x20
.LCPI0_8:
	.quad	40                      # 0x28
	.quad	32                      # 0x20
.LCPI0_9:
	.quad	66                      # 0x42
	.quad	111                     # 0x6f
.LCPI0_10:
	.quad	98                      # 0x62
	.quad	32                      # 0x20
.LCPI0_11:
	.quad	32                      # 0x20
	.quad	44                      # 0x2c
.LCPI0_12:
	.quad	32                      # 0x20
	.quad	41                      # 0x29
.LCPI0_13:
	.quad	44                      # 0x2c
	.quad	32                      # 0x20
.LCPI0_14:
	.quad	84                      # 0x54
	.quad	104                     # 0x68
.LCPI0_15:
	.quad	116                     # 0x74
	.quad	111                     # 0x6f
.LCPI0_16:
	.quad	108                     # 0x6c
	.quad	32                      # 0x20
.LCPI0_17:
	.quad	97                      # 0x61
	.quad	109                     # 0x6d
.LCPI0_18:
	.quad	111                     # 0x6f
	.quad	117                     # 0x75
.LCPI0_19:
	.quad	110                     # 0x6e
	.quad	116                     # 0x74
.LCPI0_20:
	.quad	32                      # 0x20
	.quad	111                     # 0x6f
.LCPI0_21:
	.quad	102                     # 0x66
	.quad	32                      # 0x20
.LCPI0_22:
	.quad	109                     # 0x6d
	.quad	111                     # 0x6f
.LCPI0_23:
	.quad	110                     # 0x6e
	.quad	101                     # 0x65
.LCPI0_24:
	.quad	121                     # 0x79
	.quad	32                      # 0x20
.LCPI0_25:
	.quad	40                      # 0x28
	.quad	109                     # 0x6d
.LCPI0_26:
	.quad	97                      # 0x61
	.quad	120                     # 0x78
.LCPI0_27:
	.quad	105                     # 0x69
	.quad	109                     # 0x6d
.LCPI0_28:
	.quad	117                     # 0x75
	.quad	109                     # 0x6d
.LCPI0_29:
	.quad	41                      # 0x29
	.quad	32                      # 0x20
.LCPI0_30:
	.quad	103                     # 0x67
	.quad	101                     # 0x65
.LCPI0_31:
	.quad	116                     # 0x74
	.quad	115                     # 0x73
.LCPI0_32:
	.quad	32                      # 0x20
	.quad	105                     # 0x69
.LCPI0_33:
	.quad	115                     # 0x73
	.quad	32                      # 0x20
	.text
	.globl	play
	.p2align	4, 0x90
	.type	play,@function
play:                                   # @play
.Lfunc_begin0:
	.file	1 "CoinGame.c"
	.loc	1 2 0                   # CoinGame.c:2:0
	.cfi_startproc
# BB#0:                                 # %entry
	pushq	%rbp
.Ltmp0:
	.cfi_def_cfa_offset 16
	pushq	%r15
.Ltmp1:
	.cfi_def_cfa_offset 24
	pushq	%r14
.Ltmp2:
	.cfi_def_cfa_offset 32
	pushq	%r13
.Ltmp3:
	.cfi_def_cfa_offset 40
	pushq	%r12
.Ltmp4:
	.cfi_def_cfa_offset 48
	pushq	%rbx
.Ltmp5:
	.cfi_def_cfa_offset 56
	subq	$136, %rsp
.Ltmp6:
	.cfi_def_cfa_offset 192
.Ltmp7:
	.cfi_offset %rbx, -56
.Ltmp8:
	.cfi_offset %r12, -48
.Ltmp9:
	.cfi_offset %r13, -40
.Ltmp10:
	.cfi_offset %r14, -32
.Ltmp11:
	.cfi_offset %r15, -24
.Ltmp12:
	.cfi_offset %rbp, -16
	#DEBUG_VALUE: play:sys <- %RDI
	#DEBUG_VALUE: play:moves <- %RSI
	#DEBUG_VALUE: play:moves_size <- %RDX
	#DEBUG_VALUE: play:moves_has_ownership [bit_piece offset=0 size=1] <- %ECX
	#DEBUG_VALUE: play:n <- %R8
	movq	%r8, %r15
.Ltmp13:
	#DEBUG_VALUE: play:n <- %R15
	movq	%r15, 112(%rsp)         # 8-byte Spill
	movl	%ecx, %ebx
.Ltmp14:
	#DEBUG_VALUE: play:moves_has_ownership [bit_piece offset=0 size=1] <- %EBX
	movq	%rsi, 80(%rsp)          # 8-byte Spill
.Ltmp15:
	#DEBUG_VALUE: play:_64_has_ownership <- 0
	#DEBUG_VALUE: play:_64_size <- 0
	#DEBUG_VALUE: play:_61 <- 0
	#DEBUG_VALUE: play:_60 <- 0
	#DEBUG_VALUE: play:_59_has_ownership <- 0
	#DEBUG_VALUE: play:_59_size <- 0
	#DEBUG_VALUE: play:_56 <- 0
	#DEBUG_VALUE: play:_55_has_ownership <- 0
	#DEBUG_VALUE: play:_55_size <- 0
	#DEBUG_VALUE: play:_52 <- 0
	#DEBUG_VALUE: play:_51 <- 0
	#DEBUG_VALUE: play:_50 <- 0
	#DEBUG_VALUE: play:_49 <- 0
	#DEBUG_VALUE: play:_48_has_ownership <- 0
	#DEBUG_VALUE: play:_48_size <- 0
	#DEBUG_VALUE: play:_43_has_ownership <- 0
	#DEBUG_VALUE: play:_43_size <- 0
	#DEBUG_VALUE: play:_38_has_ownership <- 0
	#DEBUG_VALUE: play:_38_size <- 0
	#DEBUG_VALUE: play:_35_has_ownership <- 0
	#DEBUG_VALUE: play:_35_size <- 0
	#DEBUG_VALUE: play:_32 <- 0
	#DEBUG_VALUE: play:_31 <- 0
	#DEBUG_VALUE: play:_30 <- 0
	#DEBUG_VALUE: play:_29 <- 0
	#DEBUG_VALUE: play:_28 <- 0
	#DEBUG_VALUE: play:_27 <- 0
	#DEBUG_VALUE: play:_26 <- 0
	#DEBUG_VALUE: play:_25 <- 0
	#DEBUG_VALUE: play:_24 <- 0
	#DEBUG_VALUE: play:_23 <- 0
	#DEBUG_VALUE: play:_22 <- 0
	#DEBUG_VALUE: play:_21 <- 0
	#DEBUG_VALUE: play:_20 <- 0
	#DEBUG_VALUE: play:_19 <- 0
	#DEBUG_VALUE: play:_18 <- 0
	#DEBUG_VALUE: play:_17 <- 0
	#DEBUG_VALUE: play:_16 <- 0
	#DEBUG_VALUE: play:_15 <- 0
	#DEBUG_VALUE: play:_14 <- 0
	#DEBUG_VALUE: play:_13 <- 0
	#DEBUG_VALUE: play:_12 <- 0
	#DEBUG_VALUE: play:_11 <- 0
	#DEBUG_VALUE: play:_10 <- 1
	#DEBUG_VALUE: play:_9 <- 0
	#DEBUG_VALUE: play:coin <- 0
	#DEBUG_VALUE: play:sum_bob <- 0
	#DEBUG_VALUE: play:sum_alice <- 0
	#DEBUG_VALUE: play:i <- 0
	#DEBUG_VALUE: play:right <- 0
	#DEBUG_VALUE: play:left <- 0
	#DEBUG_VALUE: play:moves <- [%RSP+80]
	.loc	1 89 6 prologue_end     # CoinGame.c:89:6
	testq	%r15, %r15
	jle	.LBB0_1
.Ltmp16:
# BB#2:                                 # %if.end.lr.ph
	#DEBUG_VALUE: play:moves <- [%RSP+80]
	#DEBUG_VALUE: play:moves_has_ownership [bit_piece offset=0 size=1] <- %EBX
	#DEBUG_VALUE: play:n <- %R15
	#DEBUG_VALUE: play:moves_size <- %RDX
	#DEBUG_VALUE: play:sys <- %RDI
	movl	%ebx, 92(%rsp)          # 4-byte Spill
	.loc	1 71 7                  # CoinGame.c:71:7
	leaq	-1(%r15), %r12
.Ltmp17:
	#DEBUG_VALUE: play:_11 <- %R12
	#DEBUG_VALUE: play:right <- %R12
	movl	$0, %ebp
	movl	$0, %eax
	movq	%rax, 72(%rsp)          # 8-byte Spill
	movl	$0, %eax
	movq	%rax, 16(%rsp)          # 8-byte Spill
	movl	$0, %eax
	movq	%rax, 64(%rsp)          # 8-byte Spill
	movl	$0, %eax
	movq	%rax, 40(%rsp)          # 8-byte Spill
	movl	$0, %r13d
	movl	$0, %eax
	movq	%rax, 32(%rsp)          # 8-byte Spill
	movl	$0, %eax
	movq	%rax, 96(%rsp)          # 8-byte Spill
	movl	$0, %eax
	movq	%rax, 104(%rsp)         # 8-byte Spill
	movl	$0, %r14d
	xorl	%eax, %eax
	movq	%rax, 24(%rsp)          # 8-byte Spill
	xorl	%eax, %eax
	movq	%rax, 56(%rsp)          # 8-byte Spill
	xorl	%eax, %eax
	movq	%rax, 8(%rsp)           # 8-byte Spill
	xorl	%eax, %eax
	movq	%rax, 48(%rsp)          # 8-byte Spill
	xorl	%eax, %eax
	movq	%rax, (%rsp)            # 8-byte Spill
.Ltmp18:
	.p2align	4, 0x90
.LBB0_3:                                # %if.end
                                        # =>This Inner Loop Header: Depth=1
	#DEBUG_VALUE: play:coin <- 0
	#DEBUG_VALUE: play:_15 <- 0
	#DEBUG_VALUE: play:_16 <- 1
	.loc	1 97 11                 # CoinGame.c:97:11
	leaq	1(%rbp), %rdi
.Ltmp19:
	#DEBUG_VALUE: play:_17 <- %RDI
	.loc	1 99 10                 # CoinGame.c:99:10
	movq	%rdi, %rcx
	imulq	%r15, %rcx
.Ltmp20:
	#DEBUG_VALUE: play:_18 <- %RCX
	.loc	1 101 10                # CoinGame.c:101:10
	addq	%r12, %rcx
.Ltmp21:
	#DEBUG_VALUE: play:_19 <- %RCX
	movq	80(%rsp), %rsi          # 8-byte Reload
	.loc	1 103 7                 # CoinGame.c:103:7
	movq	(%rsi,%rcx,8), %rcx
.Ltmp22:
	#DEBUG_VALUE: play:_20 <- %RCX
	.loc	1 105 11                # CoinGame.c:105:11
	movq	%rbp, %rdx
	imulq	%r15, %rdx
.Ltmp23:
	#DEBUG_VALUE: play:_23 <- 1
	#DEBUG_VALUE: play:_21 <- %RDX
	.loc	1 107 10                # CoinGame.c:107:10
	addq	%r12, %rdx
.Ltmp24:
	.loc	1 115 9                 # CoinGame.c:115:9
	cmpq	-8(%rsi,%rdx,8), %rcx
.Ltmp25:
	#DEBUG_VALUE: play:_28 <- 1
	setg	%cl
.Ltmp26:
	.loc	1 115 6 is_stmt 0       # CoinGame.c:115:6
	cmovgq	%rbp, %rdi
.Ltmp27:
	#DEBUG_VALUE: play:_32 <- 0
	#DEBUG_VALUE: play:_30 <- 2
	#DEBUG_VALUE: play:_17 <- %RBP
	movq	%rdi, 128(%rsp)         # 8-byte Spill
	cmovgq	%r12, %rbp
.Ltmp28:
	movzbl	%cl, %eax
	.loc	1 145 6 is_stmt 1       # CoinGame.c:145:6
	movq	%rax, 120(%rsp)         # 8-byte Spill
	movq	%r13, %r15
	andq	$1, %r15
	je	.LBB0_4
# BB#7:                                 # %blklab4
                                        #   in Loop: Header=BB0_3 Depth=1
.Ltmp29:
	.loc	1 162 3                 # CoinGame.c:162:3
	movq	56(%rsp), %rax          # 8-byte Reload
	testb	$1, %al
	je	.LBB0_9
# BB#8:                                 # %if.then35
                                        #   in Loop: Header=BB0_3 Depth=1
.Ltmp30:
	.loc	1 162 3 is_stmt 0 discriminator 1 # CoinGame.c:162:3
	movq	8(%rsp), %rdi           # 8-byte Reload
	callq	free
.Ltmp31:
	#DEBUG_VALUE: play:_38_has_ownership <- 0
.LBB0_9:                                # %if.end36
                                        #   in Loop: Header=BB0_3 Depth=1
	#DEBUG_VALUE: play:_38_size <- 16
	.loc	1 163 3 is_stmt 1       # CoinGame.c:163:3
	movl	$128, %edi
	callq	malloc
.Ltmp32:
	#DEBUG_VALUE: play:_38 <- %RAX
	.loc	1 164 10                # CoinGame.c:164:10
	movq	%rax, 8(%rsp)           # 8-byte Spill
	movaps	.LCPI0_9(%rip), %xmm0   # xmm0 = [66,111]
	movups	%xmm0, (%rax)
	.loc	1 164 37 is_stmt 0      # CoinGame.c:164:37
	movaps	.LCPI0_10(%rip), %xmm0  # xmm0 = [98,32]
	movups	%xmm0, 16(%rax)
	.loc	1 164 63                # CoinGame.c:164:63
	movaps	.LCPI0_3(%rip), %xmm0   # xmm0 = [116,97]
	movups	%xmm0, 32(%rax)
	.loc	1 164 90                # CoinGame.c:164:90
	movaps	.LCPI0_4(%rip), %xmm0   # xmm0 = [107,101]
	movups	%xmm0, 48(%rax)
	.loc	1 164 118               # CoinGame.c:164:118
	movaps	.LCPI0_5(%rip), %xmm0   # xmm0 = [32,99]
	movups	%xmm0, 64(%rax)
	.loc	1 164 145               # CoinGame.c:164:145
	movaps	.LCPI0_6(%rip), %xmm0   # xmm0 = [111,105]
	movups	%xmm0, 80(%rax)
	.loc	1 164 175               # CoinGame.c:164:175
	movaps	.LCPI0_7(%rip), %xmm0   # xmm0 = [110,32]
	movups	%xmm0, 96(%rax)
	.loc	1 164 204               # CoinGame.c:164:204
	movaps	.LCPI0_8(%rip), %xmm0   # xmm0 = [40,32]
	movups	%xmm0, 112(%rax)
.Ltmp33:
	#DEBUG_VALUE: play:_38_has_ownership <- 1
	.loc	1 167 3 is_stmt 1       # CoinGame.c:167:3
	movl	$16, %esi
	movq	%rax, %rdi
.Ltmp34:
	#DEBUG_VALUE: play:_38 <- [%RSP+8]
	callq	printf_s
.Ltmp35:
	movb	$1, %al
	movq	%rax, 56(%rsp)          # 8-byte Spill
	jmp	.LBB0_10
	.p2align	4, 0x90
.LBB0_4:                                # %if.end13
                                        #   in Loop: Header=BB0_3 Depth=1
.Ltmp36:
	.loc	1 149 3                 # CoinGame.c:149:3
	movq	48(%rsp), %rax          # 8-byte Reload
	testb	$1, %al
	je	.LBB0_6
# BB#5:                                 # %if.then14
                                        #   in Loop: Header=BB0_3 Depth=1
.Ltmp37:
	.loc	1 149 3 is_stmt 0 discriminator 1 # CoinGame.c:149:3
	movq	(%rsp), %rdi            # 8-byte Reload
	callq	free
.Ltmp38:
	#DEBUG_VALUE: play:_35_has_ownership <- 0
.LBB0_6:                                # %if.end15
                                        #   in Loop: Header=BB0_3 Depth=1
	#DEBUG_VALUE: play:_35_size <- 18
	.loc	1 150 3 is_stmt 1       # CoinGame.c:150:3
	movl	$144, %edi
	callq	malloc
.Ltmp39:
	#DEBUG_VALUE: play:_35 <- %RAX
	.loc	1 151 10                # CoinGame.c:151:10
	movq	%rax, (%rsp)            # 8-byte Spill
	movaps	.LCPI0_0(%rip), %xmm0   # xmm0 = [65,108]
	movups	%xmm0, (%rax)
	.loc	1 151 37 is_stmt 0      # CoinGame.c:151:37
	movaps	.LCPI0_1(%rip), %xmm0   # xmm0 = [105,99]
	movups	%xmm0, 16(%rax)
	.loc	1 151 64                # CoinGame.c:151:64
	movaps	.LCPI0_2(%rip), %xmm0   # xmm0 = [101,32]
	movups	%xmm0, 32(%rax)
	.loc	1 164 63 is_stmt 1      # CoinGame.c:164:63
	movaps	.LCPI0_3(%rip), %xmm0   # xmm0 = [116,97]
	.loc	1 151 91                # CoinGame.c:151:91
	movups	%xmm0, 48(%rax)
	.loc	1 164 90                # CoinGame.c:164:90
	movaps	.LCPI0_4(%rip), %xmm0   # xmm0 = [107,101]
	.loc	1 151 118               # CoinGame.c:151:118
	movups	%xmm0, 64(%rax)
	.loc	1 164 118               # CoinGame.c:164:118
	movaps	.LCPI0_5(%rip), %xmm0   # xmm0 = [32,99]
	.loc	1 151 147               # CoinGame.c:151:147
	movups	%xmm0, 80(%rax)
	.loc	1 164 145               # CoinGame.c:164:145
	movaps	.LCPI0_6(%rip), %xmm0   # xmm0 = [111,105]
	.loc	1 151 175               # CoinGame.c:151:175
	movups	%xmm0, 96(%rax)
	.loc	1 164 175               # CoinGame.c:164:175
	movaps	.LCPI0_7(%rip), %xmm0   # xmm0 = [110,32]
	.loc	1 151 205               # CoinGame.c:151:205
	movups	%xmm0, 112(%rax)
	.loc	1 164 204               # CoinGame.c:164:204
	movaps	.LCPI0_8(%rip), %xmm0   # xmm0 = [40,32]
	.loc	1 151 234               # CoinGame.c:151:234
	movups	%xmm0, 128(%rax)
.Ltmp40:
	#DEBUG_VALUE: play:_35_has_ownership <- 1
	.loc	1 154 3                 # CoinGame.c:154:3
	movl	$18, %esi
	movq	%rax, %rdi
.Ltmp41:
	#DEBUG_VALUE: play:_35 <- [%RSP+0]
	callq	printf_s
.Ltmp42:
	movb	$1, %al
	.loc	1 156 3                 # CoinGame.c:156:3
	movq	%rax, 48(%rsp)          # 8-byte Spill
.LBB0_10:                               # %blklab5
                                        #   in Loop: Header=BB0_3 Depth=1
	.loc	1 173 3                 # CoinGame.c:173:3
	movl	$.L.str, %edi
	xorl	%eax, %eax
	movq	%r13, %rsi
	callq	printf
	.loc	1 177 3                 # CoinGame.c:177:3
	testb	$1, %r14b
	je	.LBB0_12
# BB#11:                                # %if.then56
                                        #   in Loop: Header=BB0_3 Depth=1
.Ltmp43:
	.loc	1 177 3 is_stmt 0 discriminator 1 # CoinGame.c:177:3
	movq	24(%rsp), %rdi          # 8-byte Reload
	callq	free
.Ltmp44:
	#DEBUG_VALUE: play:_43_has_ownership <- 0
.LBB0_12:                               # %if.end57
                                        #   in Loop: Header=BB0_3 Depth=1
	#DEBUG_VALUE: play:_43_size <- 3
	.loc	1 178 3 is_stmt 1       # CoinGame.c:178:3
	movl	$24, %edi
	callq	malloc
.Ltmp45:
	#DEBUG_VALUE: play:_43 <- %RAX
	.loc	1 179 10                # CoinGame.c:179:10
	movq	%rax, 24(%rsp)          # 8-byte Spill
	movaps	.LCPI0_11(%rip), %xmm0  # xmm0 = [32,44]
	movups	%xmm0, (%rax)
	.loc	1 179 36 is_stmt 0      # CoinGame.c:179:36
	movq	$32, 16(%rax)
.Ltmp46:
	#DEBUG_VALUE: play:_43_has_ownership <- 1
	.loc	1 182 3 is_stmt 1       # CoinGame.c:182:3
	movl	$3, %esi
	movq	%rax, %rdi
.Ltmp47:
	#DEBUG_VALUE: play:_43 <- [%RSP+24]
	callq	printf_s
.Ltmp48:
	.loc	1 186 3                 # CoinGame.c:186:3
	movl	$.L.str, %edi
	xorl	%eax, %eax
	movq	%rbp, %rsi
	callq	printf
	.loc	1 190 3                 # CoinGame.c:190:3
	testb	$1, %r14b
	je	.LBB0_14
# BB#13:                                # %if.then64
                                        #   in Loop: Header=BB0_3 Depth=1
.Ltmp49:
	.loc	1 190 3 is_stmt 0 discriminator 1 # CoinGame.c:190:3
	movq	32(%rsp), %rdi          # 8-byte Reload
	callq	free
.Ltmp50:
	#DEBUG_VALUE: play:_48_has_ownership <- 0
.LBB0_14:                               # %if.end65
                                        #   in Loop: Header=BB0_3 Depth=1
	#DEBUG_VALUE: play:_48_size <- 2
	.loc	1 191 3 is_stmt 1       # CoinGame.c:191:3
	movl	$16, %edi
	callq	malloc
	movq	%rax, %rbx
.Ltmp51:
	#DEBUG_VALUE: play:_48 <- %RBX
	.loc	1 192 10                # CoinGame.c:192:10
	movaps	.LCPI0_12(%rip), %xmm0  # xmm0 = [32,41]
	movups	%xmm0, (%rbx)
.Ltmp52:
	#DEBUG_VALUE: play:_48_has_ownership <- 1
	.loc	1 195 3                 # CoinGame.c:195:3
	movl	$2, %esi
	movq	%rbx, %rdi
	callq	printf_s
	testq	%r15, %r15
	#DEBUG_VALUE: play:_51 <- 0
.Ltmp53:
	#DEBUG_VALUE: play:_49 <- 2
	je	.LBB0_15
.Ltmp54:
# BB#18:                                # %polly.split_new_and_old393
                                        #   in Loop: Header=BB0_3 Depth=1
	#DEBUG_VALUE: play:_48 <- %RBX
	movq	72(%rsp), %rax          # 8-byte Reload
	testb	$1, %al
	movq	112(%rsp), %r15         # 8-byte Reload
	je	.LBB0_20
.Ltmp55:
# BB#19:                                # %if.then82
                                        #   in Loop: Header=BB0_3 Depth=1
	#DEBUG_VALUE: play:_48 <- %RBX
	.loc	1 228 3 discriminator 1 # CoinGame.c:228:3
	movq	16(%rsp), %rdi          # 8-byte Reload
	callq	free
.Ltmp56:
	#DEBUG_VALUE: play:_59_has_ownership <- 0
.LBB0_20:                               # %if.end83
                                        #   in Loop: Header=BB0_3 Depth=1
	#DEBUG_VALUE: play:_48 <- %RBX
	#DEBUG_VALUE: play:_59_size <- 1
	movq	%rbx, 32(%rsp)          # 8-byte Spill
	addq	%rbp, 104(%rsp)         # 8-byte Folded Spill
	.loc	1 229 3                 # CoinGame.c:229:3
	movl	$8, %edi
	callq	malloc
.Ltmp57:
	#DEBUG_VALUE: play:_59 <- %RAX
	.loc	1 230 10                # CoinGame.c:230:10
	movq	%rax, 16(%rsp)          # 8-byte Spill
	movq	$32, (%rax)
.Ltmp58:
	#DEBUG_VALUE: play:_59_has_ownership <- 1
	.loc	1 233 3                 # CoinGame.c:233:3
	movl	$1, %esi
	movq	%rax, %rdi
.Ltmp59:
	#DEBUG_VALUE: play:_59 <- [%RSP+16]
	callq	println_s
.Ltmp60:
	movb	$1, %al
	movq	%rax, 72(%rsp)          # 8-byte Spill
	jmp	.LBB0_21
.Ltmp61:
	.p2align	4, 0x90
.LBB0_15:                               # %polly.split_new_and_old
                                        #   in Loop: Header=BB0_3 Depth=1
	#DEBUG_VALUE: play:_48 <- %RBX
	movq	64(%rsp), %rax          # 8-byte Reload
	testb	$1, %al
	movq	112(%rsp), %r15         # 8-byte Reload
	je	.LBB0_17
.Ltmp62:
# BB#16:                                # %if.then75
                                        #   in Loop: Header=BB0_3 Depth=1
	#DEBUG_VALUE: play:_48 <- %RBX
	.loc	1 211 3 discriminator 1 # CoinGame.c:211:3
	movq	40(%rsp), %rdi          # 8-byte Reload
	callq	free
.Ltmp63:
	#DEBUG_VALUE: play:_55_has_ownership <- 0
.LBB0_17:                               # %if.end76
                                        #   in Loop: Header=BB0_3 Depth=1
	#DEBUG_VALUE: play:_48 <- %RBX
	#DEBUG_VALUE: play:_55_size <- 2
	movq	%rbx, 32(%rsp)          # 8-byte Spill
	addq	%rbp, 96(%rsp)          # 8-byte Folded Spill
	.loc	1 212 3                 # CoinGame.c:212:3
	movl	$16, %edi
	callq	malloc
.Ltmp64:
	#DEBUG_VALUE: play:_55 <- %RAX
	.loc	1 213 10                # CoinGame.c:213:10
	movq	%rax, 40(%rsp)          # 8-byte Spill
	movaps	.LCPI0_13(%rip), %xmm0  # xmm0 = [44,32]
	movups	%xmm0, (%rax)
.Ltmp65:
	#DEBUG_VALUE: play:_55_has_ownership <- 1
	.loc	1 216 3                 # CoinGame.c:216:3
	movl	$2, %esi
	movq	%rax, %rdi
.Ltmp66:
	#DEBUG_VALUE: play:_55 <- [%RSP+40]
	callq	printf_s
.Ltmp67:
	movb	$1, %al
	.loc	1 218 3                 # CoinGame.c:218:3
	movq	%rax, 64(%rsp)          # 8-byte Spill
.Ltmp68:
.LBB0_21:                               # %blklab7
                                        #   in Loop: Header=BB0_3 Depth=1
	#DEBUG_VALUE: play:_48 <- %RBX
	.loc	1 115 6                 # CoinGame.c:115:6
	subq	120(%rsp), %r12         # 8-byte Folded Reload
.Ltmp69:
	#DEBUG_VALUE: play:_60 <- 1
	#DEBUG_VALUE: play:coin <- %R12
	.loc	1 239 8                 # CoinGame.c:239:8
	incq	%r13
.Ltmp70:
	#DEBUG_VALUE: play:_61 <- %R13
	#DEBUG_VALUE: play:i <- %R13
	movb	$1, %r14b
	.loc	1 89 6                  # CoinGame.c:89:6
	cmpq	%r13, %r15
	movq	128(%rsp), %rbp         # 8-byte Reload
	jne	.LBB0_3
.Ltmp71:
# BB#22:                                # %blklab0
	#DEBUG_VALUE: play:_48 <- %RBX
	#DEBUG_VALUE: play:i <- %R13
	#DEBUG_VALUE: play:_61 <- %R13
	#DEBUG_VALUE: play:coin <- %R12
	movb	$1, %r14b
	movq	104(%rsp), %r15         # 8-byte Reload
.Ltmp72:
	.loc	1 250 6                 # CoinGame.c:250:6
	cmpq	%r15, 96(%rsp)          # 8-byte Folded Reload
	movl	92(%rsp), %ebx          # 4-byte Reload
.Ltmp73:
	movq	40(%rsp), %r12          # 8-byte Reload
.Ltmp74:
	movq	72(%rsp), %r13          # 8-byte Reload
.Ltmp75:
	jge	.LBB0_23
# BB#36:                                # %if.end89
	.loc	1 252 11                # CoinGame.c:252:11
	movq	stderr(%rip), %rcx
	.loc	1 252 3 is_stmt 0       # CoinGame.c:252:3
	movl	$.L.str.1, %edi
	movl	$4, %esi
	movl	$1, %edx
	callq	fwrite
	.loc	1 253 3 is_stmt 1       # CoinGame.c:253:3
	movl	$-1, %edi
	callq	exit
.Ltmp76:
.LBB0_1:
	#DEBUG_VALUE: play:moves <- [%RSP+80]
	#DEBUG_VALUE: play:moves_has_ownership [bit_piece offset=0 size=1] <- %EBX
	#DEBUG_VALUE: play:n <- %R15
	#DEBUG_VALUE: play:moves_size <- %RDX
	#DEBUG_VALUE: play:sys <- %RDI
	xorl	%eax, %eax
	movq	%rax, (%rsp)            # 8-byte Spill
	xorl	%eax, %eax
	movq	%rax, 48(%rsp)          # 8-byte Spill
	xorl	%eax, %eax
	movq	%rax, 8(%rsp)           # 8-byte Spill
	xorl	%eax, %eax
	movq	%rax, 56(%rsp)          # 8-byte Spill
	xorl	%eax, %eax
	movq	%rax, 24(%rsp)          # 8-byte Spill
	xorl	%r14d, %r14d
	xorl	%eax, %eax
	movq	%rax, 32(%rsp)          # 8-byte Spill
	xorl	%r12d, %r12d
	xorl	%eax, %eax
	movq	%rax, 64(%rsp)          # 8-byte Spill
	xorl	%eax, %eax
	movq	%rax, 16(%rsp)          # 8-byte Spill
	xorl	%r13d, %r13d
	xorl	%r15d, %r15d
.Ltmp77:
.LBB0_23:                               # %if.end93
	#DEBUG_VALUE: play:moves_has_ownership [bit_piece offset=0 size=1] <- %BL
	#DEBUG_VALUE: play:_64_size <- 48
	.loc	1 262 2                 # CoinGame.c:262:2
	movl	$384, %edi              # imm = 0x180
	callq	malloc
	movq	%rax, %rbp
.Ltmp78:
	#DEBUG_VALUE: play:_64 <- %RBP
	.loc	1 263 9                 # CoinGame.c:263:9
	movaps	.LCPI0_14(%rip), %xmm0  # xmm0 = [84,104]
	movups	%xmm0, (%rbp)
	.loc	1 263 36 is_stmt 0      # CoinGame.c:263:36
	movaps	.LCPI0_2(%rip), %xmm0   # xmm0 = [101,32]
	movups	%xmm0, 16(%rbp)
	.loc	1 263 63                # CoinGame.c:263:63
	movaps	.LCPI0_15(%rip), %xmm0  # xmm0 = [116,111]
	movups	%xmm0, 32(%rbp)
	.loc	1 263 91                # CoinGame.c:263:91
	movaps	.LCPI0_3(%rip), %xmm0   # xmm0 = [116,97]
	movups	%xmm0, 48(%rbp)
	.loc	1 263 118               # CoinGame.c:263:118
	movaps	.LCPI0_16(%rip), %xmm0  # xmm0 = [108,32]
	movups	%xmm0, 64(%rbp)
	.loc	1 263 146               # CoinGame.c:263:146
	movaps	.LCPI0_17(%rip), %xmm0  # xmm0 = [97,109]
	movups	%xmm0, 80(%rbp)
	.loc	1 263 175               # CoinGame.c:263:175
	movaps	.LCPI0_18(%rip), %xmm0  # xmm0 = [111,117]
	movups	%xmm0, 96(%rbp)
	.loc	1 263 205               # CoinGame.c:263:205
	movaps	.LCPI0_19(%rip), %xmm0  # xmm0 = [110,116]
	movups	%xmm0, 112(%rbp)
	.loc	1 263 235               # CoinGame.c:263:235
	movaps	.LCPI0_20(%rip), %xmm0  # xmm0 = [32,111]
	movups	%xmm0, 128(%rbp)
	.loc	1 263 264               # CoinGame.c:263:264
	movaps	.LCPI0_21(%rip), %xmm0  # xmm0 = [102,32]
	movups	%xmm0, 144(%rbp)
	.loc	1 263 293               # CoinGame.c:263:293
	movaps	.LCPI0_22(%rip), %xmm0  # xmm0 = [109,111]
	movups	%xmm0, 160(%rbp)
	.loc	1 263 323               # CoinGame.c:263:323
	movaps	.LCPI0_23(%rip), %xmm0  # xmm0 = [110,101]
	movups	%xmm0, 176(%rbp)
	.loc	1 263 353               # CoinGame.c:263:353
	movaps	.LCPI0_24(%rip), %xmm0  # xmm0 = [121,32]
	movups	%xmm0, 192(%rbp)
	.loc	1 263 382               # CoinGame.c:263:382
	movaps	.LCPI0_25(%rip), %xmm0  # xmm0 = [40,109]
	movups	%xmm0, 208(%rbp)
	.loc	1 263 411               # CoinGame.c:263:411
	movaps	.LCPI0_26(%rip), %xmm0  # xmm0 = [97,120]
	movups	%xmm0, 224(%rbp)
	.loc	1 263 440               # CoinGame.c:263:440
	movaps	.LCPI0_27(%rip), %xmm0  # xmm0 = [105,109]
	movups	%xmm0, 240(%rbp)
	.loc	1 263 470               # CoinGame.c:263:470
	movaps	.LCPI0_28(%rip), %xmm0  # xmm0 = [117,109]
	movups	%xmm0, 256(%rbp)
	.loc	1 263 500               # CoinGame.c:263:500
	movaps	.LCPI0_29(%rip), %xmm0  # xmm0 = [41,32]
	movups	%xmm0, 272(%rbp)
	.loc	1 263 528               # CoinGame.c:263:528
	movaps	.LCPI0_9(%rip), %xmm0   # xmm0 = [66,111]
	movups	%xmm0, 288(%rbp)
	.loc	1 263 557               # CoinGame.c:263:557
	movaps	.LCPI0_10(%rip), %xmm0  # xmm0 = [98,32]
	movups	%xmm0, 304(%rbp)
	.loc	1 263 585               # CoinGame.c:263:585
	movaps	.LCPI0_30(%rip), %xmm0  # xmm0 = [103,101]
	movups	%xmm0, 320(%rbp)
	.loc	1 263 615               # CoinGame.c:263:615
	movaps	.LCPI0_31(%rip), %xmm0  # xmm0 = [116,115]
	movups	%xmm0, 336(%rbp)
	.loc	1 263 645               # CoinGame.c:263:645
	movaps	.LCPI0_32(%rip), %xmm0  # xmm0 = [32,105]
	movups	%xmm0, 352(%rbp)
	.loc	1 263 674               # CoinGame.c:263:674
	movaps	.LCPI0_33(%rip), %xmm0  # xmm0 = [115,32]
	movups	%xmm0, 368(%rbp)
.Ltmp79:
	#DEBUG_VALUE: play:_64_has_ownership <- 1
	.loc	1 266 2 is_stmt 1       # CoinGame.c:266:2
	movl	$48, %esi
	movq	%rbp, %rdi
	callq	printf_s
	.loc	1 270 2                 # CoinGame.c:270:2
	movl	$.L.str.2, %edi
	xorl	%eax, %eax
	movq	%r15, %rsi
	callq	printf
	.loc	1 272 2                 # CoinGame.c:272:2
	testb	%bl, %bl
	je	.LBB0_25
.Ltmp80:
# BB#24:                                # %if.then145
	#DEBUG_VALUE: play:_64 <- %RBP
	#DEBUG_VALUE: play:moves_has_ownership [bit_piece offset=0 size=1] <- %BL
	.loc	1 272 2 is_stmt 0 discriminator 1 # CoinGame.c:272:2
	movq	80(%rsp), %rdi          # 8-byte Reload
	callq	free
.Ltmp81:
	#DEBUG_VALUE: play:moves_has_ownership <- 0
.LBB0_25:                               # %if.end146
	#DEBUG_VALUE: play:_64 <- %RBP
	.loc	1 273 2 is_stmt 1       # CoinGame.c:273:2
	movq	48(%rsp), %rax          # 8-byte Reload
	testb	$1, %al
	je	.LBB0_27
.Ltmp82:
# BB#26:                                # %if.then148
	#DEBUG_VALUE: play:_64 <- %RBP
	.loc	1 273 2 is_stmt 0 discriminator 1 # CoinGame.c:273:2
	movq	(%rsp), %rdi            # 8-byte Reload
	callq	free
.Ltmp83:
	#DEBUG_VALUE: play:_35_has_ownership <- 0
.LBB0_27:                               # %if.end149
	#DEBUG_VALUE: play:_64 <- %RBP
	.loc	1 274 2 is_stmt 1       # CoinGame.c:274:2
	movq	56(%rsp), %rax          # 8-byte Reload
	testb	$1, %al
	je	.LBB0_29
.Ltmp84:
# BB#28:                                # %if.then151
	#DEBUG_VALUE: play:_64 <- %RBP
	.loc	1 274 2 is_stmt 0 discriminator 1 # CoinGame.c:274:2
	movq	8(%rsp), %rdi           # 8-byte Reload
	callq	free
.Ltmp85:
	#DEBUG_VALUE: play:_38_has_ownership <- 0
.LBB0_29:                               # %if.end152
	#DEBUG_VALUE: play:_64 <- %RBP
	.loc	1 275 2 is_stmt 1       # CoinGame.c:275:2
	testb	%r14b, %r14b
	je	.LBB0_31
.Ltmp86:
# BB#30:                                # %if.then154
	#DEBUG_VALUE: play:_64 <- %RBP
	.loc	1 275 2 is_stmt 0 discriminator 1 # CoinGame.c:275:2
	movq	24(%rsp), %rdi          # 8-byte Reload
	callq	free
.Ltmp87:
	#DEBUG_VALUE: play:_43_has_ownership <- 0
	.loc	1 276 2 is_stmt 1 discriminator 1 # CoinGame.c:276:2
	movq	32(%rsp), %rdi          # 8-byte Reload
	callq	free
.Ltmp88:
	#DEBUG_VALUE: play:_48_has_ownership <- 0
.LBB0_31:                               # %if.end158
	#DEBUG_VALUE: play:_64 <- %RBP
	.loc	1 277 2                 # CoinGame.c:277:2
	movq	64(%rsp), %rax          # 8-byte Reload
	testb	$1, %al
	je	.LBB0_33
.Ltmp89:
# BB#32:                                # %if.then160
	#DEBUG_VALUE: play:_64 <- %RBP
	.loc	1 277 2 is_stmt 0 discriminator 1 # CoinGame.c:277:2
	movq	%r12, %rdi
	callq	free
.Ltmp90:
	#DEBUG_VALUE: play:_55_has_ownership <- 0
.LBB0_33:                               # %if.end161
	#DEBUG_VALUE: play:_64 <- %RBP
	.loc	1 278 2 is_stmt 1       # CoinGame.c:278:2
	testb	$1, %r13b
	je	.LBB0_35
.Ltmp91:
# BB#34:                                # %if.then163
	#DEBUG_VALUE: play:_64 <- %RBP
	.loc	1 278 2 is_stmt 0 discriminator 1 # CoinGame.c:278:2
	movq	16(%rsp), %rdi          # 8-byte Reload
	callq	free
.Ltmp92:
	#DEBUG_VALUE: play:_59_has_ownership <- 0
.LBB0_35:                               # %if.then166
	#DEBUG_VALUE: play:_64 <- %RBP
	.loc	1 279 2 is_stmt 1 discriminator 1 # CoinGame.c:279:2
	movq	%rbp, %rdi
	addq	$136, %rsp
	popq	%rbx
	popq	%r12
	popq	%r13
	popq	%r14
	popq	%r15
	popq	%rbp
.Ltmp93:
	jmp	free                    # TAILCALL
.Ltmp94:
.Lfunc_end0:
	.size	play, .Lfunc_end0-play
	.cfi_endproc

	.globl	findMoves
	.p2align	4, 0x90
	.type	findMoves,@function
findMoves:                              # @findMoves
.Lfunc_begin1:
	.loc	1 283 0                 # CoinGame.c:283:0
	.cfi_startproc
# BB#0:                                 # %entry
	pushq	%rbp
.Ltmp95:
	.cfi_def_cfa_offset 16
	pushq	%r15
.Ltmp96:
	.cfi_def_cfa_offset 24
	pushq	%r14
.Ltmp97:
	.cfi_def_cfa_offset 32
	pushq	%r13
.Ltmp98:
	.cfi_def_cfa_offset 40
	pushq	%r12
.Ltmp99:
	.cfi_def_cfa_offset 48
	pushq	%rbx
.Ltmp100:
	.cfi_def_cfa_offset 56
.Ltmp101:
	.cfi_offset %rbx, -56
.Ltmp102:
	.cfi_offset %r12, -48
.Ltmp103:
	.cfi_offset %r13, -40
.Ltmp104:
	.cfi_offset %r14, -32
.Ltmp105:
	.cfi_offset %r15, -24
.Ltmp106:
	.cfi_offset %rbp, -16
	movabsq	$9223372036854775807, %r10 # imm = 0x7FFFFFFFFFFFFFFF
	xorl	%r9d, %r9d
	cmpq	%r10, %rcx
	jne	.LBB1_16
# BB#1:
	movq	%r10, %r8
	.p2align	4, 0x90
.LBB1_2:                                # %while.cond1.preheader
                                        # =>This Loop Header: Depth=1
                                        #     Child Loop BB1_3 Depth 2
	movq	%r9, %rsi
	xorl	%ebx, %ebx
	.p2align	4, 0x90
.LBB1_3:                                # %if.end5
                                        #   Parent Loop BB1_2 Depth=1
                                        # =>  This Inner Loop Header: Depth=2
.Ltmp107:
	#DEBUG_VALUE: findMoves:_11 <- 0
	#DEBUG_VALUE: findMoves:y <- 0
	#DEBUG_VALUE: findMoves:_12 <- 1
	.loc	1 296 12 prologue_end   # CoinGame.c:296:12
	leaq	(%r9,%rbx), %rbp
.Ltmp108:
	.loc	1 365 10                # CoinGame.c:365:10
	leaq	(%rbx,%r10), %rax
.Ltmp109:
	.loc	1 373 10                # CoinGame.c:373:10
	testq	%rbp, %rbp
.Ltmp110:
	#DEBUG_VALUE: findMoves:_16 <- 0
	#DEBUG_VALUE: findMoves:_14 <- 1
	jle	.LBB1_4
.Ltmp111:
# BB#5:                                 # %if.end5
                                        #   in Loop: Header=BB1_3 Depth=2
	cmpq	$-3, %rax
	movl	$0, %ecx
	je	.LBB1_7
# BB#6:                                 # %if.end11
                                        #   in Loop: Header=BB1_3 Depth=2
.Ltmp112:
	#DEBUG_VALUE: findMoves:_17 <- 1
	#DEBUG_VALUE: findMoves:_21 <- 1
	.loc	1 387 8                 # CoinGame.c:387:8
	leaq	(%rsi,%r10), %rcx
	movq	-8(%rdi,%rcx,8), %rcx
.Ltmp113:
	#DEBUG_VALUE: findMoves:_23 <- %RCX
	#DEBUG_VALUE: findMoves:y <- %RCX
	jmp	.LBB1_7
.Ltmp114:
	.p2align	4, 0x90
.LBB1_4:                                #   in Loop: Header=BB1_3 Depth=2
	xorl	%ecx, %ecx
.LBB1_7:                                # %blklab13
                                        #   in Loop: Header=BB1_3 Depth=2
.Ltmp115:
	#DEBUG_VALUE: findMoves:_24 <- 0
	#DEBUG_VALUE: findMoves:x <- 0
	#DEBUG_VALUE: findMoves:_25 <- 2
	.loc	1 401 10                # CoinGame.c:401:10
	cmpq	$-4, %rax
	movl	$0, %eax
	je	.LBB1_9
.Ltmp116:
# BB#8:                                 # %if.end18
                                        #   in Loop: Header=BB1_3 Depth=2
	#DEBUG_VALUE: findMoves:_27 <- 2
	.loc	1 411 8                 # CoinGame.c:411:8
	movq	-16(%rdi,%rsi,8), %rax
.Ltmp117:
	#DEBUG_VALUE: findMoves:_31 <- %RAX
	#DEBUG_VALUE: findMoves:x <- %RAX
.LBB1_9:                                # %blklab14
                                        #   in Loop: Header=BB1_3 Depth=2
	.loc	1 363 9                 # CoinGame.c:363:9
	leaq	1(%rbx), %r11
.Ltmp118:
	#DEBUG_VALUE: findMoves:_35 <- 0
	#DEBUG_VALUE: findMoves:_33 <- 1
	#DEBUG_VALUE: findMoves:z <- 0
	#DEBUG_VALUE: findMoves:_32 <- 0
	#DEBUG_VALUE: findMoves:_13 <- %R11
	#DEBUG_VALUE: findMoves:_18 <- %R11
	#DEBUG_VALUE: findMoves:_52 <- %R11
	#DEBUG_VALUE: findMoves:i <- %R11
	.loc	1 427 10                # CoinGame.c:427:10
	cmpq	$2, %rbp
	movl	$0, %edx
	jl	.LBB1_11
.Ltmp119:
# BB#10:                                # %if.end26
                                        #   in Loop: Header=BB1_3 Depth=2
	#DEBUG_VALUE: findMoves:i <- %R11
	#DEBUG_VALUE: findMoves:_52 <- %R11
	#DEBUG_VALUE: findMoves:_18 <- %R11
	#DEBUG_VALUE: findMoves:_13 <- %R11
	#DEBUG_VALUE: findMoves:_38 <- 2
	.loc	1 437 8                 # CoinGame.c:437:8
	movq	-16(%rdi,%rsi,8), %rdx
.Ltmp120:
	#DEBUG_VALUE: findMoves:_40 <- %RDX
	#DEBUG_VALUE: findMoves:z <- %RDX
.LBB1_11:                               # %blklab15
                                        #   in Loop: Header=BB1_3 Depth=2
	#DEBUG_VALUE: findMoves:i <- %R11
	#DEBUG_VALUE: findMoves:_52 <- %R11
	#DEBUG_VALUE: findMoves:_18 <- %R11
	#DEBUG_VALUE: findMoves:_13 <- %R11
	#DEBUG_VALUE: findMoves:x <- %RCX
	.loc	1 459 10                # CoinGame.c:459:10
	notq	%rcx
.Ltmp121:
	notq	%rax
	cmpq	%rax, %rcx
	cmovgeq	%rcx, %rax
	negq	%rax
	leaq	-1(%rbx,%rax), %rax
	notq	%rdx
	cmpq	%rdx, %rcx
	cmovgeq	%rcx, %rdx
	subq	%rdx, %rbp
	decq	%rbp
	cmpq	%rbp, %rax
.Ltmp122:
	.loc	1 469 4                 # CoinGame.c:469:4
	cmovgeq	%rax, %rbp
.Ltmp123:
	#DEBUG_VALUE: findMoves:_51 <- 1
	#DEBUG_VALUE: findMoves:_49 <- 1
	.loc	1 467 15                # CoinGame.c:467:15
	movq	%rbp, (%rdi,%rsi,8)
	.loc	1 355 7                 # CoinGame.c:355:7
	leaq	1(%rsi,%r10), %rsi
	cmpq	%r11, %r8
	movq	%r11, %rbx
	jne	.LBB1_3
.Ltmp124:
# BB#12:                                # %blklab11
                                        #   in Loop: Header=BB1_2 Depth=1
	#DEBUG_VALUE: findMoves:_13 <- %R11
	#DEBUG_VALUE: findMoves:_18 <- %R11
	#DEBUG_VALUE: findMoves:_52 <- %R11
	#DEBUG_VALUE: findMoves:i <- %R11
	#DEBUG_VALUE: findMoves:_53 <- 1
	.loc	1 502 8                 # CoinGame.c:502:8
	incq	%r9
.Ltmp125:
	#DEBUG_VALUE: findMoves:s <- %R9
	#DEBUG_VALUE: findMoves:_54 <- %R9
	.loc	1 345 6                 # CoinGame.c:345:6
	decq	%r8
	cmpq	%r10, %r9
	jne	.LBB1_2
	jmp	.LBB1_13
.Ltmp126:
.LBB1_16:                               # %polly.loop_if
	.loc	1 345 7 is_stmt 0       # CoinGame.c:345:7
	testq	%rcx, %rcx
	jle	.LBB1_13
.Ltmp127:
# BB#17:                                # %polly.loop_preheader
	leaq	-8(%rdi,%rcx,8), %rax
	movq	%rax, -8(%rsp)          # 8-byte Spill
	leaq	8(,%rcx,8), %r10
	movq	%rcx, %rax
	shlq	$4, %rax
	addq	%rdi, %rax
	movq	%rax, -16(%rsp)         # 8-byte Spill
	leaq	-16(%rdi), %rax
	movq	%rax, -24(%rsp)         # 8-byte Spill
	xorl	%r14d, %r14d
	.p2align	4, 0x90
.LBB1_14:                               # %polly.loop_header
                                        # =>This Loop Header: Depth=1
                                        #     Child Loop BB1_18 Depth 2
                                        #     Child Loop BB1_25 Depth 2
	movq	%rcx, %r9
	subq	%r14, %r9
	jle	.LBB1_15
# BB#24:                                # %polly.loop_preheader158
                                        #   in Loop: Header=BB1_14 Depth=1
	movq	-8(%rsp), %rax          # 8-byte Reload
	leaq	(%rax,%r14,8), %rax
	movq	%rax, -40(%rsp)         # 8-byte Spill
	movq	-16(%rsp), %rax         # 8-byte Reload
	leaq	(%rax,%r14,8), %rax
	movq	%rax, -56(%rsp)         # 8-byte Spill
	movq	-24(%rsp), %rax         # 8-byte Reload
	leaq	(%rax,%r14,8), %rax
	movq	%rax, -64(%rsp)         # 8-byte Spill
	leaq	(%rdi,%r14,8), %rax
	movq	%rax, -48(%rsp)         # 8-byte Spill
	leaq	(%r14,%rcx), %rax
	movq	%rax, -32(%rsp)         # 8-byte Spill
	decq	%r9
	cmpq	$3, %rcx
	movl	$0, %ebx
	movl	$0, %ebp
	jl	.LBB1_18
	.p2align	4, 0x90
.LBB1_25:                               # %polly.loop_header157.us
                                        #   Parent Loop BB1_14 Depth=1
                                        # =>  This Inner Loop Header: Depth=2
	leaq	2(%rbp), %rax
	leaq	(%rbp,%r14), %rbx
	cmpq	%rcx, %rax
	jg	.LBB1_27
# BB#26:                                # %polly.loop_header157.us
                                        #   in Loop: Header=BB1_25 Depth=2
	testq	%rbx, %rbx
	jle	.LBB1_27
# BB#30:                                # %polly.cond168.thread.us
                                        #   in Loop: Header=BB1_25 Depth=2
	movq	%rbp, %rax
	imulq	%r10, %rax
	movq	-40(%rsp), %rdx         # 8-byte Reload
	movq	(%rdx,%rax), %r12
	testq	%rbp, %rbp
	sete	%r15b
	leaq	1(%rbp), %r8
	jmp	.LBB1_31
	.p2align	4, 0x90
.LBB1_27:                               # %polly.cond168.us
                                        #   in Loop: Header=BB1_25 Depth=2
	testq	%rbp, %rbp
	sete	%r15b
	leaq	1(%rbp), %r8
	cmpq	%rcx, %r8
	je	.LBB1_28
# BB#29:                                # %polly.cond168.us
                                        #   in Loop: Header=BB1_25 Depth=2
	testq	%rbp, %rbp
	movl	$0, %r12d
	jne	.LBB1_39
	jmp	.LBB1_31
.LBB1_28:                               #   in Loop: Header=BB1_25 Depth=2
	xorl	%r12d, %r12d
	.p2align	4, 0x90
.LBB1_31:                               # %polly.cond172.us
                                        #   in Loop: Header=BB1_25 Depth=2
	testq	%rbx, %rbx
	setg	%al
	leaq	3(%rbp), %rdx
	cmpq	%rcx, %rdx
	setle	%dl
	testb	%al, %dl
	jne	.LBB1_33
# BB#32:                                # %polly.cond172.us
                                        #   in Loop: Header=BB1_25 Depth=2
	movq	%rbp, %rax
	orq	%r14, %rax
	movl	$0, %eax
	jne	.LBB1_34
.LBB1_33:                               # %polly.stmt.if.end18.us
                                        #   in Loop: Header=BB1_25 Depth=2
	movq	%rbp, %rax
	imulq	%r10, %rax
	movq	-56(%rsp), %rdx         # 8-byte Reload
	movq	(%rdx,%rax), %rax
.LBB1_34:                               # %polly.cond182.us
                                        #   in Loop: Header=BB1_25 Depth=2
	cmpq	$2, %rbx
	movl	$0, %esi
	jl	.LBB1_36
# BB#35:                                # %polly.stmt.if.end26.us
                                        #   in Loop: Header=BB1_25 Depth=2
	movq	%rbp, %rdx
	imulq	%r10, %rdx
	movq	-64(%rsp), %rsi         # 8-byte Reload
	movq	(%rsi,%rdx), %rsi
.LBB1_36:                               # %polly.cond192.us
                                        #   in Loop: Header=BB1_25 Depth=2
	testq	%rbx, %rbx
	setg	%r11b
	cmpq	$2, -32(%rsp)           # 8-byte Folded Reload
	setg	%dl
	cmpq	$2, %rcx
	je	.LBB1_38
# BB#37:                                # %polly.cond192.us
                                        #   in Loop: Header=BB1_25 Depth=2
	andb	%r11b, %dl
	orb	%r15b, %dl
	je	.LBB1_39
.LBB1_38:                               # %polly.stmt.blklab15.us
                                        #   in Loop: Header=BB1_25 Depth=2
.Ltmp128:
	.loc	1 443 8 is_stmt 1       # CoinGame.c:443:8
	cmpq	%r12, %rax
.Ltmp129:
	.loc	1 443 7 is_stmt 0       # CoinGame.c:443:7
	cmovgq	%r12, %rax
.Ltmp130:
	.loc	1 449 8 is_stmt 1       # CoinGame.c:449:8
	cmpq	%r12, %rsi
.Ltmp131:
	.loc	1 449 7 is_stmt 0       # CoinGame.c:449:7
	cmovgq	%r12, %rsi
	.loc	1 455 9 is_stmt 1       # CoinGame.c:455:9
	addq	%rbp, %rax
	.loc	1 457 9                 # CoinGame.c:457:9
	addq	%rsi, %rbx
.Ltmp132:
	.loc	1 459 10                # CoinGame.c:459:10
	cmpq	%rbx, %rax
.Ltmp133:
	.loc	1 469 4                 # CoinGame.c:469:4
	cmovgeq	%rax, %rbx
	movq	%rbp, %rax
	imulq	%r10, %rax
	movq	-48(%rsp), %rdx         # 8-byte Reload
	movq	%rbx, (%rdx,%rax)
.LBB1_39:                               # %polly.merge169.us
                                        #   in Loop: Header=BB1_25 Depth=2
	cmpq	%r9, %rbp
	movq	%r8, %rbp
	jl	.LBB1_25
	jmp	.LBB1_15
	.p2align	4, 0x90
.LBB1_18:                               # %polly.loop_header157
                                        #   Parent Loop BB1_14 Depth=1
                                        # =>  This Inner Loop Header: Depth=2
	leaq	2(%rbx), %rax
	leaq	(%rbx,%r14), %rbp
	cmpq	%rcx, %rax
	jg	.LBB1_20
# BB#19:                                # %polly.loop_header157
                                        #   in Loop: Header=BB1_18 Depth=2
	testq	%rbp, %rbp
	jle	.LBB1_20
# BB#40:                                # %polly.cond168.thread
                                        #   in Loop: Header=BB1_18 Depth=2
	movq	%rbx, %rax
	imulq	%r10, %rax
	movq	-40(%rsp), %rdx         # 8-byte Reload
	movq	(%rdx,%rax), %r13
	testq	%rbx, %rbx
	sete	%r8b
	leaq	1(%rbx), %r11
	jmp	.LBB1_41
	.p2align	4, 0x90
.LBB1_20:                               # %polly.cond168
                                        #   in Loop: Header=BB1_18 Depth=2
	testq	%rbx, %rbx
	sete	%r8b
	leaq	1(%rbx), %r11
	cmpq	%rcx, %r11
	je	.LBB1_21
# BB#22:                                # %polly.cond168
                                        #   in Loop: Header=BB1_18 Depth=2
	testq	%rbx, %rbx
	movl	$0, %r13d
	jne	.LBB1_23
	jmp	.LBB1_41
.LBB1_21:                               #   in Loop: Header=BB1_18 Depth=2
	xorl	%r13d, %r13d
	.p2align	4, 0x90
.LBB1_41:                               # %polly.cond172
                                        #   in Loop: Header=BB1_18 Depth=2
	leaq	3(%rbx), %rax
	cmpq	%rcx, %rax
	jg	.LBB1_42
# BB#43:                                # %polly.cond172
                                        #   in Loop: Header=BB1_18 Depth=2
	testq	%rbp, %rbp
	movl	$0, %edx
	jle	.LBB1_44
# BB#48:                                # %polly.stmt.if.end18
                                        #   in Loop: Header=BB1_18 Depth=2
	movq	%rbx, %rax
	imulq	%r10, %rax
	movq	-56(%rsp), %rdx         # 8-byte Reload
	movq	(%rdx,%rax), %rdx
	jmp	.LBB1_44
.LBB1_42:                               #   in Loop: Header=BB1_18 Depth=2
	xorl	%edx, %edx
.LBB1_44:                               # %polly.cond182
                                        #   in Loop: Header=BB1_18 Depth=2
	cmpq	$1, %rbp
	movl	$0, %r15d
	jle	.LBB1_45
# BB#49:                                # %polly.stmt.if.end26
                                        #   in Loop: Header=BB1_18 Depth=2
	movq	%rbx, %rax
	imulq	%r10, %rax
	movq	-64(%rsp), %rsi         # 8-byte Reload
	movq	(%rsi,%rax), %r15
.LBB1_45:                               # %polly.cond192
                                        #   in Loop: Header=BB1_18 Depth=2
	cmpq	$2, -32(%rsp)           # 8-byte Folded Reload
	setg	%r12b
	testq	%rbp, %rbp
	setg	%al
	cmpq	$2, %rcx
	je	.LBB1_47
# BB#46:                                # %polly.cond192
                                        #   in Loop: Header=BB1_18 Depth=2
	andb	%al, %r12b
	orb	%r8b, %r12b
	je	.LBB1_23
.LBB1_47:                               # %polly.stmt.blklab15
                                        #   in Loop: Header=BB1_18 Depth=2
.Ltmp134:
	.loc	1 443 8                 # CoinGame.c:443:8
	cmpq	%r13, %rdx
.Ltmp135:
	.loc	1 443 7 is_stmt 0       # CoinGame.c:443:7
	cmovgq	%r13, %rdx
.Ltmp136:
	.loc	1 449 8 is_stmt 1       # CoinGame.c:449:8
	cmpq	%r13, %r15
.Ltmp137:
	.loc	1 449 7 is_stmt 0       # CoinGame.c:449:7
	cmovgq	%r13, %r15
	.loc	1 455 9 is_stmt 1       # CoinGame.c:455:9
	addq	%rbx, %rdx
	.loc	1 457 9                 # CoinGame.c:457:9
	addq	%r15, %rbp
.Ltmp138:
	.loc	1 459 10                # CoinGame.c:459:10
	cmpq	%rbp, %rdx
.Ltmp139:
	.loc	1 469 4                 # CoinGame.c:469:4
	cmovgeq	%rdx, %rbp
	movq	%rbx, %rax
	imulq	%r10, %rax
	movq	-48(%rsp), %rdx         # 8-byte Reload
	movq	%rbp, (%rdx,%rax)
.Ltmp140:
.LBB1_23:                               # %polly.merge169
                                        #   in Loop: Header=BB1_18 Depth=2
	cmpq	%r9, %rbx
	movq	%r11, %rbx
	jl	.LBB1_18
.LBB1_15:                               # %polly.loop_exit159
                                        #   in Loop: Header=BB1_14 Depth=1
	incq	%r14
	cmpq	%rcx, %r14
	jne	.LBB1_14
.LBB1_13:                               # %if.end54
	.loc	1 512 2                 # CoinGame.c:512:2
	movq	%rdi, %rax
	popq	%rbx
	popq	%r12
	popq	%r13
	popq	%r14
	popq	%r15
	popq	%rbp
	retq
.Ltmp141:
.Lfunc_end1:
	.size	findMoves, .Lfunc_end1-findMoves
	.cfi_endproc

	.section	.rodata.cst16,"aM",@progbits,16
	.p2align	4
.LCPI2_0:
	.quad	84                      # 0x54
	.quad	104                     # 0x68
.LCPI2_1:
	.quad	101                     # 0x65
	.quad	32                      # 0x20
.LCPI2_2:
	.quad	116                     # 0x74
	.quad	111                     # 0x6f
.LCPI2_3:
	.quad	116                     # 0x74
	.quad	97                      # 0x61
.LCPI2_4:
	.quad	108                     # 0x6c
	.quad	32                      # 0x20
.LCPI2_5:
	.quad	97                      # 0x61
	.quad	109                     # 0x6d
.LCPI2_6:
	.quad	111                     # 0x6f
	.quad	117                     # 0x75
.LCPI2_7:
	.quad	110                     # 0x6e
	.quad	116                     # 0x74
.LCPI2_8:
	.quad	32                      # 0x20
	.quad	111                     # 0x6f
.LCPI2_9:
	.quad	102                     # 0x66
	.quad	32                      # 0x20
.LCPI2_10:
	.quad	109                     # 0x6d
	.quad	111                     # 0x6f
.LCPI2_11:
	.quad	110                     # 0x6e
	.quad	101                     # 0x65
.LCPI2_12:
	.quad	121                     # 0x79
	.quad	32                      # 0x20
.LCPI2_13:
	.quad	40                      # 0x28
	.quad	109                     # 0x6d
.LCPI2_14:
	.quad	97                      # 0x61
	.quad	120                     # 0x78
.LCPI2_15:
	.quad	105                     # 0x69
	.quad	109                     # 0x6d
.LCPI2_16:
	.quad	117                     # 0x75
	.quad	109                     # 0x6d
.LCPI2_17:
	.quad	41                      # 0x29
	.quad	32                      # 0x20
.LCPI2_18:
	.quad	65                      # 0x41
	.quad	108                     # 0x6c
.LCPI2_19:
	.quad	105                     # 0x69
	.quad	99                      # 0x63
.LCPI2_20:
	.quad	103                     # 0x67
	.quad	101                     # 0x65
.LCPI2_21:
	.quad	116                     # 0x74
	.quad	115                     # 0x73
.LCPI2_22:
	.quad	32                      # 0x20
	.quad	105                     # 0x69
.LCPI2_23:
	.quad	115                     # 0x73
	.quad	32                      # 0x20
.LCPI2_24:
	.quad	80                      # 0x50
	.quad	97                      # 0x61
.LCPI2_25:
	.quad	115                     # 0x73
	.quad	115                     # 0x73
.LCPI2_26:
	.quad	32                      # 0x20
	.quad	67                      # 0x43
.LCPI2_27:
	.quad	111                     # 0x6f
	.quad	105                     # 0x69
.LCPI2_28:
	.quad	110                     # 0x6e
	.quad	71                      # 0x47
.LCPI2_29:
	.quad	116                     # 0x74
	.quad	101                     # 0x65
.LCPI2_30:
	.quad	115                     # 0x73
	.quad	116                     # 0x74
.LCPI2_31:
	.quad	32                      # 0x20
	.quad	99                      # 0x63
.LCPI2_32:
	.quad	97                      # 0x61
	.quad	115                     # 0x73
	.text
	.globl	main
	.p2align	4, 0x90
	.type	main,@function
main:                                   # @main
.Lfunc_begin2:
	.loc	1 516 0                 # CoinGame.c:516:0
	.cfi_startproc
# BB#0:                                 # %entry
	pushq	%rbp
.Ltmp142:
	.cfi_def_cfa_offset 16
	pushq	%r15
.Ltmp143:
	.cfi_def_cfa_offset 24
	pushq	%r14
.Ltmp144:
	.cfi_def_cfa_offset 32
	pushq	%r13
.Ltmp145:
	.cfi_def_cfa_offset 40
	pushq	%r12
.Ltmp146:
	.cfi_def_cfa_offset 48
	pushq	%rbx
.Ltmp147:
	.cfi_def_cfa_offset 56
	pushq	%rax
.Ltmp148:
	.cfi_def_cfa_offset 64
.Ltmp149:
	.cfi_offset %rbx, -56
.Ltmp150:
	.cfi_offset %r12, -48
.Ltmp151:
	.cfi_offset %r13, -40
.Ltmp152:
	.cfi_offset %r14, -32
.Ltmp153:
	.cfi_offset %r15, -24
.Ltmp154:
	.cfi_offset %rbp, -16
	#DEBUG_VALUE: main:argc <- %EDI
	#DEBUG_VALUE: main:args <- %RSI
	movl	%edi, %ebx
.Ltmp155:
	#DEBUG_VALUE: main:_23_has_ownership <- 0
	#DEBUG_VALUE: main:_23_size <- 0
	#DEBUG_VALUE: main:_18_has_ownership <- 0
	#DEBUG_VALUE: main:_18_size <- 0
	#DEBUG_VALUE: main:_15 <- 0
	#DEBUG_VALUE: main:_14 <- 0
	#DEBUG_VALUE: main:_13 <- 0
	#DEBUG_VALUE: main:_12_has_ownership <- 0
	#DEBUG_VALUE: main:_12_size <- 0
	#DEBUG_VALUE: main:_11_has_ownership <- 0
	#DEBUG_VALUE: main:_11_size <- 0
	#DEBUG_VALUE: main:_10 <- 0
	#DEBUG_VALUE: main:_9 <- 0
	#DEBUG_VALUE: main:_8_has_ownership <- 0
	#DEBUG_VALUE: main:_8_size <- 0
	#DEBUG_VALUE: main:_7 <- 0
	#DEBUG_VALUE: main:_6_has_ownership <- 0
	#DEBUG_VALUE: main:_6_size_size <- 0
	#DEBUG_VALUE: main:_6_size <- 0
	#DEBUG_VALUE: main:sum_alice <- 0
	#DEBUG_VALUE: main:moves_has_ownership <- 0
	#DEBUG_VALUE: main:moves_size <- 0
	#DEBUG_VALUE: main:n <- 0
	#DEBUG_VALUE: main:argc <- %EBX
	.loc	1 545 2 prologue_end    # CoinGame.c:545:2
	callq	convertArgsToIntArray
.Ltmp156:
	movq	%rax, %r15
.Ltmp157:
	#DEBUG_VALUE: main:_6 <- %R15
	decl	%ebx
.Ltmp158:
	movslq	%ebx, %r14
.Ltmp159:
	#DEBUG_VALUE: main:_6_has_ownership <- 1
	#DEBUG_VALUE: main:_6_size <- %EBX
	.loc	1 550 5                 # CoinGame.c:550:5
	movq	(%r15), %rdi
.Ltmp160:
	#DEBUG_VALUE: main:_8 <- %RDI
	.loc	1 552 2                 # CoinGame.c:552:2
	callq	parseStringToInt
.Ltmp161:
	#DEBUG_VALUE: main:max <- %RAX
	#DEBUG_VALUE: main:_5 <- %RAX
	.loc	1 556 9                 # CoinGame.c:556:9
	testq	%rax, %rax
	jne	.LBB2_1
.Ltmp162:
# BB#2:                                 # %if.end122.critedge
	#DEBUG_VALUE: main:_5 <- %RAX
	#DEBUG_VALUE: main:max <- %RAX
	#DEBUG_VALUE: main:_6_size <- %EBX
	#DEBUG_VALUE: main:_6 <- %R15
	.loc	1 617 2 discriminator 1 # CoinGame.c:617:2
	movq	%r15, %rdi
	movq	%r14, %rsi
	callq	free2DArray
.Ltmp163:
	#DEBUG_VALUE: main:_6_has_ownership <- 0
	.loc	1 623 2                 # CoinGame.c:623:2
	xorl	%edi, %edi
	callq	exit
.Ltmp164:
.LBB2_1:                                # %if.then103
	#DEBUG_VALUE: main:_5 <- %RAX
	#DEBUG_VALUE: main:max <- %RAX
	#DEBUG_VALUE: main:_6_size <- %EBX
	#DEBUG_VALUE: main:_6 <- %R15
	.loc	1 558 6                 # CoinGame.c:558:6
	movq	(%rax), %rbx
.Ltmp165:
	#DEBUG_VALUE: main:_9 <- 0
	#DEBUG_VALUE: main:n <- %RBX
	.loc	1 562 7                 # CoinGame.c:562:7
	movl	%ebx, %esi
	imull	%esi, %esi
	.loc	1 565 2                 # CoinGame.c:565:2
	xorl	%edi, %edi
	callq	gen1DArray
.Ltmp166:
	#DEBUG_VALUE: main:moves <- %RAX
	#DEBUG_VALUE: main:_11 <- %RAX
	#DEBUG_VALUE: main:_11_has_ownership <- 0
	#DEBUG_VALUE: main:moves_has_ownership <- 0
	.loc	1 576 8                 # CoinGame.c:576:8
	xorl	%edx, %edx
	movq	%rax, %rdi
	movq	%rbx, %rcx
	callq	findMoves
.Ltmp167:
	movq	%rax, %r12
.Ltmp168:
	#DEBUG_VALUE: main:_12 <- %R12
	#DEBUG_VALUE: main:moves <- %R12
	#DEBUG_VALUE: main:_13 <- 1
	#DEBUG_VALUE: main:_12_has_ownership <- 0
	#DEBUG_VALUE: main:moves_has_ownership <- 1
	.loc	1 588 6                 # CoinGame.c:588:6
	movq	-8(%r12,%rbx,8), %r13
.Ltmp169:
	#DEBUG_VALUE: main:_18_size <- 50
	#DEBUG_VALUE: main:_15 <- %R13
	#DEBUG_VALUE: main:sum_alice <- %R13
	.loc	1 595 2                 # CoinGame.c:595:2
	movl	$400, %edi              # imm = 0x190
	callq	malloc
	movq	%rax, %rbp
.Ltmp170:
	#DEBUG_VALUE: main:_18 <- %RBP
	.loc	1 596 9                 # CoinGame.c:596:9
	movaps	.LCPI2_0(%rip), %xmm0   # xmm0 = [84,104]
	movups	%xmm0, (%rbp)
	.loc	1 596 36 is_stmt 0      # CoinGame.c:596:36
	movaps	.LCPI2_1(%rip), %xmm0   # xmm0 = [101,32]
	movups	%xmm0, 16(%rbp)
	movaps	%xmm0, %xmm1
	.loc	1 596 63                # CoinGame.c:596:63
	movaps	.LCPI2_2(%rip), %xmm0   # xmm0 = [116,111]
	movups	%xmm0, 32(%rbp)
	.loc	1 596 91                # CoinGame.c:596:91
	movaps	.LCPI2_3(%rip), %xmm0   # xmm0 = [116,97]
	movups	%xmm0, 48(%rbp)
	.loc	1 596 118               # CoinGame.c:596:118
	movaps	.LCPI2_4(%rip), %xmm0   # xmm0 = [108,32]
	movups	%xmm0, 64(%rbp)
	.loc	1 596 146               # CoinGame.c:596:146
	movaps	.LCPI2_5(%rip), %xmm0   # xmm0 = [97,109]
	movups	%xmm0, 80(%rbp)
	.loc	1 596 175               # CoinGame.c:596:175
	movaps	.LCPI2_6(%rip), %xmm0   # xmm0 = [111,117]
	movups	%xmm0, 96(%rbp)
	.loc	1 596 205               # CoinGame.c:596:205
	movaps	.LCPI2_7(%rip), %xmm0   # xmm0 = [110,116]
	movups	%xmm0, 112(%rbp)
	.loc	1 596 235               # CoinGame.c:596:235
	movaps	.LCPI2_8(%rip), %xmm0   # xmm0 = [32,111]
	movups	%xmm0, 128(%rbp)
	.loc	1 596 264               # CoinGame.c:596:264
	movaps	.LCPI2_9(%rip), %xmm0   # xmm0 = [102,32]
	movups	%xmm0, 144(%rbp)
	.loc	1 596 293               # CoinGame.c:596:293
	movaps	.LCPI2_10(%rip), %xmm0  # xmm0 = [109,111]
	movups	%xmm0, 160(%rbp)
	.loc	1 596 323               # CoinGame.c:596:323
	movaps	.LCPI2_11(%rip), %xmm0  # xmm0 = [110,101]
	movups	%xmm0, 176(%rbp)
	.loc	1 596 353               # CoinGame.c:596:353
	movaps	.LCPI2_12(%rip), %xmm0  # xmm0 = [121,32]
	movups	%xmm0, 192(%rbp)
	.loc	1 596 382               # CoinGame.c:596:382
	movaps	.LCPI2_13(%rip), %xmm0  # xmm0 = [40,109]
	movups	%xmm0, 208(%rbp)
	.loc	1 596 411               # CoinGame.c:596:411
	movaps	.LCPI2_14(%rip), %xmm0  # xmm0 = [97,120]
	movups	%xmm0, 224(%rbp)
	.loc	1 596 440               # CoinGame.c:596:440
	movaps	.LCPI2_15(%rip), %xmm0  # xmm0 = [105,109]
	movups	%xmm0, 240(%rbp)
	.loc	1 596 470               # CoinGame.c:596:470
	movaps	.LCPI2_16(%rip), %xmm0  # xmm0 = [117,109]
	movups	%xmm0, 256(%rbp)
	.loc	1 596 500               # CoinGame.c:596:500
	movaps	.LCPI2_17(%rip), %xmm0  # xmm0 = [41,32]
	movups	%xmm0, 272(%rbp)
	.loc	1 596 528               # CoinGame.c:596:528
	movaps	.LCPI2_18(%rip), %xmm0  # xmm0 = [65,108]
	movups	%xmm0, 288(%rbp)
	.loc	1 596 557               # CoinGame.c:596:557
	movaps	.LCPI2_19(%rip), %xmm0  # xmm0 = [105,99]
	movups	%xmm0, 304(%rbp)
	.loc	1 596 586               # CoinGame.c:596:586
	movups	%xmm1, 320(%rbp)
	.loc	1 596 615               # CoinGame.c:596:615
	movaps	.LCPI2_20(%rip), %xmm0  # xmm0 = [103,101]
	movups	%xmm0, 336(%rbp)
	.loc	1 596 645               # CoinGame.c:596:645
	movaps	.LCPI2_21(%rip), %xmm0  # xmm0 = [116,115]
	movups	%xmm0, 352(%rbp)
	.loc	1 596 675               # CoinGame.c:596:675
	movaps	.LCPI2_22(%rip), %xmm0  # xmm0 = [32,105]
	movups	%xmm0, 368(%rbp)
	.loc	1 596 704               # CoinGame.c:596:704
	movaps	.LCPI2_23(%rip), %xmm0  # xmm0 = [115,32]
	movups	%xmm0, 384(%rbp)
.Ltmp171:
	#DEBUG_VALUE: main:_18_has_ownership <- 1
	.loc	1 599 2 is_stmt 1       # CoinGame.c:599:2
	movl	$50, %esi
	movq	%rbp, %rdi
	callq	printf_s
	.loc	1 603 2                 # CoinGame.c:603:2
	movl	$.L.str.2, %edi
	xorl	%eax, %eax
	movq	%r13, %rsi
	callq	printf
.Ltmp172:
	#DEBUG_VALUE: main:_23_size <- 23
	.loc	1 608 2                 # CoinGame.c:608:2
	movl	$184, %edi
	callq	malloc
	movq	%rax, %rbx
.Ltmp173:
	#DEBUG_VALUE: main:_23 <- %RBX
	.loc	1 609 9                 # CoinGame.c:609:9
	movaps	.LCPI2_24(%rip), %xmm0  # xmm0 = [80,97]
	movups	%xmm0, (%rbx)
	.loc	1 609 35 is_stmt 0      # CoinGame.c:609:35
	movaps	.LCPI2_25(%rip), %xmm0  # xmm0 = [115,115]
	movups	%xmm0, 16(%rbx)
	.loc	1 609 63                # CoinGame.c:609:63
	movaps	.LCPI2_26(%rip), %xmm0  # xmm0 = [32,67]
	movups	%xmm0, 32(%rbx)
	.loc	1 609 89                # CoinGame.c:609:89
	movaps	.LCPI2_27(%rip), %xmm0  # xmm0 = [111,105]
	movups	%xmm0, 48(%rbx)
	.loc	1 609 117               # CoinGame.c:609:117
	movaps	.LCPI2_28(%rip), %xmm0  # xmm0 = [110,71]
	movups	%xmm0, 64(%rbx)
	.loc	1 596 146 is_stmt 1     # CoinGame.c:596:146
	movaps	.LCPI2_5(%rip), %xmm0   # xmm0 = [97,109]
	.loc	1 609 145               # CoinGame.c:609:145
	movups	%xmm0, 80(%rbx)
	.loc	1 596 36                # CoinGame.c:596:36
	movaps	.LCPI2_1(%rip), %xmm0   # xmm0 = [101,32]
	.loc	1 609 174               # CoinGame.c:609:174
	movups	%xmm0, 96(%rbx)
	.loc	1 609 203 is_stmt 0     # CoinGame.c:609:203
	movaps	.LCPI2_29(%rip), %xmm0  # xmm0 = [116,101]
	movups	%xmm0, 112(%rbx)
	.loc	1 609 233               # CoinGame.c:609:233
	movaps	.LCPI2_30(%rip), %xmm0  # xmm0 = [115,116]
	movups	%xmm0, 128(%rbx)
	.loc	1 609 263               # CoinGame.c:609:263
	movaps	.LCPI2_31(%rip), %xmm0  # xmm0 = [32,99]
	movups	%xmm0, 144(%rbx)
	.loc	1 609 291               # CoinGame.c:609:291
	movaps	.LCPI2_32(%rip), %xmm0  # xmm0 = [97,115]
	movups	%xmm0, 160(%rbx)
	.loc	1 609 320               # CoinGame.c:609:320
	movq	$101, 176(%rbx)
.Ltmp174:
	#DEBUG_VALUE: main:_23_has_ownership <- 1
	.loc	1 612 2 is_stmt 1       # CoinGame.c:612:2
	movl	$23, %esi
	movq	%rbx, %rdi
	callq	println_s
.Ltmp175:
	.loc	1 616 2 discriminator 1 # CoinGame.c:616:2
	movq	%r12, %rdi
	callq	free
.Ltmp176:
	#DEBUG_VALUE: main:moves_has_ownership <- 0
	.loc	1 617 2 discriminator 1 # CoinGame.c:617:2
	movq	%r15, %rdi
	movq	%r14, %rsi
	callq	free2DArray
.Ltmp177:
	#DEBUG_VALUE: main:_6_has_ownership <- 0
	.loc	1 621 2 discriminator 1 # CoinGame.c:621:2
	movq	%rbp, %rdi
	callq	free
.Ltmp178:
	#DEBUG_VALUE: main:_18_has_ownership <- 0
	.loc	1 622 2 discriminator 1 # CoinGame.c:622:2
	movq	%rbx, %rdi
	callq	free
.Ltmp179:
	#DEBUG_VALUE: main:_23_has_ownership <- 0
	.loc	1 623 2                 # CoinGame.c:623:2
	xorl	%edi, %edi
	callq	exit
.Ltmp180:
.Lfunc_end2:
	.size	main, .Lfunc_end2-main
	.cfi_endproc

	.type	.L.str,@object          # @.str
	.section	.rodata.str1.1,"aMS",@progbits,1
.L.str:
	.asciz	"%lld"
	.size	.L.str, 5

	.type	.L.str.1,@object        # @.str.1
.L.str.1:
	.asciz	"fail"
	.size	.L.str.1, 5

	.type	.L.str.2,@object        # @.str.2
.L.str.2:
	.asciz	"%lld\n"
	.size	.L.str.2, 6

	.file	2 "/usr/include/libio.h"
	.file	3 "/usr/include/x86_64-linux-gnu/bits/types.h"
	.file	4 "/home/sam/polly/llvm_build/bin/../lib/clang/3.9.0/include/stddef.h"
	.file	5 "/usr/include/stdio.h"
	.section	".note.GNU-stack","",@progbits