	.text
	.file	"llvm/NQueens.polly.enablevc.ll"
	.globl	copy_POS
	.p2align	4, 0x90
	.type	copy_POS,@function
copy_POS:                               # @copy_POS
.Lfunc_begin0:
	.file	1 "NQueens.c"
	.loc	1 2 0                   # NQueens.c:2:0
	.cfi_startproc
# BB#0:                                 # %entry
	pushq	%rbx
.Ltmp0:
	.cfi_def_cfa_offset 16
.Ltmp1:
	.cfi_offset %rbx, -16
	#DEBUG_VALUE: copy_POS:_POS <- %RDI
	movq	%rdi, %rbx
.Ltmp2:
	#DEBUG_VALUE: copy_POS:_POS <- %RBX
	.loc	1 3 17 prologue_end discriminator 1 # NQueens.c:3:17
	movl	$16, %edi
	callq	malloc
.Ltmp3:
	#DEBUG_VALUE: copy_POS:new_POS <- %RAX
	.loc	1 4 21                  # NQueens.c:4:21
	movups	(%rbx), %xmm0
	.loc	1 4 13 is_stmt 0        # NQueens.c:4:13
	movups	%xmm0, (%rax)
	.loc	1 6 2 is_stmt 1         # NQueens.c:6:2
	popq	%rbx
.Ltmp4:
	retq
.Ltmp5:
.Lfunc_end0:
	.size	copy_POS, .Lfunc_end0-copy_POS
	.cfi_endproc

	.globl	copy_array_POS
	.p2align	4, 0x90
	.type	copy_array_POS,@function
copy_array_POS:                         # @copy_array_POS
.Lfunc_begin1:
	.loc	1 8 0                   # NQueens.c:8:0
	.cfi_startproc
# BB#0:                                 # %entry
	pushq	%r15
.Ltmp6:
	.cfi_def_cfa_offset 16
	pushq	%r14
.Ltmp7:
	.cfi_def_cfa_offset 24
	pushq	%r13
.Ltmp8:
	.cfi_def_cfa_offset 32
	pushq	%r12
.Ltmp9:
	.cfi_def_cfa_offset 40
	pushq	%rbx
.Ltmp10:
	.cfi_def_cfa_offset 48
.Ltmp11:
	.cfi_offset %rbx, -48
.Ltmp12:
	.cfi_offset %r12, -40
.Ltmp13:
	.cfi_offset %r13, -32
.Ltmp14:
	.cfi_offset %r14, -24
.Ltmp15:
	.cfi_offset %r15, -16
	#DEBUG_VALUE: copy_array_POS:_POS <- %RDI
	#DEBUG_VALUE: copy_array_POS:_POS_size <- %RSI
	movq	%rsi, %r14
.Ltmp16:
	#DEBUG_VALUE: copy_array_POS:_POS_size <- %R14
	movq	%rdi, %r12
.Ltmp17:
	#DEBUG_VALUE: copy_array_POS:_POS <- %R12
	.loc	1 9 34 prologue_end     # NQueens.c:9:34
	leaq	(,%r14,8), %rdi
	.loc	1 9 18 is_stmt 0 discriminator 1 # NQueens.c:9:18
	callq	malloc
	movq	%rax, %r15
.Ltmp18:
	#DEBUG_VALUE: i <- 0
	.loc	1 10 2 is_stmt 1 discriminator 1 # NQueens.c:10:2
	testq	%r14, %r14
	jle	.LBB1_3
.Ltmp19:
# BB#1:
	#DEBUG_VALUE: copy_array_POS:_POS <- %R12
	#DEBUG_VALUE: copy_array_POS:_POS_size <- %R14
	movq	%r15, %rbx
.Ltmp20:
	.p2align	4, 0x90
.LBB1_2:                                # %for.body
                                        # =>This Inner Loop Header: Depth=1
	.loc	1 11 25                 # NQueens.c:11:25
	movq	(%r12), %r13
.Ltmp21:
	.loc	1 3 17 discriminator 1  # NQueens.c:3:17
	movl	$16, %edi
	callq	malloc
	.loc	1 4 21                  # NQueens.c:4:21
	movups	(%r13), %xmm0
	.loc	1 4 13 is_stmt 0        # NQueens.c:4:13
	movups	%xmm0, (%rax)
.Ltmp22:
	.loc	1 11 14 is_stmt 1       # NQueens.c:11:14
	movq	%rax, (%rbx)
.Ltmp23:
	.loc	1 10 2 discriminator 1  # NQueens.c:10:2
	addq	$8, %rbx
	addq	$8, %r12
	decq	%r14
	jne	.LBB1_2
.Ltmp24:
.LBB1_3:                                # %for.cond.cleanup
	.loc	1 13 2                  # NQueens.c:13:2
	movq	%r15, %rax
	popq	%rbx
	popq	%r12
	popq	%r13
	popq	%r14
	popq	%r15
	retq
.Ltmp25:
.Lfunc_end1:
	.size	copy_array_POS, .Lfunc_end1-copy_array_POS
	.cfi_endproc
	.file	2 "./NQueens.h"

	.globl	free_POS
	.p2align	4, 0x90
	.type	free_POS,@function
free_POS:                               # @free_POS
.Lfunc_begin2:
	.loc	1 15 0                  # NQueens.c:15:0
	.cfi_startproc
# BB#0:                                 # %entry
	#DEBUG_VALUE: free_POS:pos <- %RDI
	.loc	1 16 2 prologue_end     # NQueens.c:16:2
	jmp	free                    # TAILCALL
.Ltmp26:
.Lfunc_end2:
	.size	free_POS, .Lfunc_end2-free_POS
	.cfi_endproc

	.globl	printf_POS
	.p2align	4, 0x90
	.type	printf_POS,@function
printf_POS:                             # @printf_POS
.Lfunc_begin3:
	.loc	1 18 0                  # NQueens.c:18:0
	.cfi_startproc
# BB#0:                                 # %entry
	pushq	%rbx
.Ltmp27:
	.cfi_def_cfa_offset 16
.Ltmp28:
	.cfi_offset %rbx, -16
	#DEBUG_VALUE: printf_POS:pos <- %RDI
	movq	%rdi, %rbx
.Ltmp29:
	#DEBUG_VALUE: printf_POS:pos <- %RBX
	.loc	1 19 2 prologue_end     # NQueens.c:19:2
	movl	$123, %edi
	callq	putchar
	.loc	1 20 2                  # NQueens.c:20:2
	movl	$.L.str.1, %edi
	xorl	%eax, %eax
	callq	printf
	.loc	1 21 22                 # NQueens.c:21:22
	movq	(%rbx), %rsi
	.loc	1 21 2 is_stmt 0        # NQueens.c:21:2
	movl	$.L.str.2, %edi
	xorl	%eax, %eax
	callq	printf
	.loc	1 22 2 is_stmt 1        # NQueens.c:22:2
	movl	$.L.str.3, %edi
	xorl	%eax, %eax
	callq	printf
	.loc	1 23 22                 # NQueens.c:23:22
	movq	8(%rbx), %rsi
	.loc	1 23 2 is_stmt 0        # NQueens.c:23:2
	movl	$.L.str.2, %edi
	xorl	%eax, %eax
	callq	printf
	.loc	1 24 2 is_stmt 1        # NQueens.c:24:2
	movl	$125, %edi
	popq	%rbx
.Ltmp30:
	jmp	putchar                 # TAILCALL
.Ltmp31:
.Lfunc_end3:
	.size	printf_POS, .Lfunc_end3-printf_POS
	.cfi_endproc

	.globl	conflict
	.p2align	4, 0x90
	.type	conflict,@function
conflict:                               # @conflict
.Lfunc_begin4:
	.loc	1 26 0                  # NQueens.c:26:0
	.cfi_startproc
# BB#0:                                 # %entry
	.loc	1 41 10 prologue_end    # NQueens.c:41:10
	pushq	%rbx
.Ltmp32:
	.cfi_def_cfa_offset 16
.Ltmp33:
	.cfi_offset %rbx, -16
	#DEBUG_VALUE: conflict:p <- %RDI
	#DEBUG_VALUE: conflict:p_has_ownership [bit_piece offset=0 size=1] <- %ESI
.Ltmp34:
	#DEBUG_VALUE: conflict:p_has_ownership [bit_piece offset=0 size=1] <- %SIL
	#DEBUG_VALUE: conflict:row <- %RDX
	#DEBUG_VALUE: conflict:col <- %RCX
	#DEBUG_VALUE: conflict:r <- 0
	#DEBUG_VALUE: conflict:c <- 0
	#DEBUG_VALUE: conflict:colDiff <- 0
	#DEBUG_VALUE: conflict:rowDiff <- 0
	#DEBUG_VALUE: conflict:_8 <- 0
	#DEBUG_VALUE: conflict:_9 <- 0
	#DEBUG_VALUE: conflict:_11 <- 0
	#DEBUG_VALUE: conflict:_12 <- 0
	#DEBUG_VALUE: conflict:_13 <- 0
	#DEBUG_VALUE: conflict:_14 <- 0
	movq	(%rdi), %rax
.Ltmp35:
	#DEBUG_VALUE: conflict:_8 <- %RAX
	#DEBUG_VALUE: conflict:r <- %RAX
	.loc	1 49 6                  # NQueens.c:49:6
	subq	%rdx, %rax
.Ltmp36:
	je	.LBB4_2
.Ltmp37:
# BB#1:                                 # %entry
	#DEBUG_VALUE: conflict:col <- %RCX
	#DEBUG_VALUE: conflict:row <- %RDX
	#DEBUG_VALUE: conflict:p_has_ownership [bit_piece offset=0 size=1] <- %SIL
	#DEBUG_VALUE: conflict:p <- %RDI
	.loc	1 45 10                 # NQueens.c:45:10
	movq	8(%rdi), %rdx
.Ltmp38:
	#DEBUG_VALUE: conflict:_9 <- %RDX
	#DEBUG_VALUE: conflict:c <- %RDX
	subq	%rcx, %rdx
.Ltmp39:
	je	.LBB4_2
.Ltmp40:
# BB#4:                                 # %blklab0
	#DEBUG_VALUE: conflict:p <- %RDI
	#DEBUG_VALUE: conflict:p_has_ownership [bit_piece offset=0 size=1] <- %SIL
	#DEBUG_VALUE: conflict:col <- %RCX
	#DEBUG_VALUE: conflict:_12 <- %RDX
	.loc	1 62 7                  # NQueens.c:62:7
	movq	%rdx, %rcx
.Ltmp41:
	negq	%rcx
	cmovlq	%rdx, %rcx
.Ltmp42:
	#DEBUG_VALUE: conflict:_14 <- %RAX
	#DEBUG_VALUE: conflict:_11 <- %RCX
	#DEBUG_VALUE: conflict:colDiff <- %RCX
	.loc	1 68 7                  # NQueens.c:68:7
	movq	%rax, %rdx
.Ltmp43:
	negq	%rdx
	cmovlq	%rax, %rdx
.Ltmp44:
	#DEBUG_VALUE: conflict:_13 <- %RDX
	#DEBUG_VALUE: conflict:rowDiff <- %RDX
	.loc	1 74 12                 # NQueens.c:74:12
	cmpq	%rdx, %rcx
	sete	%al
.Ltmp45:
	.loc	1 82 2                  # NQueens.c:82:2
	movzbl	%al, %ebx
	.loc	1 86 2                  # NQueens.c:86:2
	testb	%sil, %sil
	je	.LBB4_6
.Ltmp46:
# BB#5:                                 # %if.then14
	#DEBUG_VALUE: conflict:p_has_ownership [bit_piece offset=0 size=1] <- %SIL
	#DEBUG_VALUE: conflict:p <- %RDI
	#DEBUG_VALUE: conflict:rowDiff <- %RDX
	#DEBUG_VALUE: conflict:_13 <- %RDX
	#DEBUG_VALUE: conflict:colDiff <- %RCX
	#DEBUG_VALUE: conflict:_11 <- %RCX
	#DEBUG_VALUE: free_POS:pos <- %RDI
	.loc	1 16 2                  # NQueens.c:16:2
	callq	free
.Ltmp47:
	#DEBUG_VALUE: conflict:p_has_ownership <- 0
	jmp	.LBB4_6
.Ltmp48:
.LBB4_2:                                # %blklab1
	#DEBUG_VALUE: conflict:col <- %RCX
	#DEBUG_VALUE: conflict:p_has_ownership [bit_piece offset=0 size=1] <- %SIL
	#DEBUG_VALUE: conflict:p <- %RDI
	movl	$1, %ebx
.Ltmp49:
	#DEBUG_VALUE: conflict:_10 <- 1
	.loc	1 57 2                  # NQueens.c:57:2
	testb	%sil, %sil
	je	.LBB4_6
.Ltmp50:
# BB#3:                                 # %if.then6
	#DEBUG_VALUE: conflict:p <- %RDI
	#DEBUG_VALUE: conflict:p_has_ownership [bit_piece offset=0 size=1] <- %SIL
	#DEBUG_VALUE: conflict:col <- %RCX
	#DEBUG_VALUE: free_POS:pos <- %RDI
	.loc	1 16 2                  # NQueens.c:16:2
	callq	free
.Ltmp51:
	movl	$1, %ebx
.Ltmp52:
	#DEBUG_VALUE: conflict:p_has_ownership <- 0
.LBB4_6:                                # %cleanup
	.loc	1 89 1                  # NQueens.c:89:1
	movq	%rbx, %rax
	popq	%rbx
	retq
.Ltmp53:
.Lfunc_end4:
	.size	conflict, .Lfunc_end4-conflict
	.cfi_endproc

	.globl	run
	.p2align	4, 0x90
	.type	run,@function
run:                                    # @run
.Lfunc_begin5:
	.loc	1 91 0                  # NQueens.c:91:0
	.cfi_startproc
# BB#0:                                 # %entry
	pushq	%rbp
.Ltmp54:
	.cfi_def_cfa_offset 16
	pushq	%r15
.Ltmp55:
	.cfi_def_cfa_offset 24
	pushq	%r14
.Ltmp56:
	.cfi_def_cfa_offset 32
	pushq	%r13
.Ltmp57:
	.cfi_def_cfa_offset 40
	pushq	%r12
.Ltmp58:
	.cfi_def_cfa_offset 48
	pushq	%rbx
.Ltmp59:
	.cfi_def_cfa_offset 56
	subq	$72, %rsp
.Ltmp60:
	.cfi_def_cfa_offset 128
.Ltmp61:
	.cfi_offset %rbx, -56
.Ltmp62:
	.cfi_offset %r12, -48
.Ltmp63:
	.cfi_offset %r13, -40
.Ltmp64:
	.cfi_offset %r14, -32
.Ltmp65:
	.cfi_offset %r15, -24
.Ltmp66:
	.cfi_offset %rbp, -16
	#DEBUG_VALUE: run:queens <- %RDI
	#DEBUG_VALUE: run:queens_size <- %RSI
	#DEBUG_VALUE: run:queens_has_ownership [bit_piece offset=0 size=1] <- %EDX
	#DEBUG_VALUE: run:n <- %RCX
	#DEBUG_VALUE: run:dim <- %R8
.Ltmp67:
	#DEBUG_VALUE: run:_12 <- %RSI
	#DEBUG_VALUE: run:_13 <- %RSI
	movq	%r8, %rbp
.Ltmp68:
	#DEBUG_VALUE: run:dim <- %RBP
	movq	%rdi, (%rsp)            # 8-byte Spill
.Ltmp69:
	#DEBUG_VALUE: run:_33 <- 0
	#DEBUG_VALUE: run:_32 <- 0
	#DEBUG_VALUE: run:_31 <- 0
	#DEBUG_VALUE: run:_30 <- 0
	#DEBUG_VALUE: run:_29 <- 0
	#DEBUG_VALUE: run:_28 <- 0
	#DEBUG_VALUE: run:_27_has_ownership <- 0
	#DEBUG_VALUE: run:_25 <- 0
	#DEBUG_VALUE: run:_24 <- 0
	#DEBUG_VALUE: run:_19_has_ownership <- 0
	#DEBUG_VALUE: run:_18 <- 0
	#DEBUG_VALUE: run:_17 <- 0
	#DEBUG_VALUE: run:_16 <- 0
	#DEBUG_VALUE: run:_15 <- 0
	#DEBUG_VALUE: run:_11 <- 0
	#DEBUG_VALUE: run:_10 <- 0
	#DEBUG_VALUE: run:_9 <- 0
	#DEBUG_VALUE: run:p_has_ownership <- 0
	#DEBUG_VALUE: run:i <- 0
	#DEBUG_VALUE: run:col <- 0
	#DEBUG_VALUE: run:num_solutions <- 0
	#DEBUG_VALUE: run:_3 <- 0
	#DEBUG_VALUE: run:_13 <- 0
	#DEBUG_VALUE: run:_12 <- 0
	#DEBUG_VALUE: run:queens_has_ownership [bit_piece offset=0 size=1] <- %DL
	#DEBUG_VALUE: run:queens <- [%RSP+0]
	.loc	1 127 8 prologue_end    # NQueens.c:127:8
	cmpq	%rcx, %rbp
	jne	.LBB5_1
.Ltmp70:
# BB#30:                                # %if.end
	#DEBUG_VALUE: run:queens <- [%RSP+0]
	#DEBUG_VALUE: run:queens_has_ownership [bit_piece offset=0 size=1] <- %DL
	#DEBUG_VALUE: run:dim <- %RBP
	#DEBUG_VALUE: run:n <- %RCX
	#DEBUG_VALUE: run:queens_size <- %RSI
	movl	$1, %r12d
.Ltmp71:
	#DEBUG_VALUE: run:_9 <- 1
	.loc	1 131 2                 # NQueens.c:131:2
	testb	%dl, %dl
	je	.LBB5_17
.Ltmp72:
# BB#31:                                # %if.then1
	#DEBUG_VALUE: run:queens_size <- %RSI
	#DEBUG_VALUE: run:n <- %RCX
	#DEBUG_VALUE: run:dim <- %RBP
	#DEBUG_VALUE: run:queens_has_ownership [bit_piece offset=0 size=1] <- %DL
	#DEBUG_VALUE: run:queens <- [%RSP+0]
	.loc	1 131 2 is_stmt 0 discriminator 1 # NQueens.c:131:2
	movq	(%rsp), %rdi            # 8-byte Reload
	callq	free
.Ltmp73:
	movl	$1, %r12d
.Ltmp74:
	#DEBUG_VALUE: run:queens_has_ownership <- 0
	jmp	.LBB5_17
.Ltmp75:
.LBB5_1:                                # %while.cond.preheader
	#DEBUG_VALUE: run:queens <- [%RSP+0]
	#DEBUG_VALUE: run:queens_has_ownership [bit_piece offset=0 size=1] <- %DL
	#DEBUG_VALUE: run:dim <- %RBP
	#DEBUG_VALUE: run:n <- %RCX
	#DEBUG_VALUE: run:queens_size <- %RSI
	.loc	1 155 7 is_stmt 1       # NQueens.c:155:7
	cmpq	%rsi, %rcx
	jge	.LBB5_32
.Ltmp76:
# BB#2:                                 # %while.cond.preheader
	#DEBUG_VALUE: run:queens_size <- %RSI
	#DEBUG_VALUE: run:n <- %RCX
	#DEBUG_VALUE: run:dim <- %RBP
	#DEBUG_VALUE: run:queens_has_ownership [bit_piece offset=0 size=1] <- %DL
	#DEBUG_VALUE: run:queens <- [%RSP+0]
	cmpq	%rsi, %rbp
	jne	.LBB5_32
.Ltmp77:
# BB#3:                                 # %blklab10.preheader
	#DEBUG_VALUE: run:queens <- [%RSP+0]
	#DEBUG_VALUE: run:queens_has_ownership [bit_piece offset=0 size=1] <- %DL
	#DEBUG_VALUE: run:dim <- %RBP
	#DEBUG_VALUE: run:n <- %RCX
	#DEBUG_VALUE: run:queens_size <- %RSI
	movl	%edx, 28(%rsp)          # 4-byte Spill
	xorl	%r12d, %r12d
	.loc	1 170 6                 # NQueens.c:170:6
	testq	%rbp, %rbp
	jle	.LBB5_4
.Ltmp78:
# BB#27:                                # %blklab14.preheader.us.preheader
	#DEBUG_VALUE: run:queens_size <- %RSI
	#DEBUG_VALUE: run:n <- %RCX
	#DEBUG_VALUE: run:dim <- %RBP
	#DEBUG_VALUE: run:queens_has_ownership [bit_piece offset=0 size=1] <- %DL
	#DEBUG_VALUE: run:queens <- [%RSP+0]
	.loc	1 275 8                 # NQueens.c:275:8
	leaq	1(%rcx), %rax
.Ltmp79:
	#DEBUG_VALUE: run:_30 <- [%RSP+32]
	movq	%rax, 32(%rsp)          # 8-byte Spill
	xorl	%r13d, %r13d
                                        # implicit-def: %R14
                                        # implicit-def: %R15
	xorl	%ebx, %ebx
	xorl	%r12d, %r12d
                                        # implicit-def: %RAX
	movq	%rax, 8(%rsp)           # 8-byte Spill
	xorl	%eax, %eax
	movq	%rcx, 16(%rsp)          # 8-byte Spill
.Ltmp80:
	.loc	1 108 12                # NQueens.c:108:12
	movq	%rbp, 48(%rsp)          # 8-byte Spill
.Ltmp81:
	.p2align	4, 0x90
.LBB5_28:                               # %blklab14.preheader.us
                                        # =>This Loop Header: Depth=1
                                        #     Child Loop BB5_18 Depth 2
	.loc	1 207 7                 # NQueens.c:207:7
	testq	%rcx, %rcx
	jle	.LBB5_7
# BB#29:                                # %if.end38.us.preheader
                                        #   in Loop: Header=BB5_28 Depth=1
	movq	%rax, 56(%rsp)          # 8-byte Spill
	movq	%rbx, 40(%rsp)          # 8-byte Spill
	movq	%r12, 64(%rsp)          # 8-byte Spill
	xorl	%r12d, %r12d
	movl	$1, %ebx
	.p2align	4, 0x90
.LBB5_18:                               # %if.end38.us
                                        #   Parent Loop BB5_28 Depth=1
                                        # =>  This Inner Loop Header: Depth=2
	.loc	1 210 19                # NQueens.c:210:19
	movq	(%rsp), %rax            # 8-byte Reload
	movq	(%rax,%r12,8), %rbp
.Ltmp82:
	.loc	1 3 17 discriminator 1  # NQueens.c:3:17
	movl	$16, %edi
	callq	malloc
	movq	%rax, %r15
	.loc	1 4 21                  # NQueens.c:4:21
	movups	(%rbp), %xmm0
.Ltmp83:
	#DEBUG_VALUE: run:_19_has_ownership <- 1
	.loc	1 4 13 is_stmt 0        # NQueens.c:4:13
	movups	%xmm0, (%r15)
.Ltmp84:
	.loc	1 213 4 is_stmt 1       # NQueens.c:213:4
	testb	$1, %r13b
	je	.LBB5_20
# BB#19:                                # %if.then41.us
                                        #   in Loop: Header=BB5_18 Depth=2
.Ltmp85:
	.loc	1 16 2                  # NQueens.c:16:2
	movq	%r14, %rdi
	callq	free
.Ltmp86:
	#DEBUG_VALUE: run:p_has_ownership <- 0
.LBB5_20:                               # %polly.split_new_and_old.us
                                        #   in Loop: Header=BB5_18 Depth=2
	cmpq	$1, %rbx
	movl	$0, %ebx
	movq	16(%rsp), %rsi          # 8-byte Reload
	jne	.LBB5_26
# BB#21:                                # %blklab20.us
                                        #   in Loop: Header=BB5_18 Depth=2
.Ltmp87:
	#DEBUG_VALUE: run:p_has_ownership <- 1
	#DEBUG_VALUE: run:_19_has_ownership <- 0
	#DEBUG_VALUE: run:_20 <- 1
	#DEBUG_VALUE: conflict:p_has_ownership [bit_piece offset=0 size=1] <- 0
	#DEBUG_VALUE: conflict:r <- 0
	#DEBUG_VALUE: conflict:c <- 0
	#DEBUG_VALUE: conflict:colDiff <- 0
	#DEBUG_VALUE: conflict:rowDiff <- 0
	#DEBUG_VALUE: conflict:_8 <- 0
	#DEBUG_VALUE: conflict:_9 <- 0
	#DEBUG_VALUE: conflict:_11 <- 0
	#DEBUG_VALUE: conflict:_12 <- 0
	#DEBUG_VALUE: conflict:_13 <- 0
	#DEBUG_VALUE: conflict:_14 <- 0
	.loc	1 41 10                 # NQueens.c:41:10
	movq	(%r15), %rax
.Ltmp88:
	#DEBUG_VALUE: conflict:_8 <- %RAX
	#DEBUG_VALUE: conflict:r <- %RAX
	.loc	1 49 6                  # NQueens.c:49:6
	subq	%rsi, %rax
.Ltmp89:
	#DEBUG_VALUE: conflict:row <- [%RSP+16]
	je	.LBB5_22
.Ltmp90:
# BB#23:                                # %blklab20.us
                                        #   in Loop: Header=BB5_18 Depth=2
	#DEBUG_VALUE: conflict:row <- [%RSP+16]
	.loc	1 45 10                 # NQueens.c:45:10
	movq	8(%r15), %rcx
.Ltmp91:
	#DEBUG_VALUE: conflict:_9 <- %RCX
	#DEBUG_VALUE: conflict:c <- %RCX
	subq	40(%rsp), %rcx          # 8-byte Folded Reload
.Ltmp92:
	.loc	1 226 10                # NQueens.c:226:10
	movl	$1, %ebx
	je	.LBB5_25
.Ltmp93:
# BB#24:                                # %blklab0.i.us
                                        #   in Loop: Header=BB5_18 Depth=2
	#DEBUG_VALUE: conflict:row <- [%RSP+16]
	#DEBUG_VALUE: conflict:_12 <- %RCX
	.loc	1 62 7                  # NQueens.c:62:7
	movq	%rcx, %rdx
	negq	%rdx
	cmovlq	%rcx, %rdx
.Ltmp94:
	#DEBUG_VALUE: conflict:_14 <- %RAX
	#DEBUG_VALUE: conflict:_11 <- %RDX
	#DEBUG_VALUE: conflict:colDiff <- %RDX
	.loc	1 68 7                  # NQueens.c:68:7
	movq	%rax, %rcx
.Ltmp95:
	negq	%rcx
	cmovlq	%rax, %rcx
.Ltmp96:
	#DEBUG_VALUE: conflict:_13 <- %RCX
	#DEBUG_VALUE: conflict:rowDiff <- %RCX
	.loc	1 74 12                 # NQueens.c:74:12
	cmpq	%rcx, %rdx
	sete	%al
.Ltmp97:
	.loc	1 82 2                  # NQueens.c:82:2
	movzbl	%al, %ebx
	jmp	.LBB5_25
.Ltmp98:
.LBB5_22:                               #   in Loop: Header=BB5_18 Depth=2
	#DEBUG_VALUE: conflict:row <- [%RSP+16]
	.loc	1 226 10                # NQueens.c:226:10
	movl	$1, %ebx
.Ltmp99:
.LBB5_25:                               # %conflict.exit.us
                                        #   in Loop: Header=BB5_18 Depth=2
	#DEBUG_VALUE: conflict:row <- [%RSP+16]
	.loc	1 230 7                 # NQueens.c:230:7
	xorq	$1, %rbx
.Ltmp100:
	#DEBUG_VALUE: run:_23 <- 1
	#DEBUG_VALUE: run:_22 <- 1
.LBB5_26:                               # %blklab18.us
                                        #   in Loop: Header=BB5_18 Depth=2
	#DEBUG_VALUE: run:_24 <- 1
	.loc	1 252 9                 # NQueens.c:252:9
	incq	%r12
.Ltmp101:
	#DEBUG_VALUE: run:_25 <- %R12
	#DEBUG_VALUE: run:_17 <- 0
	#DEBUG_VALUE: run:i <- %R12
	movb	$1, %r13b
	.loc	1 207 7                 # NQueens.c:207:7
	cmpq	%r12, %rsi
	movq	%r15, %r14
	jne	.LBB5_18
.Ltmp102:
# BB#5:                                 # %blklab12.us
                                        #   in Loop: Header=BB5_28 Depth=1
	#DEBUG_VALUE: run:i <- %R12
	#DEBUG_VALUE: run:_25 <- %R12
	#DEBUG_VALUE: run:_26 <- 1
	movb	$1, %r13b
	.loc	1 263 6                 # NQueens.c:263:6
	testq	%rbx, %rbx
	movq	%r15, %r14
	movq	64(%rsp), %r12          # 8-byte Reload
.Ltmp103:
	movq	48(%rsp), %rbp          # 8-byte Reload
	movq	40(%rsp), %rbx          # 8-byte Reload
	movq	56(%rsp), %rax          # 8-byte Reload
	je	.LBB5_6
.LBB5_7:                                # %if.end52.us
                                        #   in Loop: Header=BB5_28 Depth=1
.Ltmp104:
	.loc	1 265 3                 # NQueens.c:265:3
	testb	$1, %al
	je	.LBB5_9
# BB#8:                                 # %if.then54.us
                                        #   in Loop: Header=BB5_28 Depth=1
.Ltmp105:
	.loc	1 16 2                  # NQueens.c:16:2
	movq	8(%rsp), %rdi           # 8-byte Reload
	callq	free
.Ltmp106:
	#DEBUG_VALUE: run:_27_has_ownership <- 0
.LBB5_9:                                # %if.end55.us
                                        #   in Loop: Header=BB5_28 Depth=1
	.loc	1 266 9                 # NQueens.c:266:9
	movl	$16, %edi
	callq	malloc
	.loc	1 267 10                # NQueens.c:267:10
	movq	%rbx, 8(%rax)
.Ltmp107:
	#DEBUG_VALUE: run:_27_has_ownership <- 1
	movq	16(%rsp), %rcx          # 8-byte Reload
	.loc	1 268 10                # NQueens.c:268:10
	movq	%rcx, (%rax)
	movq	(%rsp), %rdi            # 8-byte Reload
	movq	%rax, 8(%rsp)           # 8-byte Spill
	.loc	1 271 13                # NQueens.c:271:13
	movq	%rax, (%rdi,%rcx,8)
.Ltmp108:
	#DEBUG_VALUE: run:_29 <- 1
	.loc	1 277 9                 # NQueens.c:277:9
	xorl	%edx, %edx
	movq	%rbp, %rsi
	movq	32(%rsp), %rcx          # 8-byte Reload
	movq	%rbp, %r8
	callq	run
.Ltmp109:
	#DEBUG_VALUE: run:_28 <- %R12
	.loc	1 279 20                # NQueens.c:279:20
	addq	%rax, %r12
.Ltmp110:
	#DEBUG_VALUE: run:_31 <- %R12
	#DEBUG_VALUE: run:num_solutions <- %R12
	movb	$1, %al
	jmp	.LBB5_10
.Ltmp111:
	.p2align	4, 0x90
.LBB5_6:                                #   in Loop: Header=BB5_28 Depth=1
	movq	%r15, %r14
.LBB5_10:                               # %blklab22.us
                                        #   in Loop: Header=BB5_28 Depth=1
.Ltmp112:
	#DEBUG_VALUE: run:_32 <- 1
	.loc	1 287 10                # NQueens.c:287:10
	incq	%rbx
.Ltmp113:
	#DEBUG_VALUE: conflict:col <- %RBX
	#DEBUG_VALUE: run:_33 <- %RBX
	#DEBUG_VALUE: run:col <- %RBX
	.loc	1 170 9                 # NQueens.c:170:9
	cmpq	%rbp, %rbx
	movq	16(%rsp), %rcx          # 8-byte Reload
	jl	.LBB5_28
	jmp	.LBB5_11
.Ltmp114:
.LBB5_4:
	#DEBUG_VALUE: run:queens_size <- %RSI
	#DEBUG_VALUE: run:n <- %RCX
	#DEBUG_VALUE: run:dim <- %RBP
	#DEBUG_VALUE: run:queens_has_ownership [bit_piece offset=0 size=1] <- %DL
	#DEBUG_VALUE: run:queens <- [%RSP+0]
                                        # implicit-def: %R15
	xorl	%r13d, %r13d
                                        # implicit-def: %RAX
	movq	%rax, 8(%rsp)           # 8-byte Spill
	xorl	%eax, %eax
.Ltmp115:
.LBB5_11:                               # %blklab8
	movq	%rax, %rbx
	.loc	1 296 2                 # NQueens.c:296:2
	movl	28(%rsp), %eax          # 4-byte Reload
	testb	%al, %al
	je	.LBB5_13
# BB#12:                                # %if.then63
.Ltmp116:
	.loc	1 296 2 is_stmt 0 discriminator 1 # NQueens.c:296:2
	movq	(%rsp), %rdi            # 8-byte Reload
	callq	free
.Ltmp117:
	#DEBUG_VALUE: run:queens_has_ownership <- 0
.LBB5_13:                               # %if.end64
	.loc	1 297 2 is_stmt 1       # NQueens.c:297:2
	testb	$1, %r13b
	je	.LBB5_15
# BB#14:                                # %if.then66
.Ltmp118:
	.loc	1 16 2                  # NQueens.c:16:2
	movq	%r15, %rdi
	callq	free
.Ltmp119:
	#DEBUG_VALUE: run:p_has_ownership <- 0
.LBB5_15:                               # %if.end70
	.loc	1 299 2                 # NQueens.c:299:2
	testb	$1, %bl
	je	.LBB5_17
# BB#16:                                # %if.then72
.Ltmp120:
	.loc	1 16 2                  # NQueens.c:16:2
	movq	8(%rsp), %rdi           # 8-byte Reload
	callq	free
.Ltmp121:
	#DEBUG_VALUE: run:_27_has_ownership <- 0
.LBB5_17:                               # %cleanup
	.loc	1 304 1 discriminator 2 # NQueens.c:304:1
	movq	%r12, %rax
	addq	$72, %rsp
	popq	%rbx
	popq	%r12
	popq	%r13
	popq	%r14
	popq	%r15
	popq	%rbp
	retq
.LBB5_32:                               # %blklab11
.Ltmp122:
	#DEBUG_VALUE: run:queens_size <- %RSI
	#DEBUG_VALUE: run:n <- %RCX
	#DEBUG_VALUE: run:dim <- %RBP
	#DEBUG_VALUE: run:queens_has_ownership [bit_piece offset=0 size=1] <- %DL
	#DEBUG_VALUE: run:queens <- [%RSP+0]
	.loc	1 163 12                # NQueens.c:163:12
	movq	stderr(%rip), %rcx
.Ltmp123:
	.loc	1 163 4 is_stmt 0       # NQueens.c:163:4
	movl	$.L.str.5, %edi
	movl	$4, %esi
.Ltmp124:
	movl	$1, %edx
.Ltmp125:
	callq	fwrite
.Ltmp126:
	.loc	1 164 4 is_stmt 1       # NQueens.c:164:4
	movl	$-1, %edi
	callq	exit
.Ltmp127:
.Lfunc_end5:
	.size	run, .Lfunc_end5-run
	.cfi_endproc

	.section	.rodata.cst16,"aM",@progbits,16
	.p2align	4
.LCPI6_0:
	.quad	78                      # 0x4e
	.quad	45                      # 0x2d
.LCPI6_1:
	.quad	81                      # 0x51
	.quad	117                     # 0x75
.LCPI6_2:
	.quad	101                     # 0x65
	.quad	101                     # 0x65
.LCPI6_3:
	.quad	110                     # 0x6e
	.quad	32                      # 0x20
.LCPI6_4:
	.quad	80                      # 0x50
	.quad	114                     # 0x72
.LCPI6_5:
	.quad	111                     # 0x6f
	.quad	98                      # 0x62
.LCPI6_6:
	.quad	108                     # 0x6c
	.quad	101                     # 0x65
.LCPI6_7:
	.quad	109                     # 0x6d
	.quad	32                      # 0x20
.LCPI6_8:
	.quad	111                     # 0x6f
	.quad	110                     # 0x6e
.LCPI6_9:
	.quad	32                      # 0x20
	.quad	97                      # 0x61
.LCPI6_10:
	.quad	32                      # 0x20
	.quad	78                      # 0x4e
.LCPI6_11:
	.quad	32                      # 0x20
	.quad	88                      # 0x58
.LCPI6_12:
	.quad	32                      # 0x20
	.quad	66                      # 0x42
.LCPI6_13:
	.quad	111                     # 0x6f
	.quad	97                      # 0x61
.LCPI6_14:
	.quad	114                     # 0x72
	.quad	100                     # 0x64
.LCPI6_15:
	.quad	78                      # 0x4e
	.quad	32                      # 0x20
.LCPI6_16:
	.quad	61                      # 0x3d
	.quad	32                      # 0x20
.LCPI6_17:
	.quad	70                      # 0x46
	.quad	111                     # 0x6f
.LCPI6_18:
	.quad	117                     # 0x75
	.quad	110                     # 0x6e
.LCPI6_19:
	.quad	100                     # 0x64
	.quad	32                      # 0x20
.LCPI6_20:
	.quad	32                      # 0x20
	.quad	115                     # 0x73
.LCPI6_21:
	.quad	111                     # 0x6f
	.quad	108                     # 0x6c
.LCPI6_22:
	.quad	117                     # 0x75
	.quad	116                     # 0x74
.LCPI6_23:
	.quad	105                     # 0x69
	.quad	111                     # 0x6f
.LCPI6_24:
	.quad	110                     # 0x6e
	.quad	115                     # 0x73
.LCPI6_25:
	.zero	16
	.text
	.globl	main
	.p2align	4, 0x90
	.type	main,@function
main:                                   # @main
.Lfunc_begin6:
	.loc	1 306 0                 # NQueens.c:306:0
	.cfi_startproc
# BB#0:                                 # %entry
	pushq	%rbp
.Ltmp128:
	.cfi_def_cfa_offset 16
	pushq	%r15
.Ltmp129:
	.cfi_def_cfa_offset 24
	pushq	%r14
.Ltmp130:
	.cfi_def_cfa_offset 32
	pushq	%r13
.Ltmp131:
	.cfi_def_cfa_offset 40
	pushq	%r12
.Ltmp132:
	.cfi_def_cfa_offset 48
	pushq	%rbx
.Ltmp133:
	.cfi_def_cfa_offset 56
	subq	$24, %rsp
.Ltmp134:
	.cfi_def_cfa_offset 80
.Ltmp135:
	.cfi_offset %rbx, -56
.Ltmp136:
	.cfi_offset %r12, -48
.Ltmp137:
	.cfi_offset %r13, -40
.Ltmp138:
	.cfi_offset %r14, -32
.Ltmp139:
	.cfi_offset %r15, -24
.Ltmp140:
	.cfi_offset %rbp, -16
	#DEBUG_VALUE: main:argc <- %EDI
	#DEBUG_VALUE: main:args <- %RSI
	movl	%edi, %ebx
.Ltmp141:
	#DEBUG_VALUE: main:_30_has_ownership <- 0
	#DEBUG_VALUE: main:_30_size <- 0
	#DEBUG_VALUE: main:_25_has_ownership <- 0
	#DEBUG_VALUE: main:_25_size <- 0
	#DEBUG_VALUE: main:_20_has_ownership <- 0
	#DEBUG_VALUE: main:_20_size <- 0
	#DEBUG_VALUE: main:_17_has_ownership <- 0
	#DEBUG_VALUE: main:_17_size <- 0
	#DEBUG_VALUE: main:_14 <- 0
	#DEBUG_VALUE: main:_13 <- 0
	#DEBUG_VALUE: main:_12_has_ownership <- 0
	#DEBUG_VALUE: main:_12_size <- 0
	#DEBUG_VALUE: main:_11_has_ownership <- 0
	#DEBUG_VALUE: main:_10 <- 0
	#DEBUG_VALUE: main:_9 <- 0
	#DEBUG_VALUE: main:_8_has_ownership <- 0
	#DEBUG_VALUE: main:_8_size <- 0
	#DEBUG_VALUE: main:_7 <- 0
	#DEBUG_VALUE: main:_6_has_ownership <- 0
	#DEBUG_VALUE: main:_6_size_size <- 0
	#DEBUG_VALUE: main:_6_size <- 0
	#DEBUG_VALUE: main:num_solutions <- 0
	#DEBUG_VALUE: main:init_has_ownership <- 0
	#DEBUG_VALUE: main:init_size <- 0
	#DEBUG_VALUE: main:n <- 0
	#DEBUG_VALUE: main:argc <- %EBX
	.loc	1 343 2 prologue_end    # NQueens.c:343:2
	callq	convertArgsToIntArray
.Ltmp142:
	#DEBUG_VALUE: main:_6 <- %RAX
	decl	%ebx
.Ltmp143:
	movslq	%ebx, %rcx
.Ltmp144:
	#DEBUG_VALUE: main:_6_has_ownership <- 1
	#DEBUG_VALUE: main:_6_size <- %EBX
	movq	%rcx, 16(%rsp)          # 8-byte Spill
	movq	%rax, 8(%rsp)           # 8-byte Spill
.Ltmp145:
	#DEBUG_VALUE: main:_6 <- [%RSP+8]
	.loc	1 348 5                 # NQueens.c:348:5
	movq	(%rax), %rdi
.Ltmp146:
	#DEBUG_VALUE: main:_8 <- %RDI
	.loc	1 350 2                 # NQueens.c:350:2
	callq	parseStringToInt
.Ltmp147:
	#DEBUG_VALUE: main:max <- %RAX
	#DEBUG_VALUE: main:_5 <- %RAX
	.loc	1 354 9                 # NQueens.c:354:9
	testq	%rax, %rax
.Ltmp148:
	.loc	1 354 5 is_stmt 0       # NQueens.c:354:5
	je	.LBB6_5
.Ltmp149:
# BB#1:                                 # %if.end
	#DEBUG_VALUE: main:_5 <- %RAX
	#DEBUG_VALUE: main:max <- %RAX
	#DEBUG_VALUE: main:_6_size <- %EBX
	.loc	1 356 6 is_stmt 1       # NQueens.c:356:6
	movq	(%rax), %r13
.Ltmp150:
	#DEBUG_VALUE: main:_12_size <- %R13
	#DEBUG_VALUE: main:_11_has_ownership <- 1
	#DEBUG_VALUE: main:_10 <- 0
	#DEBUG_VALUE: main:_9 <- 0
	#DEBUG_VALUE: main:init_size <- %R13
	#DEBUG_VALUE: main:n <- %R13
	.loc	1 369 16                # NQueens.c:369:16
	leaq	(,%r13,8), %rdi
	.loc	1 369 8 is_stmt 0       # NQueens.c:369:8
	callq	malloc
.Ltmp151:
	movq	%rax, %r12
.Ltmp152:
	#DEBUG_VALUE: _12_i <- 0
	.loc	1 370 2 is_stmt 1 discriminator 1 # NQueens.c:370:2
	testq	%r13, %r13
	jle	.LBB6_4
.Ltmp153:
# BB#2:                                 # %for.body.preheader
	#DEBUG_VALUE: main:_6_size <- %EBX
	#DEBUG_VALUE: main:n <- %R13
	#DEBUG_VALUE: main:init_size <- %R13
	#DEBUG_VALUE: main:_12_size <- %R13
	movq	%r12, %rbx
.Ltmp154:
	movq	%r13, %rbp
.Ltmp155:
	.p2align	4, 0x90
.LBB6_3:                                # %for.body
                                        # =>This Inner Loop Header: Depth=1
	.loc	1 3 17 discriminator 1  # NQueens.c:3:17
	movl	$16, %edi
	callq	malloc
	.loc	1 5 13                  # NQueens.c:5:13
	xorps	%xmm0, %xmm0
	movups	%xmm0, (%rax)
.Ltmp156:
	.loc	1 370 46 discriminator 3 # NQueens.c:370:46
	movq	%rax, (%rbx)
.Ltmp157:
	.loc	1 370 2 is_stmt 0 discriminator 1 # NQueens.c:370:2
	addq	$8, %rbx
	decq	%rbp
	jne	.LBB6_3
.Ltmp158:
.LBB6_4:                                # %if.then92
	#DEBUG_VALUE: main:init_has_ownership <- 1
	#DEBUG_VALUE: main:_12_has_ownership <- 0
	#DEBUG_VALUE: main:_14 <- 0
	.loc	1 381 8 is_stmt 1       # NQueens.c:381:8
	xorl	%edx, %edx
	xorl	%ecx, %ecx
	movq	%r12, %rdi
	movq	%r13, %rsi
	movq	%r13, %r8
	callq	run
	movq	%rax, %r15
.Ltmp159:
	#DEBUG_VALUE: main:_17_size <- 33
	#DEBUG_VALUE: main:_13 <- %R15
	#DEBUG_VALUE: main:num_solutions <- %R15
	.loc	1 388 2                 # NQueens.c:388:2
	movl	$264, %edi              # imm = 0x108
	callq	malloc
	movq	%rax, %rbx
.Ltmp160:
	#DEBUG_VALUE: main:_17 <- %RBX
	.loc	1 389 9                 # NQueens.c:389:9
	movaps	.LCPI6_0(%rip), %xmm0   # xmm0 = [78,45]
	movups	%xmm0, (%rbx)
	.loc	1 389 35 is_stmt 0      # NQueens.c:389:35
	movaps	.LCPI6_1(%rip), %xmm0   # xmm0 = [81,117]
	movups	%xmm0, 16(%rbx)
	.loc	1 389 62                # NQueens.c:389:62
	movaps	.LCPI6_2(%rip), %xmm0   # xmm0 = [101,101]
	movups	%xmm0, 32(%rbx)
	.loc	1 389 90                # NQueens.c:389:90
	movaps	.LCPI6_3(%rip), %xmm0   # xmm0 = [110,32]
	movups	%xmm0, 48(%rbx)
	.loc	1 389 117               # NQueens.c:389:117
	movaps	.LCPI6_4(%rip), %xmm0   # xmm0 = [80,114]
	movups	%xmm0, 64(%rbx)
	.loc	1 389 145               # NQueens.c:389:145
	movaps	.LCPI6_5(%rip), %xmm0   # xmm0 = [111,98]
	movups	%xmm0, 80(%rbx)
	.loc	1 389 174               # NQueens.c:389:174
	movaps	.LCPI6_6(%rip), %xmm0   # xmm0 = [108,101]
	movups	%xmm0, 96(%rbx)
	.loc	1 389 204               # NQueens.c:389:204
	movaps	.LCPI6_7(%rip), %xmm0   # xmm0 = [109,32]
	movups	%xmm0, 112(%rbx)
	.loc	1 389 233               # NQueens.c:389:233
	movaps	.LCPI6_8(%rip), %xmm0   # xmm0 = [111,110]
	movups	%xmm0, 128(%rbx)
	.loc	1 389 263               # NQueens.c:389:263
	movaps	.LCPI6_9(%rip), %xmm0   # xmm0 = [32,97]
	movups	%xmm0, 144(%rbx)
	.loc	1 389 291               # NQueens.c:389:291
	movaps	.LCPI6_10(%rip), %xmm0  # xmm0 = [32,78]
	movups	%xmm0, 160(%rbx)
	.loc	1 389 319               # NQueens.c:389:319
	movaps	.LCPI6_11(%rip), %xmm1  # xmm1 = [32,88]
	movups	%xmm1, 176(%rbx)
	.loc	1 389 347               # NQueens.c:389:347
	movups	%xmm0, 192(%rbx)
	.loc	1 389 375               # NQueens.c:389:375
	movaps	.LCPI6_12(%rip), %xmm0  # xmm0 = [32,66]
	movups	%xmm0, 208(%rbx)
	.loc	1 389 403               # NQueens.c:389:403
	movaps	.LCPI6_13(%rip), %xmm0  # xmm0 = [111,97]
	movups	%xmm0, 224(%rbx)
	.loc	1 389 432               # NQueens.c:389:432
	movaps	.LCPI6_14(%rip), %xmm0  # xmm0 = [114,100]
	movups	%xmm0, 240(%rbx)
	.loc	1 389 462               # NQueens.c:389:462
	movq	$46, 256(%rbx)
.Ltmp161:
	#DEBUG_VALUE: main:_17_has_ownership <- 1
	.loc	1 392 2 is_stmt 1       # NQueens.c:392:2
	movl	$33, %esi
	movq	%rbx, %rdi
	callq	println_s
.Ltmp162:
	#DEBUG_VALUE: main:_20_size <- 4
	.loc	1 397 2                 # NQueens.c:397:2
	movl	$32, %edi
	callq	malloc
	movq	%rax, %r14
.Ltmp163:
	#DEBUG_VALUE: main:_20 <- %R14
	.loc	1 398 9                 # NQueens.c:398:9
	movaps	.LCPI6_15(%rip), %xmm0  # xmm0 = [78,32]
	movups	%xmm0, (%r14)
	.loc	1 398 35 is_stmt 0      # NQueens.c:398:35
	movaps	.LCPI6_16(%rip), %xmm0  # xmm0 = [61,32]
	movups	%xmm0, 16(%r14)
.Ltmp164:
	#DEBUG_VALUE: main:_20_has_ownership <- 1
	.loc	1 401 2 is_stmt 1       # NQueens.c:401:2
	movl	$4, %esi
	movq	%r14, %rdi
	callq	printf_s
	.loc	1 405 2                 # NQueens.c:405:2
	movl	$.L.str.6, %edi
	xorl	%eax, %eax
	movq	%r13, %rsi
	callq	printf
.Ltmp165:
	#DEBUG_VALUE: main:_25_size <- 6
	.loc	1 410 2                 # NQueens.c:410:2
	movl	$48, %edi
	callq	malloc
	movq	%rax, %r13
.Ltmp166:
	#DEBUG_VALUE: main:_25 <- %R13
	.loc	1 411 9                 # NQueens.c:411:9
	movaps	.LCPI6_17(%rip), %xmm0  # xmm0 = [70,111]
	movups	%xmm0, (%r13)
	.loc	1 411 36 is_stmt 0      # NQueens.c:411:36
	movaps	.LCPI6_18(%rip), %xmm0  # xmm0 = [117,110]
	movups	%xmm0, 16(%r13)
	.loc	1 411 64                # NQueens.c:411:64
	movaps	.LCPI6_19(%rip), %xmm0  # xmm0 = [100,32]
	movups	%xmm0, 32(%r13)
.Ltmp167:
	#DEBUG_VALUE: main:_25_has_ownership <- 1
	.loc	1 414 2 is_stmt 1       # NQueens.c:414:2
	movl	$6, %esi
	movq	%r13, %rdi
	callq	printf_s
	.loc	1 418 2                 # NQueens.c:418:2
	movl	$.L.str.2, %edi
	xorl	%eax, %eax
	movq	%r15, %rsi
	callq	printf
.Ltmp168:
	#DEBUG_VALUE: main:_30_size <- 11
	.loc	1 423 2                 # NQueens.c:423:2
	movl	$88, %edi
	callq	malloc
	movq	%rax, %rbp
.Ltmp169:
	#DEBUG_VALUE: main:_30 <- %RBP
	.loc	1 424 9                 # NQueens.c:424:9
	movaps	.LCPI6_20(%rip), %xmm0  # xmm0 = [32,115]
	movups	%xmm0, (%rbp)
	.loc	1 424 36 is_stmt 0      # NQueens.c:424:36
	movaps	.LCPI6_21(%rip), %xmm0  # xmm0 = [111,108]
	movups	%xmm0, 16(%rbp)
	.loc	1 424 64                # NQueens.c:424:64
	movaps	.LCPI6_22(%rip), %xmm0  # xmm0 = [117,116]
	movups	%xmm0, 32(%rbp)
	.loc	1 424 92                # NQueens.c:424:92
	movaps	.LCPI6_23(%rip), %xmm0  # xmm0 = [105,111]
	movups	%xmm0, 48(%rbp)
	.loc	1 424 120               # NQueens.c:424:120
	movaps	.LCPI6_24(%rip), %xmm0  # xmm0 = [110,115]
	movups	%xmm0, 64(%rbp)
	.loc	1 424 149               # NQueens.c:424:149
	movq	$46, 80(%rbp)
.Ltmp170:
	#DEBUG_VALUE: main:_30_has_ownership <- 1
	.loc	1 427 2 is_stmt 1       # NQueens.c:427:2
	movl	$11, %esi
	movq	%rbp, %rdi
	callq	println_s
.Ltmp171:
	.loc	1 431 2 discriminator 1 # NQueens.c:431:2
	movq	%r12, %rdi
	callq	free
.Ltmp172:
	#DEBUG_VALUE: main:init_has_ownership <- 0
	.loc	1 432 2 discriminator 1 # NQueens.c:432:2
	movq	8(%rsp), %rdi           # 8-byte Reload
	movq	16(%rsp), %rsi          # 8-byte Reload
	callq	free2DArray
.Ltmp173:
	#DEBUG_VALUE: main:_11_has_ownership <- 0
	#DEBUG_VALUE: main:_6_has_ownership <- 0
	.loc	1 436 2 discriminator 1 # NQueens.c:436:2
	movq	%rbx, %rdi
	callq	free
.Ltmp174:
	#DEBUG_VALUE: main:_17_has_ownership <- 0
	.loc	1 437 2 discriminator 1 # NQueens.c:437:2
	movq	%r14, %rdi
	callq	free
.Ltmp175:
	#DEBUG_VALUE: main:_20_has_ownership <- 0
	.loc	1 438 2 discriminator 1 # NQueens.c:438:2
	movq	%r13, %rdi
	callq	free
.Ltmp176:
	#DEBUG_VALUE: main:_25_has_ownership <- 0
	.loc	1 439 2 discriminator 1 # NQueens.c:439:2
	movq	%rbp, %rdi
	callq	free
.Ltmp177:
	#DEBUG_VALUE: main:_30_has_ownership <- 0
	.loc	1 440 2                 # NQueens.c:440:2
	xorl	%edi, %edi
	callq	exit
.Ltmp178:
.LBB6_5:                                # %if.end117.critedge
	#DEBUG_VALUE: main:_5 <- %RAX
	#DEBUG_VALUE: main:max <- %RAX
	#DEBUG_VALUE: main:_6_size <- %EBX
	.loc	1 432 2 discriminator 1 # NQueens.c:432:2
	movq	8(%rsp), %rdi           # 8-byte Reload
	movq	16(%rsp), %rsi          # 8-byte Reload
	callq	free2DArray
.Ltmp179:
	#DEBUG_VALUE: main:_6_has_ownership <- 0
	.loc	1 440 2                 # NQueens.c:440:2
	xorl	%edi, %edi
	callq	exit
.Ltmp180:
.Lfunc_end6:
	.size	main, .Lfunc_end6-main
	.cfi_endproc

	.type	.L.str.1,@object        # @.str.1
	.section	.rodata.str1.1,"aMS",@progbits,1
.L.str.1:
	.asciz	" r:"
	.size	.L.str.1, 4

	.type	.L.str.2,@object        # @.str.2
.L.str.2:
	.asciz	"%lld"
	.size	.L.str.2, 5

	.type	.L.str.3,@object        # @.str.3
.L.str.3:
	.asciz	" c:"
	.size	.L.str.3, 4

	.type	.L.str.5,@object        # @.str.5
.L.str.5:
	.asciz	"fail"
	.size	.L.str.5, 5

	.type	.L.str.6,@object        # @.str.6
.L.str.6:
	.asciz	"%lld\n"
	.size	.L.str.6, 6

	.section	".note.GNU-stack","",@progbits