	.text
	.file	"llvm/CoinGame.polly.enablevc.ll"
	.file	1 "CoinGame.c"
	.section	.rodata.cst16,"aM",@progbits,16
	.p2align	4
.LCPI0_0:
	.long	0                       # 0x0
	.long	1                       # 0x1
	.long	2                       # 0x2
	.long	3                       # 0x3
	.text
	.globl	init
	.p2align	4, 0x90
	.type	init,@function
init:                                   # @init
.Lfunc_begin0:
	.loc	1 26 0                  # CoinGame.c:26:0
	.cfi_startproc
# BB#0:                                 # %entry
	.loc	1 29 2 prologue_end     # CoinGame.c:29:2
	pushq	%rax
.Ltmp0:
	.cfi_def_cfa_offset 16
	movl	$.L.str, %edi
	movl	$6, %esi
	xorl	%eax, %eax
	callq	printf
.Ltmp1:
	#DEBUG_VALUE: init:i <- 0
	.loc	1 31 8                  # CoinGame.c:31:8
	movaps	.LCPI0_0(%rip), %xmm0   # xmm0 = [0,1,2,3]
	movaps	%xmm0, V(%rip)
	movabsq	$21474836484, %rax      # imm = 0x500000004
	movq	%rax, V+16(%rip)
.Ltmp2:
	.loc	1 33 1                  # CoinGame.c:33:1
	popq	%rax
	retq
.Ltmp3:
.Lfunc_end0:
	.size	init, .Lfunc_end0-init
	.cfi_endproc

	.globl	play
	.p2align	4, 0x90
	.type	play,@function
play:                                   # @play
.Lfunc_begin1:
	.loc	1 35 0                  # CoinGame.c:35:0
	.cfi_startproc
# BB#0:                                 # %entry
	.loc	1 40 7 prologue_end     # CoinGame.c:40:7
	pushq	%r15
.Ltmp4:
	.cfi_def_cfa_offset 16
	pushq	%r14
.Ltmp5:
	.cfi_def_cfa_offset 24
	pushq	%rbx
.Ltmp6:
	.cfi_def_cfa_offset 32
.Ltmp7:
	.cfi_offset %rbx, -32
.Ltmp8:
	.cfi_offset %r14, -24
.Ltmp9:
	.cfi_offset %r15, -16
.Ltmp10:
	#DEBUG_VALUE: play:i <- 0
	#DEBUG_VALUE: play:j <- 5
	#DEBUG_VALUE: play:index <- 0
	movl	M+44(%rip), %eax
.Ltmp11:
	#DEBUG_VALUE: play:j <- 4
	.loc	1 40 19 is_stmt 0       # CoinGame.c:40:19
	cmpl	M+16(%rip), %eax
.Ltmp12:
	.loc	1 40 7                  # CoinGame.c:40:7
	setle	%al
	movzbl	%al, %edx
.Ltmp13:
	.loc	1 46 19 is_stmt 1       # CoinGame.c:46:19
	movl	$V, %eax
	movl	$V+20, %esi
	cmovleq	%rax, %rsi
.Ltmp14:
	.loc	1 40 7                  # CoinGame.c:40:7
	leal	4(%rdx), %ecx
.Ltmp15:
	.loc	1 46 19                 # CoinGame.c:46:19
	movl	(%rsi), %eax
.Ltmp16:
	.loc	1 42 17                 # CoinGame.c:42:17
	movl	%eax, coins(%rip)
.Ltmp17:
	.loc	1 40 11                 # CoinGame.c:40:11
	leal	1(%rdx), %eax
	.loc	1 40 7 is_stmt 0        # CoinGame.c:40:7
	leaq	(%rax,%rax,2), %rsi
	leaq	(,%rcx,4), %rdi
	movl	M(%rdi,%rsi,8), %r8d
	.loc	1 40 29                 # CoinGame.c:40:29
	leal	3(%rdx), %edi
	.loc	1 40 22                 # CoinGame.c:40:22
	leaq	(%rdx,%rdx,2), %rbx
	leaq	(,%rdi,4), %rsi
	.loc	1 40 19                 # CoinGame.c:40:19
	cmpl	M(%rsi,%rbx,8), %r8d
.Ltmp18:
	.loc	1 40 7                  # CoinGame.c:40:7
	cmovgl	%edx, %eax
	cmovgq	%rcx, %rdx
	cmovgl	%edi, %ecx
.Ltmp19:
	.loc	1 42 19 is_stmt 1       # CoinGame.c:42:19
	movl	V(,%rdx,4), %edx
.Ltmp20:
	.loc	1 46 17                 # CoinGame.c:46:17
	movl	%edx, coins+4(%rip)
.Ltmp21:
	.loc	1 40 7                  # CoinGame.c:40:7
	movl	%ecx, %r9d
	.loc	1 40 11 is_stmt 0       # CoinGame.c:40:11
	leal	1(%rax), %r10d
	.loc	1 40 7                  # CoinGame.c:40:7
	leaq	(%r10,%r10,2), %rdi
	leaq	(,%r9,4), %rbx
	movl	M(%rbx,%rdi,8), %r8d
	.loc	1 40 29                 # CoinGame.c:40:29
	leal	-1(%rcx), %edi
	.loc	1 40 22                 # CoinGame.c:40:22
	movl	%eax, %edx
	leaq	(%rdx,%rdx,2), %rsi
	.loc	1 40 19                 # CoinGame.c:40:19
	cmpl	M-4(%rbx,%rsi,8), %r8d
.Ltmp22:
	.loc	1 40 7                  # CoinGame.c:40:7
	cmovgq	%r9, %rdx
	cmovlel	%r10d, %eax
	cmovlel	%ecx, %edi
.Ltmp23:
	.loc	1 46 19 is_stmt 1       # CoinGame.c:46:19
	movl	V(,%rdx,4), %ecx
.Ltmp24:
	.loc	1 42 17                 # CoinGame.c:42:17
	movl	%ecx, coins+8(%rip)
.Ltmp25:
	.loc	1 40 7                  # CoinGame.c:40:7
	movslq	%edi, %rcx
	.loc	1 40 11 is_stmt 0       # CoinGame.c:40:11
	leal	1(%rax), %r9d
	.loc	1 40 7                  # CoinGame.c:40:7
	leaq	(,%rcx,4), %rsi
	leaq	(%r9,%r9,2), %rdi
	movl	M(%rsi,%rdi,8), %r8d
	.loc	1 40 29                 # CoinGame.c:40:29
	leal	-1(%rcx), %ebx
	.loc	1 40 22                 # CoinGame.c:40:22
	movl	%eax, %edi
	leaq	(%rdi,%rdi,2), %rdx
	.loc	1 40 19                 # CoinGame.c:40:19
	cmpl	M-4(%rsi,%rdx,8), %r8d
.Ltmp26:
	.loc	1 40 7                  # CoinGame.c:40:7
	cmovgq	%rcx, %rdi
	cmovlel	%r9d, %eax
	cmovlel	%ecx, %ebx
.Ltmp27:
	.loc	1 42 19 is_stmt 1       # CoinGame.c:42:19
	movl	V(,%rdi,4), %ecx
.Ltmp28:
	.loc	1 46 17                 # CoinGame.c:46:17
	movl	%ecx, coins+12(%rip)
.Ltmp29:
	.loc	1 40 7                  # CoinGame.c:40:7
	movslq	%ebx, %rcx
	.loc	1 40 11 is_stmt 0       # CoinGame.c:40:11
	leal	1(%rax), %edx
	.loc	1 40 7                  # CoinGame.c:40:7
	movslq	%edx, %rdx
	leaq	(,%rcx,4), %rsi
	leaq	(%rdx,%rdx,2), %rdi
	movl	M(%rsi,%rdi,8), %r8d
	.loc	1 40 29                 # CoinGame.c:40:29
	leal	-1(%rcx), %ebx
	.loc	1 40 22                 # CoinGame.c:40:22
	cltq
	leaq	(%rax,%rax,2), %rdi
	.loc	1 40 19                 # CoinGame.c:40:19
	cmpl	M-4(%rsi,%rdi,8), %r8d
.Ltmp30:
	.loc	1 40 7                  # CoinGame.c:40:7
	cmovlel	%ecx, %ebx
	cmovleq	%rax, %rcx
	cmovlel	%edx, %eax
.Ltmp31:
	.loc	1 46 19 is_stmt 1       # CoinGame.c:46:19
	movl	V(,%rcx,4), %ecx
.Ltmp32:
	.loc	1 42 17                 # CoinGame.c:42:17
	movl	%ecx, coins+16(%rip)
.Ltmp33:
	.loc	1 40 7                  # CoinGame.c:40:7
	movslq	%ebx, %rcx
	.loc	1 40 11 is_stmt 0       # CoinGame.c:40:11
	leal	1(%rax), %edx
	.loc	1 40 7                  # CoinGame.c:40:7
	movslq	%edx, %rdx
	leaq	(,%rcx,4), %rsi
	leaq	(%rdx,%rdx,2), %rdx
	movl	M(%rsi,%rdx,8), %edx
	.loc	1 40 22                 # CoinGame.c:40:22
	cltq
	leaq	(%rax,%rax,2), %rdi
	.loc	1 40 19                 # CoinGame.c:40:19
	cmpl	M-4(%rsi,%rdi,8), %edx
.Ltmp34:
	.loc	1 40 7                  # CoinGame.c:40:7
	cmovgq	%rcx, %rax
.Ltmp35:
	.loc	1 42 19 is_stmt 1       # CoinGame.c:42:19
	movl	V(,%rax,4), %eax
.Ltmp36:
	.loc	1 46 17                 # CoinGame.c:46:17
	movl	%eax, coins+20(%rip)
	xorl	%ebx, %ebx
.Ltmp37:
	.p2align	4, 0x90
.LBB1_1:                                # %for.body19
                                        # =>This Inner Loop Header: Depth=1
	.loc	1 52 6                  # CoinGame.c:52:6
	movq	%rbx, %r15
	andq	$1, %r15
	jne	.LBB1_3
# BB#2:                                 # %if.then21
                                        #   in Loop: Header=BB1_1 Depth=1
.Ltmp38:
	.loc	1 53 4                  # CoinGame.c:53:4
	movl	$.L.str.1, %edi
	jmp	.LBB1_4
.Ltmp39:
	.p2align	4, 0x90
.LBB1_3:                                # %if.else22
                                        #   in Loop: Header=BB1_1 Depth=1
	.loc	1 55 4                  # CoinGame.c:55:4
	movl	$.L.str.2, %edi
.LBB1_4:                                # %if.end24
                                        #   in Loop: Header=BB1_1 Depth=1
	xorl	%eax, %eax
	callq	printf
.Ltmp40:
	.loc	1 51 2 discriminator 1  # CoinGame.c:51:2
	leaq	1(%rbx), %r14
.Ltmp41:
	.loc	1 57 29                 # CoinGame.c:57:29
	movl	coins(,%rbx,4), %edx
	.loc	1 57 3 is_stmt 0        # CoinGame.c:57:3
	movl	$.L.str.3, %edi
	xorl	%eax, %eax
	movl	%r14d, %esi
	callq	printf
.Ltmp42:
	.loc	1 60 17 is_stmt 1       # CoinGame.c:60:17
	movl	coins(,%rbx,4), %eax
.Ltmp43:
	.loc	1 59 6                  # CoinGame.c:59:6
	testq	%r15, %r15
	jne	.LBB1_8
# BB#5:                                 # %if.then31
                                        #   in Loop: Header=BB1_1 Depth=1
.Ltmp44:
	.loc	1 60 14                 # CoinGame.c:60:14
	addl	%eax, sum_alice(%rip)
	.loc	1 61 4                  # CoinGame.c:61:4
	movl	$.L.str.4, %edi
	xorl	%eax, %eax
	callq	printf
	jmp	.LBB1_6
.Ltmp45:
	.p2align	4, 0x90
.LBB1_8:                                # %if.else36
                                        #   in Loop: Header=BB1_1 Depth=1
	.loc	1 63 12                 # CoinGame.c:63:12
	addl	%eax, sum_bob(%rip)
	.loc	1 64 4                  # CoinGame.c:64:4
	movl	$.Lstr, %edi
	callq	puts
.Ltmp46:
.LBB1_6:                                # %for.cond17.backedge
                                        #   in Loop: Header=BB1_1 Depth=1
	.loc	1 51 2 discriminator 1  # CoinGame.c:51:2
	cmpq	$6, %r14
	movq	%r14, %rbx
	jne	.LBB1_1
.Ltmp47:
# BB#7:                                 # %for.end44
	.loc	1 68 1                  # CoinGame.c:68:1
	popq	%rbx
	popq	%r14
	popq	%r15
	retq
.Ltmp48:
.Lfunc_end1:
	.size	play, .Lfunc_end1-play
	.cfi_endproc

	.globl	findMoves
	.p2align	4, 0x90
	.type	findMoves,@function
findMoves:                              # @findMoves
.Lfunc_begin2:
	.loc	1 103 0                 # CoinGame.c:103:0
	.cfi_startproc
# BB#0:                                 # %entry
	pushq	%rbp
.Ltmp49:
	.cfi_def_cfa_offset 16
	pushq	%r15
.Ltmp50:
	.cfi_def_cfa_offset 24
	pushq	%r14
.Ltmp51:
	.cfi_def_cfa_offset 32
	pushq	%r13
.Ltmp52:
	.cfi_def_cfa_offset 40
	pushq	%r12
.Ltmp53:
	.cfi_def_cfa_offset 48
	pushq	%rbx
.Ltmp54:
	.cfi_def_cfa_offset 56
.Ltmp55:
	.cfi_offset %rbx, -56
.Ltmp56:
	.cfi_offset %r12, -48
.Ltmp57:
	.cfi_offset %r13, -40
.Ltmp58:
	.cfi_offset %r14, -32
.Ltmp59:
	.cfi_offset %r15, -24
.Ltmp60:
	.cfi_offset %rbp, -16
	xorl	%eax, %eax
.Ltmp61:
	#DEBUG_VALUE: findMoves:s <- 0
	movl	$1, %r8d
	xorl	%ecx, %ecx
	jmp	.LBB2_1
.LBB2_15:                               # %polly.merge240.thread
                                        #   in Loop: Header=BB2_1 Depth=1
	incq	%rdx
	movq	%rdx, %rcx
	.p2align	4, 0x90
.LBB2_1:                                # %polly.loop_header
                                        # =>This Loop Header: Depth=1
                                        #     Child Loop BB2_10 Depth 2
                                        #     Child Loop BB2_12 Depth 2
                                        #     Child Loop BB2_14 Depth 2
                                        #     Child Loop BB2_5 Depth 2
	movq	%rcx, %rdx
	cmpq	$3, %rdx
	jge	.LBB2_8
# BB#2:                                 # %polly.loop_preheader233
                                        #   in Loop: Header=BB2_1 Depth=1
	movl	$0, X(,%rdx,4)
	movl	$0, X+28(,%rdx,4)
	movl	$0, X+56(,%rdx,4)
	movl	$0, X+84(,%rdx,4)
	cmpq	$2, %rdx
	movl	$3, %ecx
	je	.LBB2_1
# BB#3:                                 # %polly.loop_preheader244.split
                                        #   in Loop: Header=BB2_1 Depth=1
	cmpq	%rdx, %r8
	js	.LBB2_15
# BB#4:                                 # %polly.loop_header253.us542.1.preheader
                                        #   in Loop: Header=BB2_1 Depth=1
	movq	%rdx, %rsi
	negq	%rsi
	leaq	X+112(,%rdx,4), %rdi
	movq	$-1, %rbx
	.p2align	4, 0x90
.LBB2_5:                                # %polly.loop_header253.us542.1
                                        #   Parent Loop BB2_1 Depth=1
                                        # =>  This Inner Loop Header: Depth=2
	movl	$0, (%rdi)
	incq	%rbx
	addq	$28, %rdi
	cmpq	%rsi, %rbx
	jle	.LBB2_5
	jmp	.LBB2_6
	.p2align	4, 0x90
.LBB2_8:                                # %polly.loop_preheader244.split.us
                                        #   in Loop: Header=BB2_1 Depth=1
	movl	$4, %esi
	subq	%rdx, %rsi
	cmpq	%rdx, %r8
	js	.LBB2_9
# BB#11:                                # %polly.loop_header267.us.us.preheader
                                        #   in Loop: Header=BB2_1 Depth=1
	movq	%rdx, %rdi
	negq	%rdi
	leaq	X(,%rdx,4), %rbx
	movq	$-1, %rcx
	.p2align	4, 0x90
.LBB2_12:                               # %polly.loop_header267.us.us
                                        #   Parent Loop BB2_1 Depth=1
                                        # =>  This Inner Loop Header: Depth=2
	movl	$0, (%rbx)
	incq	%rcx
	addq	$28, %rbx
	cmpq	%rsi, %rcx
	jle	.LBB2_12
# BB#13:                                # %polly.loop_header253.us.us.1.preheader
                                        #   in Loop: Header=BB2_1 Depth=1
	leaq	X+112(,%rdx,4), %rsi
	movq	$-1, %rbx
	.p2align	4, 0x90
.LBB2_14:                               # %polly.loop_header253.us.us.1
                                        #   Parent Loop BB2_1 Depth=1
                                        # =>  This Inner Loop Header: Depth=2
	movl	$0, (%rsi)
	incq	%rbx
	addq	$28, %rsi
	cmpq	%rdi, %rbx
	jle	.LBB2_14
	jmp	.LBB2_6
.LBB2_9:                                # %polly.loop_header267.us.preheader
                                        #   in Loop: Header=BB2_1 Depth=1
	leaq	X(,%rdx,4), %rdi
	movq	$-1, %rbx
	.p2align	4, 0x90
.LBB2_10:                               # %polly.loop_header267.us
                                        #   Parent Loop BB2_1 Depth=1
                                        # =>  This Inner Loop Header: Depth=2
	movl	$0, (%rdi)
	incq	%rbx
	addq	$28, %rdi
	cmpq	%rsi, %rbx
	jle	.LBB2_10
.LBB2_6:                                # %polly.merge240
                                        #   in Loop: Header=BB2_1 Depth=1
	leaq	1(%rdx), %rcx
	cmpq	$5, %rdx
	jl	.LBB2_1
# BB#7:
	movl	$1, %r8d
	xorl	%ecx, %ecx
	jmp	.LBB2_19
.LBB2_30:                               # %polly.merge297.thread
                                        #   in Loop: Header=BB2_19 Depth=1
	incq	%rsi
	movq	%rsi, %rax
	jmp	.LBB2_19
	.p2align	4, 0x90
.LBB2_16:                               # %polly.merge297
                                        #   in Loop: Header=BB2_19 Depth=1
	leaq	1(%rsi), %rax
	cmpq	$5, %rsi
	jl	.LBB2_19
	jmp	.LBB2_17
	.p2align	4, 0x90
.LBB2_18:                               # %polly.loop_preheader289
                                        #   in Loop: Header=BB2_19 Depth=1
	movl	$0, Y(,%rsi,4)
	movl	$0, Y+28(,%rsi,4)
	movl	$0, Y+56(,%rsi,4)
	movl	$0, Y+84(,%rsi,4)
	cmpq	$2, %rsi
	movl	$3, %eax
	jne	.LBB2_27
.LBB2_19:                               # %polly.loop_header278
                                        # =>This Loop Header: Depth=1
                                        #     Child Loop BB2_22 Depth 2
                                        #     Child Loop BB2_24 Depth 2
                                        #     Child Loop BB2_26 Depth 2
                                        #     Child Loop BB2_29 Depth 2
	movq	%rax, %rsi
	cmpq	$3, %rsi
	jl	.LBB2_18
# BB#20:                                # %polly.loop_preheader301.split.us
                                        #   in Loop: Header=BB2_19 Depth=1
	movl	$4, %eax
	subq	%rsi, %rax
	cmpq	%rsi, %r8
	js	.LBB2_21
# BB#23:                                # %polly.loop_header329.us.us.preheader
                                        #   in Loop: Header=BB2_19 Depth=1
	movq	%rsi, %rdi
	negq	%rdi
	leaq	Y(,%rsi,4), %rbx
	movq	$-1, %rdx
	.p2align	4, 0x90
.LBB2_24:                               # %polly.loop_header329.us.us
                                        #   Parent Loop BB2_19 Depth=1
                                        # =>  This Inner Loop Header: Depth=2
	movl	$0, (%rbx)
	incq	%rdx
	addq	$28, %rbx
	cmpq	%rax, %rdx
	jle	.LBB2_24
# BB#25:                                # %polly.loop_header311.us.us.1.preheader
                                        #   in Loop: Header=BB2_19 Depth=1
	leaq	Y+112(,%rsi,4), %rax
	movq	$-1, %rbx
	.p2align	4, 0x90
.LBB2_26:                               # %polly.loop_header311.us.us.1
                                        #   Parent Loop BB2_19 Depth=1
                                        # =>  This Inner Loop Header: Depth=2
	movl	$0, (%rax)
	incq	%rbx
	addq	$28, %rax
	cmpq	%rdi, %rbx
	jle	.LBB2_26
	jmp	.LBB2_16
	.p2align	4, 0x90
.LBB2_27:                               # %polly.loop_preheader301.split
                                        #   in Loop: Header=BB2_19 Depth=1
	cmpq	%rsi, %r8
	js	.LBB2_30
# BB#28:                                # %polly.loop_header311.us521.1.preheader
                                        #   in Loop: Header=BB2_19 Depth=1
	movq	%rsi, %rax
	negq	%rax
	leaq	Y+112(,%rsi,4), %rdi
	movq	$-1, %rbx
	.p2align	4, 0x90
.LBB2_29:                               # %polly.loop_header311.us521.1
                                        #   Parent Loop BB2_19 Depth=1
                                        # =>  This Inner Loop Header: Depth=2
	movl	$0, (%rdi)
	incq	%rbx
	addq	$28, %rdi
	cmpq	%rax, %rbx
	jle	.LBB2_29
	jmp	.LBB2_16
.LBB2_21:                               # %polly.loop_header329.us.preheader
                                        #   in Loop: Header=BB2_19 Depth=1
	leaq	Y(,%rsi,4), %rdi
	movq	$-1, %rbx
	.p2align	4, 0x90
.LBB2_22:                               # %polly.loop_header329.us
                                        #   Parent Loop BB2_19 Depth=1
                                        # =>  This Inner Loop Header: Depth=2
	movl	$0, (%rdi)
	incq	%rbx
	addq	$28, %rdi
	cmpq	%rax, %rbx
	jle	.LBB2_22
	jmp	.LBB2_16
.LBB2_17:
	movl	$1, %eax
	jmp	.LBB2_42
.LBB2_53:                               # %polly.merge361.thread
                                        #   in Loop: Header=BB2_42 Depth=1
	incq	%rdx
	movq	%rdx, %rcx
	jmp	.LBB2_42
	.p2align	4, 0x90
.LBB2_31:                               # %polly.merge361
                                        #   in Loop: Header=BB2_42 Depth=1
	leaq	1(%rdx), %rcx
	cmpq	$5, %rdx
	jl	.LBB2_42
	jmp	.LBB2_32
	.p2align	4, 0x90
.LBB2_41:                               # %polly.loop_preheader353
                                        #   in Loop: Header=BB2_42 Depth=1
	movl	$0, Z(,%rdx,4)
	movl	$0, Z+28(,%rdx,4)
	movl	$0, Z+56(,%rdx,4)
	movl	$0, Z+84(,%rdx,4)
	cmpq	$2, %rdx
	movl	$3, %ecx
	jne	.LBB2_50
.LBB2_42:                               # %polly.loop_header342
                                        # =>This Loop Header: Depth=1
                                        #     Child Loop BB2_45 Depth 2
                                        #     Child Loop BB2_47 Depth 2
                                        #     Child Loop BB2_49 Depth 2
                                        #     Child Loop BB2_52 Depth 2
	movq	%rcx, %rdx
	cmpq	$3, %rdx
	jl	.LBB2_41
# BB#43:                                # %polly.loop_preheader365.split.us
                                        #   in Loop: Header=BB2_42 Depth=1
	movl	$4, %ecx
	subq	%rdx, %rcx
	cmpq	%rdx, %rax
	js	.LBB2_44
# BB#46:                                # %polly.loop_header391.us.us.preheader
                                        #   in Loop: Header=BB2_42 Depth=1
	movq	%rdx, %rsi
	negq	%rsi
	leaq	Z(,%rdx,4), %rdi
	movq	$-1, %rbx
	.p2align	4, 0x90
.LBB2_47:                               # %polly.loop_header391.us.us
                                        #   Parent Loop BB2_42 Depth=1
                                        # =>  This Inner Loop Header: Depth=2
	movl	$0, (%rdi)
	incq	%rbx
	addq	$28, %rdi
	cmpq	%rcx, %rbx
	jle	.LBB2_47
# BB#48:                                # %polly.loop_header375.us.us.1.preheader
                                        #   in Loop: Header=BB2_42 Depth=1
	leaq	Z+112(,%rdx,4), %rcx
	movq	$-1, %rdi
	.p2align	4, 0x90
.LBB2_49:                               # %polly.loop_header375.us.us.1
                                        #   Parent Loop BB2_42 Depth=1
                                        # =>  This Inner Loop Header: Depth=2
	movl	$0, (%rcx)
	incq	%rdi
	addq	$28, %rcx
	cmpq	%rsi, %rdi
	jle	.LBB2_49
	jmp	.LBB2_31
	.p2align	4, 0x90
.LBB2_50:                               # %polly.loop_preheader365.split
                                        #   in Loop: Header=BB2_42 Depth=1
	cmpq	%rdx, %rax
	js	.LBB2_53
# BB#51:                                # %polly.loop_header375.us500.1.preheader
                                        #   in Loop: Header=BB2_42 Depth=1
	movq	%rdx, %rcx
	negq	%rcx
	leaq	Z+112(,%rdx,4), %rsi
	movq	$-1, %rdi
	.p2align	4, 0x90
.LBB2_52:                               # %polly.loop_header375.us500.1
                                        #   Parent Loop BB2_42 Depth=1
                                        # =>  This Inner Loop Header: Depth=2
	movl	$0, (%rsi)
	incq	%rdi
	addq	$28, %rsi
	cmpq	%rcx, %rdi
	jle	.LBB2_52
	jmp	.LBB2_31
.LBB2_44:                               # %polly.loop_header391.us.preheader
                                        #   in Loop: Header=BB2_42 Depth=1
	leaq	Z(,%rdx,4), %rsi
	movq	$-1, %rdi
	.p2align	4, 0x90
.LBB2_45:                               # %polly.loop_header391.us
                                        #   Parent Loop BB2_42 Depth=1
                                        # =>  This Inner Loop Header: Depth=2
	movl	$0, (%rsi)
	incq	%rdi
	addq	$28, %rsi
	cmpq	%rcx, %rdi
	jle	.LBB2_45
	jmp	.LBB2_31
.LBB2_32:                               # %polly.loop_header402.preheader
	movl	V(%rip), %eax
	movl	%eax, -20(%rsp)         # 4-byte Spill
	movl	$1, %eax
	xorl	%r12d, %r12d
	movl	$2, %ecx
	xorl	%r13d, %r13d
	.p2align	4, 0x90
.LBB2_33:                               # %polly.loop_header402
                                        # =>This Loop Header: Depth=1
                                        #     Child Loop BB2_58 Depth 2
                                        #     Child Loop BB2_60 Depth 2
                                        #     Child Loop BB2_62 Depth 2
                                        #     Child Loop BB2_38 Depth 2
	movq	%rcx, -16(%rsp)         # 8-byte Spill
	movq	%rax, -8(%rsp)          # 8-byte Spill
	testq	%rcx, %rcx
	movl	$0, %r14d
	cmovnsq	%rcx, %r14
	testq	%rax, %rax
	movl	$0, %ecx
	cmovnsq	%rax, %rcx
	testq	%r13, %r13
	jle	.LBB2_34
# BB#54:                                # %polly.then410
                                        #   in Loop: Header=BB2_33 Depth=1
	movl	$7, %edx
	subl	%r13d, %edx
	testb	$1, %dl
	movl	$0, %edx
	je	.LBB2_56
# BB#55:                                # %polly.loop_header412.prol
                                        #   in Loop: Header=BB2_33 Depth=1
	movl	X-4(,%r13,4), %edx
.Ltmp62:
	.loc	1 139 13 prologue_end   # CoinGame.c:139:13
	addl	-20(%rsp), %edx         # 4-byte Folded Reload
	movl	Z-4(,%r13,4), %esi
	.loc	1 139 30 is_stmt 0      # CoinGame.c:139:30
	addl	V-4(,%r13,4), %esi
	.loc	1 139 23                # CoinGame.c:139:23
	cmpl	%esi, %edx
.Ltmp63:
	.loc	1 139 8                 # CoinGame.c:139:8
	cmovgel	%edx, %esi
	movl	%esi, M-4(,%r13,4)
	movl	$1, %edx
.LBB2_56:                               # %polly.then410.split
                                        #   in Loop: Header=BB2_33 Depth=1
	cmpq	$6, %r13
	je	.LBB2_34
# BB#57:                                # %polly.then410.split.split
                                        #   in Loop: Header=BB2_33 Depth=1
	movl	$7, %ebx
	subq	%rdx, %rbx
	leaq	V(,%rdx,4), %r11
	imulq	$28, %rdx, %r15
	xorl	%edx, %edx
	xorl	%edi, %edi
	.p2align	4, 0x90
.LBB2_58:                               # %polly.loop_header412
                                        #   Parent Loop BB2_33 Depth=1
                                        # =>  This Inner Loop Header: Depth=2
	leaq	(%r11,%rdi), %rbp
	leaq	(%r15,%rdx), %r8
	movl	X-4(%r8,%r13,4), %r9d
.Ltmp64:
	.loc	1 139 13                # CoinGame.c:139:13
	addl	(%r11,%rdi), %r9d
	movl	Z-4(%r8,%r13,4), %r10d
	.loc	1 139 30                # CoinGame.c:139:30
	addl	-4(%rbp,%r13,4), %r10d
	.loc	1 139 23                # CoinGame.c:139:23
	cmpl	%r10d, %r9d
.Ltmp65:
	.loc	1 139 8                 # CoinGame.c:139:8
	cmovgel	%r9d, %r10d
	movl	%r10d, M-4(%r8,%r13,4)
	movl	X+24(%r8,%r13,4), %esi
.Ltmp66:
	.loc	1 139 13                # CoinGame.c:139:13
	addl	4(%r11,%rdi), %esi
	movl	Z+24(%r8,%r13,4), %eax
	.loc	1 139 30                # CoinGame.c:139:30
	addl	(%rbp,%r13,4), %eax
	.loc	1 139 23                # CoinGame.c:139:23
	cmpl	%eax, %esi
.Ltmp67:
	.loc	1 139 8                 # CoinGame.c:139:8
	cmovgel	%esi, %eax
	movl	%eax, M+24(%r8,%r13,4)
	addq	$-2, %rbx
	addq	$8, %rdi
	addq	$56, %rdx
	cmpq	%r13, %rbx
	jne	.LBB2_58
.Ltmp68:
.LBB2_34:                               # %polly.merge409
                                        #   in Loop: Header=BB2_33 Depth=1
	movl	$1, %edx
	subq	%r13, %rdx
	movl	$0, %esi
	cmovnsq	%rdx, %rsi
	movl	$5, %ebx
	subq	%r13, %rbx
	cmpq	$4, %rbx
	movq	%rbx, %rdx
	movl	$4, %eax
	cmovgq	%rax, %rdx
	cmpq	%rdx, %rsi
	jg	.LBB2_35
# BB#59:                                # %polly.loop_preheader429
                                        #   in Loop: Header=BB2_33 Depth=1
	imulq	$28, %rcx, %rsi
	decq	%rcx
	addq	%r12, %rsi
	decq	%rdx
	xorl	%edi, %edi
	.p2align	4, 0x90
.LBB2_60:                               # %polly.loop_header428
                                        #   Parent Loop BB2_33 Depth=1
                                        # =>  This Inner Loop Header: Depth=2
	movl	M+20(%rsi,%rdi), %eax
	movl	%eax, Y(%rsi,%rdi)
	incq	%rcx
	addq	$28, %rdi
	cmpq	%rdx, %rcx
	jle	.LBB2_60
.LBB2_35:                               # %polly.loop_exit430
                                        #   in Loop: Header=BB2_33 Depth=1
	cmpq	$3, %rbx
	movq	%rbx, %rcx
	movl	$3, %eax
	cmovgq	%rax, %rcx
	testq	%rcx, %rcx
	js	.LBB2_36
# BB#61:                                # %polly.loop_preheader443
                                        #   in Loop: Header=BB2_33 Depth=1
	decq	%rcx
	movq	$-1, %rdx
	movq	%r12, %rsi
	.p2align	4, 0x90
.LBB2_62:                               # %polly.loop_header442
                                        #   Parent Loop BB2_33 Depth=1
                                        # =>  This Inner Loop Header: Depth=2
	movl	M+48(%rsi), %eax
	movl	Y(%rsi), %edi
.Ltmp69:
	.loc	1 119 17 is_stmt 1      # CoinGame.c:119:17
	cmpl	%edi, %eax
.Ltmp70:
	.loc	1 119 9 is_stmt 0       # CoinGame.c:119:9
	cmovgl	%edi, %eax
	movl	%eax, X(%rsi)
	incq	%rdx
	addq	$28, %rsi
	cmpq	%rcx, %rdx
	jle	.LBB2_62
.Ltmp71:
.LBB2_36:                               # %polly.loop_exit444
                                        #   in Loop: Header=BB2_33 Depth=1
	movl	$2, %ecx
	subq	%r13, %rcx
	movl	$0, %edx
	cmovnsq	%rcx, %rdx
	cmpq	%rbx, %rdx
	jg	.LBB2_39
# BB#37:                                #   in Loop: Header=BB2_33 Depth=1
	imulq	$28, %r14, %rcx
	decq	%r14
	.p2align	4, 0x90
.LBB2_38:                               # %polly.loop_header459
                                        #   Parent Loop BB2_33 Depth=1
                                        # =>  This Inner Loop Header: Depth=2
	movl	M-8(%rcx,%r12), %eax
	movl	Y(%rcx,%r12), %edx
.Ltmp72:
	.loc	1 127 17 is_stmt 1      # CoinGame.c:127:17
	cmpl	%edx, %eax
.Ltmp73:
	.loc	1 127 9 is_stmt 0       # CoinGame.c:127:9
	cmovgl	%edx, %eax
	movl	%eax, Z(%rcx,%r12)
	incq	%r14
	addq	$28, %rcx
	cmpq	%rbx, %r14
	jl	.LBB2_38
.Ltmp74:
.LBB2_39:                               # %polly.loop_exit461
                                        #   in Loop: Header=BB2_33 Depth=1
	incq	%r13
	movq	-8(%rsp), %rax          # 8-byte Reload
	decq	%rax
	addq	$4, %r12
	movq	-16(%rsp), %rcx         # 8-byte Reload
	decq	%rcx
	cmpq	$7, %r13
	jne	.LBB2_33
# BB#40:                                # %polly.exiting
	.loc	1 152 9 is_stmt 1       # CoinGame.c:152:9
	movl	M+20(%rip), %eax
	.loc	1 152 2 is_stmt 0       # CoinGame.c:152:2
	popq	%rbx
	popq	%r12
	popq	%r13
	popq	%r14
	popq	%r15
	popq	%rbp
	retq
.Ltmp75:
.Lfunc_end2:
	.size	findMoves, .Lfunc_end2-findMoves
	.cfi_endproc

	.globl	main
	.p2align	4, 0x90
	.type	main,@function
main:                                   # @main
.Lfunc_begin3:
	.loc	1 154 0 is_stmt 1       # CoinGame.c:154:0
	.cfi_startproc
# BB#0:                                 # %entry
	.loc	1 156 2 prologue_end    # CoinGame.c:156:2
	pushq	%rax
.Ltmp76:
	.cfi_def_cfa_offset 16
	callq	findMoves
	.loc	1 157 2                 # CoinGame.c:157:2
	callq	play
.Ltmp77:
	.loc	1 160 6                 # CoinGame.c:160:6
	movl	sum_alice(%rip), %esi
	.loc	1 160 16 is_stmt 0      # CoinGame.c:160:16
	cmpl	M+20(%rip), %esi
	jne	.LBB3_1
.Ltmp78:
# BB#3:                                 # %if.end
	.loc	1 165 6 is_stmt 1       # CoinGame.c:165:6
	cmpl	sum_bob(%rip), %esi
	jl	.LBB3_4
# BB#5:                                 # %if.end5
	.loc	1 170 2                 # CoinGame.c:170:2
	movl	$.L.str.8, %edi
	xorl	%eax, %eax
	callq	printf
	.loc	1 171 65                # CoinGame.c:171:65
	movl	sum_bob(%rip), %esi
	.loc	1 171 2 is_stmt 0       # CoinGame.c:171:2
	movl	$.L.str.9, %edi
	xorl	%eax, %eax
	callq	printf
	.loc	1 172 1 is_stmt 1       # CoinGame.c:172:1
	xorl	%eax, %eax
	popq	%rcx
	retq
.LBB3_1:                                # %if.then
.Ltmp79:
	.loc	1 161 3                 # CoinGame.c:161:3
	movl	$.L.str.6, %edi
	jmp	.LBB3_2
.Ltmp80:
.LBB3_4:                                # %if.then3
	.loc	1 166 3                 # CoinGame.c:166:3
	movl	$.L.str.7, %edi
.Ltmp81:
.LBB3_2:                                # %if.then
	.loc	1 161 3                 # CoinGame.c:161:3
	xorl	%eax, %eax
	callq	printf
	.loc	1 162 3                 # CoinGame.c:162:3
	movl	$-1, %edi
	callq	exit
.Ltmp82:
.Lfunc_end3:
	.size	main, .Lfunc_end3-main
	.cfi_endproc

	.type	V,@object               # @V
	.data
	.globl	V
	.p2align	4
V:
	.long	6                       # 0x6
	.long	5                       # 0x5
	.long	2                       # 0x2
	.long	7                       # 0x7
	.long	3                       # 0x3
	.long	5                       # 0x5
	.size	V, 24

	.type	sum_alice,@object       # @sum_alice
	.bss
	.globl	sum_alice
	.p2align	2
sum_alice:
	.long	0                       # 0x0
	.size	sum_alice, 4

	.type	sum_bob,@object         # @sum_bob
	.globl	sum_bob
	.p2align	2
sum_bob:
	.long	0                       # 0x0
	.size	sum_bob, 4

	.type	.L.str,@object          # @.str
	.section	.rodata.str1.1,"aMS",@progbits,1
.L.str:
	.asciz	"Number of coins = %d\n"
	.size	.L.str, 22

	.type	M,@object               # @M
	.comm	M,144,16
	.type	coins,@object           # @coins
	.comm	coins,24,16
	.type	.L.str.1,@object        # @.str.1
.L.str.1:
	.asciz	"Alice take coin "
	.size	.L.str.1, 17

	.type	.L.str.2,@object        # @.str.2
.L.str.2:
	.asciz	"Bob take coin "
	.size	.L.str.2, 15

	.type	.L.str.3,@object        # @.str.3
.L.str.3:
	.asciz	"(%d, $%d)"
	.size	.L.str.3, 10

	.type	.L.str.4,@object        # @.str.4
.L.str.4:
	.asciz	", "
	.size	.L.str.4, 3

	.type	Y,@object               # @Y
	.comm	Y,144,16
	.type	X,@object               # @X
	.comm	X,144,16
	.type	Z,@object               # @Z
	.comm	Z,144,16
	.type	.L.str.6,@object        # @.str.6
.L.str.6:
	.asciz	"Alice's sum is Wrong!!!"
	.size	.L.str.6, 24

	.type	.L.str.7,@object        # @.str.7
.L.str.7:
	.asciz	"Alice's sum <= Bob's sum!!!"
	.size	.L.str.7, 28

	.type	.L.str.8,@object        # @.str.8
.L.str.8:
	.asciz	"\nThe total amount of money (maximum) Alice get is %d."
	.size	.L.str.8, 54

	.type	.L.str.9,@object        # @.str.9
.L.str.9:
	.asciz	"\nThe total amount of money (maximum) Bob get is %d."
	.size	.L.str.9, 52

	.type	.Lstr,@object           # @str
.Lstr:
	.asciz	"."
	.size	.Lstr, 2

	.section	".note.GNU-stack","",@progbits