	.text
	.file	"llvm/MatrixMult.openmp.enablevc.ll"
	.globl	copy_Matrix
	.p2align	4, 0x90
	.type	copy_Matrix,@function
copy_Matrix:                            # @copy_Matrix
.Lfunc_begin0:
	.file	1 "MatrixMult.c"
	.loc	1 2 0                   # MatrixMult.c:2:0
	.cfi_startproc
# BB#0:                                 # %entry
	pushq	%r14
.Ltmp0:
	.cfi_def_cfa_offset 16
	pushq	%rbx
.Ltmp1:
	.cfi_def_cfa_offset 24
	pushq	%rax
.Ltmp2:
	.cfi_def_cfa_offset 32
.Ltmp3:
	.cfi_offset %rbx, -24
.Ltmp4:
	.cfi_offset %r14, -16
	#DEBUG_VALUE: copy_Matrix:_Matrix <- %RDI
	movq	%rdi, %r14
.Ltmp5:
	#DEBUG_VALUE: copy_Matrix:_Matrix <- %R14
	.loc	1 3 23 prologue_end discriminator 1 # MatrixMult.c:3:23
	movl	$32, %edi
	callq	malloc
	movq	%rax, %rbx
.Ltmp6:
	#DEBUG_VALUE: copy_Matrix:new_Matrix <- %RBX
	.loc	1 4 2                   # MatrixMult.c:4:2
	movq	8(%r14), %rsi
	movq	%rsi, 8(%rbx)
	movq	(%r14), %rdi
	callq	copy
	movq	%rax, (%rbx)
	.loc	1 5 31                  # MatrixMult.c:5:31
	movups	16(%r14), %xmm0
	.loc	1 5 20 is_stmt 0        # MatrixMult.c:5:20
	movups	%xmm0, 16(%rbx)
	.loc	1 7 2 is_stmt 1         # MatrixMult.c:7:2
	movq	%rbx, %rax
	addq	$8, %rsp
	popq	%rbx
.Ltmp7:
	popq	%r14
.Ltmp8:
	retq
.Ltmp9:
.Lfunc_end0:
	.size	copy_Matrix, .Lfunc_end0-copy_Matrix
	.cfi_endproc

	.globl	free_Matrix
	.p2align	4, 0x90
	.type	free_Matrix,@function
free_Matrix:                            # @free_Matrix
.Lfunc_begin1:
	.loc	1 9 0                   # MatrixMult.c:9:0
	.cfi_startproc
# BB#0:                                 # %entry
	pushq	%rbx
.Ltmp10:
	.cfi_def_cfa_offset 16
.Ltmp11:
	.cfi_offset %rbx, -16
	#DEBUG_VALUE: free_Matrix:matrix <- %RDI
	movq	%rdi, %rbx
.Ltmp12:
	#DEBUG_VALUE: free_Matrix:matrix <- %RBX
	.loc	1 10 15 prologue_end    # MatrixMult.c:10:15
	movq	(%rbx), %rdi
	.loc	1 10 2 is_stmt 0        # MatrixMult.c:10:2
	callq	free
	.loc	1 11 2 is_stmt 1        # MatrixMult.c:11:2
	movq	%rbx, %rdi
	popq	%rbx
.Ltmp13:
	jmp	free                    # TAILCALL
.Ltmp14:
.Lfunc_end1:
	.size	free_Matrix, .Lfunc_end1-free_Matrix
	.cfi_endproc

	.globl	printf_Matrix
	.p2align	4, 0x90
	.type	printf_Matrix,@function
printf_Matrix:                          # @printf_Matrix
.Lfunc_begin2:
	.loc	1 13 0                  # MatrixMult.c:13:0
	.cfi_startproc
# BB#0:                                 # %entry
	pushq	%rbx
.Ltmp15:
	.cfi_def_cfa_offset 16
.Ltmp16:
	.cfi_offset %rbx, -16
	#DEBUG_VALUE: printf_Matrix:matrix <- %RDI
	movq	%rdi, %rbx
.Ltmp17:
	#DEBUG_VALUE: printf_Matrix:matrix <- %RBX
	.loc	1 14 2 prologue_end     # MatrixMult.c:14:2
	movl	$123, %edi
	callq	putchar
	.loc	1 15 2                  # MatrixMult.c:15:2
	movl	$.L.str.1, %edi
	xorl	%eax, %eax
	callq	printf
	.loc	1 16 2                  # MatrixMult.c:16:2
	movq	(%rbx), %rdi
	movq	8(%rbx), %rsi
	callq	printf1DArray
	.loc	1 17 2                  # MatrixMult.c:17:2
	movl	$.L.str.2, %edi
	xorl	%eax, %eax
	callq	printf
	.loc	1 18 25                 # MatrixMult.c:18:25
	movq	16(%rbx), %rsi
	.loc	1 18 2 is_stmt 0        # MatrixMult.c:18:2
	movl	$.L.str.3, %edi
	xorl	%eax, %eax
	callq	printf
	.loc	1 19 2 is_stmt 1        # MatrixMult.c:19:2
	movl	$.L.str.4, %edi
	xorl	%eax, %eax
	callq	printf
	.loc	1 20 25                 # MatrixMult.c:20:25
	movq	24(%rbx), %rsi
	.loc	1 20 2 is_stmt 0        # MatrixMult.c:20:2
	movl	$.L.str.3, %edi
	xorl	%eax, %eax
	callq	printf
	.loc	1 21 2 is_stmt 1        # MatrixMult.c:21:2
	movl	$125, %edi
	popq	%rbx
.Ltmp18:
	jmp	putchar                 # TAILCALL
.Ltmp19:
.Lfunc_end2:
	.size	printf_Matrix, .Lfunc_end2-printf_Matrix
	.cfi_endproc

	.globl	matrix
	.p2align	4, 0x90
	.type	matrix,@function
matrix:                                 # @matrix
.Lfunc_begin3:
	.loc	1 23 0                  # MatrixMult.c:23:0
	.cfi_startproc
# BB#0:                                 # %entry
	pushq	%rbp
.Ltmp20:
	.cfi_def_cfa_offset 16
	pushq	%r15
.Ltmp21:
	.cfi_def_cfa_offset 24
	pushq	%r14
.Ltmp22:
	.cfi_def_cfa_offset 32
	pushq	%r13
.Ltmp23:
	.cfi_def_cfa_offset 40
	pushq	%r12
.Ltmp24:
	.cfi_def_cfa_offset 48
	pushq	%rbx
.Ltmp25:
	.cfi_def_cfa_offset 56
	pushq	%rax
.Ltmp26:
	.cfi_def_cfa_offset 64
.Ltmp27:
	.cfi_offset %rbx, -56
.Ltmp28:
	.cfi_offset %r12, -48
.Ltmp29:
	.cfi_offset %r13, -40
.Ltmp30:
	.cfi_offset %r14, -32
.Ltmp31:
	.cfi_offset %r15, -24
.Ltmp32:
	.cfi_offset %rbp, -16
	#DEBUG_VALUE: matrix:width <- %RDI
	#DEBUG_VALUE: matrix:height <- %RSI
	#DEBUG_VALUE: matrix:data <- %RDX
	#DEBUG_VALUE: matrix:data_size <- %RCX
	#DEBUG_VALUE: matrix:data_has_ownership [bit_piece offset=0 size=1] <- %R8D
	movl	%r8d, %r15d
.Ltmp33:
	#DEBUG_VALUE: matrix:data_has_ownership [bit_piece offset=0 size=1] <- %R15D
	movq	%rcx, %rbp
.Ltmp34:
	#DEBUG_VALUE: matrix:data_size <- %RBP
	movq	%rdx, %r14
.Ltmp35:
	#DEBUG_VALUE: matrix:data <- %R14
	movq	%rsi, %r12
.Ltmp36:
	#DEBUG_VALUE: matrix:height <- %R12
	movq	%rdi, %r13
.Ltmp37:
	#DEBUG_VALUE: matrix:_4_has_ownership <- 0
	#DEBUG_VALUE: matrix:r_has_ownership <- 0
	#DEBUG_VALUE: matrix:data_has_ownership [bit_piece offset=0 size=1] <- %R15B
	#DEBUG_VALUE: matrix:width <- %R13
	.loc	1 30 7 prologue_end     # MatrixMult.c:30:7
	movl	$32, %edi
	callq	malloc
	movq	%rax, %rbx
	.loc	1 31 2                  # MatrixMult.c:31:2
	movq	%rbp, 8(%rbx)
	movq	%r14, %rdi
	movq	%rbp, %rsi
	callq	copy
	movq	%rax, (%rbx)
	.loc	1 32 13                 # MatrixMult.c:32:13
	movq	%r12, 24(%rbx)
	.loc	1 33 12                 # MatrixMult.c:33:12
	movq	%r13, 16(%rbx)
.Ltmp38:
	#DEBUG_VALUE: matrix:_4_has_ownership <- 1
	.loc	1 36 2                  # MatrixMult.c:36:2
	testb	%r15b, %r15b
	je	.LBB3_2
.Ltmp39:
# BB#1:                                 # %if.then7
	#DEBUG_VALUE: matrix:width <- %R13
	#DEBUG_VALUE: matrix:data_has_ownership [bit_piece offset=0 size=1] <- %R15B
	#DEBUG_VALUE: matrix:height <- %R12
	#DEBUG_VALUE: matrix:data <- %R14
	#DEBUG_VALUE: matrix:data_size <- %RBP
	.loc	1 36 2 is_stmt 0 discriminator 1 # MatrixMult.c:36:2
	movq	%r14, %rdi
	callq	free
.Ltmp40:
	#DEBUG_VALUE: matrix:data_has_ownership <- 0
.LBB3_2:                                # %if.end11
	#DEBUG_VALUE: matrix:width <- %R13
	#DEBUG_VALUE: matrix:height <- %R12
	#DEBUG_VALUE: matrix:data <- %R14
	#DEBUG_VALUE: matrix:data_size <- %RBP
	.loc	1 38 2 is_stmt 1        # MatrixMult.c:38:2
	movq	%rbx, %rax
	addq	$8, %rsp
	popq	%rbx
	popq	%r12
.Ltmp41:
	popq	%r13
.Ltmp42:
	popq	%r14
.Ltmp43:
	popq	%r15
	popq	%rbp
.Ltmp44:
	retq
.Ltmp45:
.Lfunc_end3:
	.size	matrix, .Lfunc_end3-matrix
	.cfi_endproc

	.section	.rodata.cst16,"aM",@progbits,16
	.p2align	4
.LCPI4_0:
	.quad	200                     # 0xc8
	.quad	200                     # 0xc8
	.text
	.globl	init
	.p2align	4, 0x90
	.type	init,@function
init:                                   # @init
.Lfunc_begin4:
	.loc	1 42 0                  # MatrixMult.c:42:0
	.cfi_startproc
# BB#0:                                 # %entry
	.loc	1 85 2 prologue_end     # MatrixMult.c:85:2
	pushq	%r15
.Ltmp46:
	.cfi_def_cfa_offset 16
	pushq	%r14
.Ltmp47:
	.cfi_def_cfa_offset 24
	pushq	%rbx
.Ltmp48:
	.cfi_def_cfa_offset 32
	subq	$16, %rsp
.Ltmp49:
	.cfi_def_cfa_offset 48
.Ltmp50:
	.cfi_offset %rbx, -32
.Ltmp51:
	.cfi_offset %r14, -24
.Ltmp52:
	.cfi_offset %r15, -16
.Ltmp53:
	#DEBUG_VALUE: init:r_has_ownership <- 0
	#DEBUG_VALUE: init:data_size <- 0
	#DEBUG_VALUE: init:data_has_ownership <- 0
	#DEBUG_VALUE: init:i <- 0
	#DEBUG_VALUE: init:j <- 0
	#DEBUG_VALUE: init:_4 <- 0
	#DEBUG_VALUE: init:_5 <- 200
	#DEBUG_VALUE: init:_6 <- 200
	#DEBUG_VALUE: init:_7 <- 40000
	#DEBUG_VALUE: init:_8_size <- 40000
	#DEBUG_VALUE: init:_8_has_ownership <- 0
	#DEBUG_VALUE: init:_9 <- 0
	#DEBUG_VALUE: init:_10 <- 0
	#DEBUG_VALUE: init:_11 <- 0
	#DEBUG_VALUE: init:_12 <- 0
	#DEBUG_VALUE: init:_13 <- 0
	#DEBUG_VALUE: init:_14 <- 0
	#DEBUG_VALUE: init:_15 <- 0
	#DEBUG_VALUE: init:_16 <- 0
	#DEBUG_VALUE: init:_17 <- 0
	#DEBUG_VALUE: init:_18 <- 0
	#DEBUG_VALUE: init:_19 <- 0
	#DEBUG_VALUE: init:_20 <- 0
	#DEBUG_VALUE: init:_21 <- 0
	#DEBUG_VALUE: init:_22 <- 0
	#DEBUG_VALUE: init:_23 <- 0
	#DEBUG_VALUE: init:_24 <- 0
	#DEBUG_VALUE: init:_25_has_ownership <- 0
	#DEBUG_VALUE: init:_26 <- 0
	#DEBUG_VALUE: init:_27 <- 0
	xorl	%edi, %edi
	movl	$40000, %esi            # imm = 0x9C40
	callq	gen1DArray
	movq	%rax, %r15
.Ltmp54:
	#DEBUG_VALUE: init:data <- %R15
	#DEBUG_VALUE: init:_8 <- %R15
	#DEBUG_VALUE: matrix:data <- %R15
	#DEBUG_VALUE: init:_10 <- 200
	#DEBUG_VALUE: init:data_has_ownership <- 1
	#DEBUG_VALUE: init:data_size <- 40000
	movq	%r15, 8(%rsp)
	leaq	8(%rsp), %r14
	movl	$init_polly_subfn, %edi
	xorl	%edx, %edx
	xorl	%ecx, %ecx
	movl	$7, %r8d
	movl	$1, %r9d
	movq	%r14, %rsi
	callq	GOMP_parallel_loop_runtime_start
	movq	%r14, %rdi
	callq	init_polly_subfn
	callq	GOMP_parallel_end
.Ltmp55:
	#DEBUG_VALUE: matrix:_4_has_ownership <- 0
	#DEBUG_VALUE: matrix:r_has_ownership <- 0
	#DEBUG_VALUE: matrix:data_has_ownership [bit_piece offset=0 size=1] <- 0
	#DEBUG_VALUE: matrix:data_size <- 40000
	#DEBUG_VALUE: matrix:height <- 200
	#DEBUG_VALUE: matrix:width <- 200
	#DEBUG_VALUE: init:_27 <- 200
	#DEBUG_VALUE: init:_26 <- 200
	.loc	1 30 7                  # MatrixMult.c:30:7
	movl	$32, %edi
	callq	malloc
	movq	%rax, %rbx
.Ltmp56:
	#DEBUG_VALUE: matrix:_4 <- %RBX
	#DEBUG_VALUE: init:_25 <- %RBX
	.loc	1 31 2                  # MatrixMult.c:31:2
	movq	$40000, 8(%rbx)         # imm = 0x9C40
	movl	$40000, %esi            # imm = 0x9C40
	movq	%r15, %rdi
	callq	copy
	movq	%rax, (%rbx)
	.loc	1 33 12                 # MatrixMult.c:33:12
	movaps	.LCPI4_0(%rip), %xmm0   # xmm0 = [200,200]
	movups	%xmm0, 16(%rbx)
.Ltmp57:
	#DEBUG_VALUE: matrix:_4_has_ownership <- 1
	#DEBUG_VALUE: init:_25_has_ownership <- 1
	.loc	1 163 2 discriminator 1 # MatrixMult.c:163:2
	movq	%r15, %rdi
	callq	free
.Ltmp58:
	#DEBUG_VALUE: init:data_has_ownership <- 0
	.loc	1 165 2                 # MatrixMult.c:165:2
	movq	%rbx, %rax
	addq	$16, %rsp
	popq	%rbx
.Ltmp59:
	popq	%r14
	popq	%r15
.Ltmp60:
	retq
.Ltmp61:
.Lfunc_end4:
	.size	init, .Lfunc_end4-init
	.cfi_endproc
	.file	2 "./MatrixMult.h"

	.section	.rodata.cst16,"aM",@progbits,16
	.p2align	4
.LCPI5_0:
	.quad	200                     # 0xc8
	.quad	200                     # 0xc8
	.text
	.globl	mat_mult
	.p2align	4, 0x90
	.type	mat_mult,@function
mat_mult:                               # @mat_mult
.Lfunc_begin5:
	.loc	1 169 0                 # MatrixMult.c:169:0
	.cfi_startproc
# BB#0:                                 # %entry
	pushq	%rbp
.Ltmp62:
	.cfi_def_cfa_offset 16
	pushq	%r15
.Ltmp63:
	.cfi_def_cfa_offset 24
	pushq	%r14
.Ltmp64:
	.cfi_def_cfa_offset 32
	pushq	%r13
.Ltmp65:
	.cfi_def_cfa_offset 40
	pushq	%r12
.Ltmp66:
	.cfi_def_cfa_offset 48
	pushq	%rbx
.Ltmp67:
	.cfi_def_cfa_offset 56
	subq	$56, %rsp
.Ltmp68:
	.cfi_def_cfa_offset 112
.Ltmp69:
	.cfi_offset %rbx, -56
.Ltmp70:
	.cfi_offset %r12, -48
.Ltmp71:
	.cfi_offset %r13, -40
.Ltmp72:
	.cfi_offset %r14, -32
.Ltmp73:
	.cfi_offset %r15, -24
.Ltmp74:
	.cfi_offset %rbp, -16
	#DEBUG_VALUE: mat_mult:a <- %RDI
	#DEBUG_VALUE: mat_mult:a_has_ownership [bit_piece offset=0 size=1] <- %ESI
	#DEBUG_VALUE: mat_mult:b <- %RDX
	#DEBUG_VALUE: mat_mult:b_has_ownership [bit_piece offset=0 size=1] <- %ECX
	movl	%ecx, %r15d
.Ltmp75:
	#DEBUG_VALUE: mat_mult:b_has_ownership [bit_piece offset=0 size=1] <- %R15D
	movq	%rdx, %rbx
.Ltmp76:
	#DEBUG_VALUE: mat_mult:b <- %RBX
	movq	%rbx, 24(%rsp)          # 8-byte Spill
	movl	%esi, 12(%rsp)          # 4-byte Spill
.Ltmp77:
	#DEBUG_VALUE: mat_mult:a_has_ownership [bit_piece offset=0 size=1] <-  [complex expression]
	movq	%rdi, %rbp
.Ltmp78:
	#DEBUG_VALUE: mat_mult:_47 <- 0
	#DEBUG_VALUE: mat_mult:_46 <- 0
	#DEBUG_VALUE: mat_mult:_45_has_ownership <- 0
	#DEBUG_VALUE: mat_mult:_44 <- 0
	#DEBUG_VALUE: mat_mult:_43 <- 0
	#DEBUG_VALUE: mat_mult:_42 <- 0
	#DEBUG_VALUE: mat_mult:_41 <- 0
	#DEBUG_VALUE: mat_mult:_40 <- 0
	#DEBUG_VALUE: mat_mult:_39 <- 0
	#DEBUG_VALUE: mat_mult:_38 <- 0
	#DEBUG_VALUE: mat_mult:_37 <- 0
	#DEBUG_VALUE: mat_mult:_36 <- 0
	#DEBUG_VALUE: mat_mult:_35 <- 0
	#DEBUG_VALUE: mat_mult:_34 <- 0
	#DEBUG_VALUE: mat_mult:_33 <- 0
	#DEBUG_VALUE: mat_mult:_32 <- 0
	#DEBUG_VALUE: mat_mult:_31 <- 0
	#DEBUG_VALUE: mat_mult:_30 <- 0
	#DEBUG_VALUE: mat_mult:_29 <- 0
	#DEBUG_VALUE: mat_mult:_28 <- 0
	#DEBUG_VALUE: mat_mult:_27 <- 0
	#DEBUG_VALUE: mat_mult:_26 <- 0
	#DEBUG_VALUE: mat_mult:_25 <- 0
	#DEBUG_VALUE: mat_mult:_24 <- 0
	#DEBUG_VALUE: mat_mult:_23 <- 0
	#DEBUG_VALUE: mat_mult:_22 <- 0
	#DEBUG_VALUE: mat_mult:_21 <- 0
	#DEBUG_VALUE: mat_mult:_20 <- 0
	#DEBUG_VALUE: mat_mult:_19 <- 0
	#DEBUG_VALUE: mat_mult:_18 <- 0
	#DEBUG_VALUE: mat_mult:_17 <- 0
	#DEBUG_VALUE: mat_mult:_16 <- 0
	#DEBUG_VALUE: mat_mult:_15_has_ownership <- 0
	#DEBUG_VALUE: mat_mult:_15_size <- 0
	#DEBUG_VALUE: mat_mult:_14_has_ownership <- 0
	#DEBUG_VALUE: mat_mult:_14_size <- 0
	#DEBUG_VALUE: mat_mult:_13_has_ownership <- 0
	#DEBUG_VALUE: mat_mult:_13_size <- 40000
	#DEBUG_VALUE: mat_mult:_12 <- 40000
	#DEBUG_VALUE: mat_mult:_11 <- 200
	#DEBUG_VALUE: mat_mult:_10 <- 200
	#DEBUG_VALUE: mat_mult:_9 <- 0
	#DEBUG_VALUE: mat_mult:k <- 0
	#DEBUG_VALUE: mat_mult:j <- 0
	#DEBUG_VALUE: mat_mult:i <- 0
	#DEBUG_VALUE: mat_mult:b_data_has_ownership <- 0
	#DEBUG_VALUE: mat_mult:b_data_size <- 0
	#DEBUG_VALUE: mat_mult:a_data_has_ownership <- 0
	#DEBUG_VALUE: mat_mult:a_data_size <- 0
	#DEBUG_VALUE: mat_mult:data_has_ownership <- 0
	#DEBUG_VALUE: mat_mult:data_size <- 0
	#DEBUG_VALUE: mat_mult:r_has_ownership <- 0
	#DEBUG_VALUE: mat_mult:a <- %RBP
	.loc	1 234 2 prologue_end    # MatrixMult.c:234:2
	movq	%rbp, 16(%rsp)          # 8-byte Spill
	xorl	%edi, %edi
	movl	$40000, %esi            # imm = 0x9C40
	callq	gen1DArray
.Ltmp79:
	movq	%rax, %r13
.Ltmp80:
	#DEBUG_VALUE: mat_mult:data <- %R13
	#DEBUG_VALUE: mat_mult:_13 <- %R13
	#DEBUG_VALUE: matrix:data <- %R13
	#DEBUG_VALUE: mat_mult:data_has_ownership <- 1
	#DEBUG_VALUE: mat_mult:data_size <- 40000
	.loc	1 243 2                 # MatrixMult.c:243:2
	movq	(%rbp), %rdi
	movq	8(%rbp), %rsi
.Ltmp81:
	#DEBUG_VALUE: mat_mult:a <- [%RSP+16]
	callq	copy
.Ltmp82:
	movq	%rax, %r12
.Ltmp83:
	#DEBUG_VALUE: mat_mult:a_data <- %R12
	#DEBUG_VALUE: mat_mult:_14 <- %R12
	#DEBUG_VALUE: mat_mult:a_data_has_ownership <- 1
	.loc	1 252 2                 # MatrixMult.c:252:2
	movq	(%rbx), %rdi
	movq	8(%rbx), %rsi
.Ltmp84:
	#DEBUG_VALUE: mat_mult:b <- [%RSP+24]
	callq	copy
.Ltmp85:
	movq	%rax, %r14
.Ltmp86:
	#DEBUG_VALUE: mat_mult:_15 <- %R14
	#DEBUG_VALUE: mat_mult:b_data <- %R14
	#DEBUG_VALUE: mat_mult:_17 <- 200
	#DEBUG_VALUE: mat_mult:b_data_has_ownership <- 1
	leaq	320000(%r14), %rax
	cmpq	%r13, %rax
	setbe	%dil
	leaq	320000(%r13), %rdx
	cmpq	%r14, %rdx
	setbe	%cl
	leaq	320000(%r12), %rsi
	cmpq	%r13, %rsi
	setbe	%al
	cmpq	%r12, %rdx
	setbe	%dl
	orb	%al, %dl
	movzbl	%dl, %eax
	cmpl	$1, %eax
	jne	.LBB5_2
.Ltmp87:
# BB#1:                                 # %entry
	#DEBUG_VALUE: mat_mult:b_data <- %R14
	#DEBUG_VALUE: mat_mult:_15 <- %R14
	#DEBUG_VALUE: mat_mult:_14 <- %R12
	#DEBUG_VALUE: mat_mult:a_data <- %R12
	#DEBUG_VALUE: matrix:data <- %R13
	#DEBUG_VALUE: mat_mult:_13 <- %R13
	#DEBUG_VALUE: mat_mult:data <- %R13
	#DEBUG_VALUE: mat_mult:b_has_ownership [bit_piece offset=0 size=1] <- %R15D
	orb	%dil, %cl
	je	.LBB5_2
.Ltmp88:
# BB#13:                                # %polly.parallel.for
	#DEBUG_VALUE: mat_mult:b_has_ownership [bit_piece offset=0 size=1] <- %R15D
	#DEBUG_VALUE: mat_mult:data <- %R13
	#DEBUG_VALUE: mat_mult:_13 <- %R13
	#DEBUG_VALUE: matrix:data <- %R13
	#DEBUG_VALUE: mat_mult:a_data <- %R12
	#DEBUG_VALUE: mat_mult:_14 <- %R12
	#DEBUG_VALUE: mat_mult:_15 <- %R14
	#DEBUG_VALUE: mat_mult:b_data <- %R14
	movl	%r15d, 8(%rsp)          # 4-byte Spill
	movq	%r13, 32(%rsp)
	movq	%r12, 40(%rsp)
	movq	%r14, 48(%rsp)
	leaq	32(%rsp), %r15
.Ltmp89:
	movl	$mat_mult_polly_subfn, %edi
	xorl	%edx, %edx
	xorl	%ecx, %ecx
	movl	$7, %r8d
	movl	$1, %r9d
	movq	%r15, %rsi
	callq	GOMP_parallel_loop_runtime_start
	movq	%r15, %rdi
	callq	mat_mult_polly_subfn
	callq	GOMP_parallel_end
	jmp	.LBB5_8
.Ltmp90:
.LBB5_2:                                # %while.cond29.preheader.preheader
	#DEBUG_VALUE: mat_mult:b_data <- %R14
	#DEBUG_VALUE: mat_mult:_15 <- %R14
	#DEBUG_VALUE: mat_mult:_14 <- %R12
	#DEBUG_VALUE: mat_mult:a_data <- %R12
	#DEBUG_VALUE: matrix:data <- %R13
	#DEBUG_VALUE: mat_mult:_13 <- %R13
	#DEBUG_VALUE: mat_mult:data <- %R13
	#DEBUG_VALUE: mat_mult:b_has_ownership [bit_piece offset=0 size=1] <- %R15D
	movl	%r15d, 8(%rsp)          # 4-byte Spill
	.loc	1 194 12                # MatrixMult.c:194:12
	movq	%r12, %r9
	addq	$8, %r9
	xorl	%r8d, %r8d
.Ltmp91:
	.p2align	4, 0x90
.LBB5_3:                                # %while.cond29.preheader
                                        # =>This Loop Header: Depth=1
                                        #     Child Loop BB5_4 Depth 2
                                        #       Child Loop BB5_5 Depth 3
	#DEBUG_VALUE: mat_mult:_19 <- 200
	.loc	1 292 10                # MatrixMult.c:292:10
	imulq	$200, %r8, %r10
.Ltmp92:
	#DEBUG_VALUE: mat_mult:_37 <- %R10
	#DEBUG_VALUE: mat_mult:_27 <- %R10
	#DEBUG_VALUE: mat_mult:_23 <- %R10
	xorl	%esi, %esi
.Ltmp93:
	.p2align	4, 0x90
.LBB5_4:                                # %while.cond35.preheader
                                        #   Parent Loop BB5_3 Depth=1
                                        # =>  This Loop Header: Depth=2
                                        #       Child Loop BB5_5 Depth 3
	#DEBUG_VALUE: mat_mult:_21 <- 200
	.loc	1 294 12                # MatrixMult.c:294:12
	leaq	(%rsi,%r10), %rdi
.Ltmp94:
	#DEBUG_VALUE: mat_mult:_38 <- %RDI
	#DEBUG_VALUE: mat_mult:_24 <- %RDI
	.loc	1 296 9                 # MatrixMult.c:296:9
	movq	(%r13,%rdi,8), %rcx
	movq	%r9, %rax
	movl	$1600, %edx             # imm = 0x640
.Ltmp95:
	.p2align	4, 0x90
.LBB5_5:                                # %if.end40
                                        #   Parent Loop BB5_3 Depth=1
                                        #     Parent Loop BB5_4 Depth=2
                                        # =>    This Inner Loop Header: Depth=3
	#DEBUG_VALUE: mat_mult:_22 <- 200
	#DEBUG_VALUE: mat_mult:_26 <- 200
	#DEBUG_VALUE: mat_mult:_30 <- 200
	.loc	1 312 9                 # MatrixMult.c:312:9
	leaq	(%r14,%rdx), %rbp
	movq	-1600(%rbp,%rsi,8), %rbx
.Ltmp96:
	#DEBUG_VALUE: mat_mult:_33 <- %RBX
	.loc	1 314 12                # MatrixMult.c:314:12
	imulq	-8(%rax), %rbx
.Ltmp97:
	#DEBUG_VALUE: mat_mult:_34 <- %RBX
	.loc	1 316 12                # MatrixMult.c:316:12
	addq	%rcx, %rbx
.Ltmp98:
	#DEBUG_VALUE: mat_mult:_35 <- %RBX
	.loc	1 324 15                # MatrixMult.c:324:15
	movq	%rbx, (%r13,%rdi,8)
	.loc	1 312 9                 # MatrixMult.c:312:9
	movq	(%rbp,%rsi,8), %rcx
	.loc	1 314 12                # MatrixMult.c:314:12
	imulq	(%rax), %rcx
	.loc	1 316 12                # MatrixMult.c:316:12
	addq	%rbx, %rcx
	.loc	1 324 15                # MatrixMult.c:324:15
	movq	%rcx, (%r13,%rdi,8)
	.loc	1 288 8                 # MatrixMult.c:288:8
	addq	$3200, %rdx             # imm = 0xC80
	addq	$16, %rax
	cmpq	$321600, %rdx           # imm = 0x4E840
.Ltmp99:
	#DEBUG_VALUE: mat_mult:_39 <- 1
	#DEBUG_VALUE: mat_mult:_36 <- 200
	#DEBUG_VALUE: mat_mult:_25 <- %RCX
	#DEBUG_VALUE: mat_mult:_21 <- 200
	jne	.LBB5_5
.Ltmp100:
# BB#6:                                 # %blklab9
                                        #   in Loop: Header=BB5_4 Depth=2
	#DEBUG_VALUE: mat_mult:_25 <- %RCX
	#DEBUG_VALUE: mat_mult:_35 <- %RBX
	#DEBUG_VALUE: mat_mult:_41 <- 1
	.loc	1 339 9                 # MatrixMult.c:339:9
	incq	%rsi
.Ltmp101:
	#DEBUG_VALUE: mat_mult:_42 <- %RSI
	#DEBUG_VALUE: mat_mult:_19 <- 200
	#DEBUG_VALUE: mat_mult:j <- %RSI
	.loc	1 278 7                 # MatrixMult.c:278:7
	cmpq	$200, %rsi
	jne	.LBB5_4
.Ltmp102:
# BB#7:                                 # %blklab7
                                        #   in Loop: Header=BB5_3 Depth=1
	#DEBUG_VALUE: mat_mult:_35 <- %RBX
	#DEBUG_VALUE: mat_mult:_25 <- %RCX
	#DEBUG_VALUE: mat_mult:j <- %RSI
	#DEBUG_VALUE: mat_mult:_42 <- %RSI
	#DEBUG_VALUE: mat_mult:_43 <- 1
	.loc	1 350 8                 # MatrixMult.c:350:8
	incq	%r8
.Ltmp103:
	#DEBUG_VALUE: mat_mult:_44 <- %R8
	#DEBUG_VALUE: mat_mult:_17 <- 200
	#DEBUG_VALUE: mat_mult:i <- %R8
	.loc	1 268 6                 # MatrixMult.c:268:6
	addq	$1600, %r9              # imm = 0x640
	cmpq	$200, %r8
	jne	.LBB5_3
.Ltmp104:
.LBB5_8:                                # %if.end58
	#DEBUG_VALUE: mat_mult:b_has_ownership [bit_piece offset=0 size=1] <-  [complex expression]
	#DEBUG_VALUE: mat_mult:data_has_ownership <- 1
	#DEBUG_VALUE: mat_mult:_46 <- 200
	#DEBUG_VALUE: mat_mult:_47 <- 200
	#DEBUG_VALUE: matrix:width <- 200
	#DEBUG_VALUE: matrix:height <- 200
	#DEBUG_VALUE: matrix:data_size <- 40000
	#DEBUG_VALUE: matrix:data_has_ownership [bit_piece offset=0 size=1] <- 0
	#DEBUG_VALUE: matrix:r_has_ownership <- 0
	#DEBUG_VALUE: matrix:_4_has_ownership <- 0
	.loc	1 30 7                  # MatrixMult.c:30:7
	movl	$32, %edi
	callq	malloc
.Ltmp105:
	movq	%rax, %r15
	.loc	1 31 2                  # MatrixMult.c:31:2
	movq	$40000, 8(%r15)         # imm = 0x9C40
	movl	$40000, %esi            # imm = 0x9C40
	movq	%r13, %rdi
	callq	copy
	movq	%rax, (%r15)
	.loc	1 33 12                 # MatrixMult.c:33:12
	movaps	.LCPI5_0(%rip), %xmm0   # xmm0 = [200,200]
.Ltmp106:
	#DEBUG_VALUE: matrix:_4_has_ownership <- 1
	#DEBUG_VALUE: mat_mult:_45_has_ownership <- 1
	movups	%xmm0, 16(%r15)
.Ltmp107:
	.loc	1 368 2                 # MatrixMult.c:368:2
	movl	12(%rsp), %eax          # 4-byte Reload
	testb	%al, %al
	je	.LBB5_10
# BB#9:                                 # %if.then61
.Ltmp108:
	#DEBUG_VALUE: free_Matrix:matrix <- [%RSP+16]
	movq	16(%rsp), %rbx          # 8-byte Reload
.Ltmp109:
	#DEBUG_VALUE: free_Matrix:matrix <- %RBX
	.loc	1 10 15                 # MatrixMult.c:10:15
	movq	(%rbx), %rdi
	.loc	1 10 2 is_stmt 0        # MatrixMult.c:10:2
	callq	free
	.loc	1 11 2 is_stmt 1        # MatrixMult.c:11:2
	movq	%rbx, %rdi
	callq	free
.Ltmp110:
	#DEBUG_VALUE: mat_mult:a_has_ownership <- 0
.LBB5_10:                               # %if.end62
	.loc	1 369 2                 # MatrixMult.c:369:2
	movl	8(%rsp), %eax           # 4-byte Reload
	testb	%al, %al
	je	.LBB5_12
# BB#11:                                # %if.then64
.Ltmp111:
	#DEBUG_VALUE: free_Matrix:matrix <- [%RSP+24]
	movq	24(%rsp), %rbx          # 8-byte Reload
.Ltmp112:
	#DEBUG_VALUE: free_Matrix:matrix <- %RBX
	.loc	1 10 15                 # MatrixMult.c:10:15
	movq	(%rbx), %rdi
	.loc	1 10 2 is_stmt 0        # MatrixMult.c:10:2
	callq	free
	.loc	1 11 2 is_stmt 1        # MatrixMult.c:11:2
	movq	%rbx, %rdi
	callq	free
.Ltmp113:
	#DEBUG_VALUE: mat_mult:b_has_ownership <- 0
.LBB5_12:                               # %if.then70
	.loc	1 371 2 discriminator 1 # MatrixMult.c:371:2
	movq	%r13, %rdi
	callq	free
.Ltmp114:
	#DEBUG_VALUE: mat_mult:data_has_ownership <- 0
	.loc	1 372 2 discriminator 1 # MatrixMult.c:372:2
	movq	%r12, %rdi
	callq	free
.Ltmp115:
	#DEBUG_VALUE: mat_mult:a_data_has_ownership <- 0
	.loc	1 373 2 discriminator 1 # MatrixMult.c:373:2
	movq	%r14, %rdi
	callq	free
.Ltmp116:
	#DEBUG_VALUE: mat_mult:b_data_has_ownership <- 0
	.loc	1 377 2                 # MatrixMult.c:377:2
	movq	%r15, %rax
	addq	$56, %rsp
	popq	%rbx
	popq	%r12
	popq	%r13
	popq	%r14
	popq	%r15
	popq	%rbp
	retq
.Ltmp117:
.Lfunc_end5:
	.size	mat_mult, .Lfunc_end5-mat_mult
	.cfi_endproc

	.section	.rodata.cst16,"aM",@progbits,16
	.p2align	4
.LCPI6_0:
	.quad	78                      # 0x4e
	.quad	32                      # 0x20
.LCPI6_1:
	.quad	61                      # 0x3d
	.quad	32                      # 0x20
.LCPI6_2:
	.quad	200                     # 0xc8
	.quad	200                     # 0xc8
.LCPI6_3:
	.quad	77                      # 0x4d
	.quad	97                      # 0x61
.LCPI6_4:
	.quad	116                     # 0x74
	.quad	114                     # 0x72
.LCPI6_5:
	.quad	105                     # 0x69
	.quad	120                     # 0x78
.LCPI6_6:
	.quad	32                      # 0x20
	.quad	65                      # 0x41
.LCPI6_7:
	.quad	91                      # 0x5b
	.quad	78                      # 0x4e
.LCPI6_8:
	.quad	45                      # 0x2d
	.quad	49                      # 0x31
.LCPI6_9:
	.quad	93                      # 0x5d
	.quad	91                      # 0x5b
.LCPI6_10:
	.quad	78                      # 0x4e
	.quad	45                      # 0x2d
.LCPI6_11:
	.quad	49                      # 0x31
	.quad	93                      # 0x5d
.LCPI6_12:
	.quad	32                      # 0x20
	.quad	61                      # 0x3d
.LCPI6_13:
	.quad	32                      # 0x20
	.quad	66                      # 0x42
.LCPI6_14:
	.quad	32                      # 0x20
	.quad	67                      # 0x43
.LCPI6_15:
	.quad	80                      # 0x50
	.quad	97                      # 0x61
.LCPI6_16:
	.quad	115                     # 0x73
	.quad	115                     # 0x73
.LCPI6_17:
	.quad	32                      # 0x20
	.quad	88                      # 0x58
.LCPI6_18:
	.quad	32                      # 0x20
	.quad	77                      # 0x4d
.LCPI6_19:
	.quad	97                      # 0x61
	.quad	116                     # 0x74
.LCPI6_20:
	.quad	114                     # 0x72
	.quad	105                     # 0x69
.LCPI6_21:
	.quad	120                     # 0x78
	.quad	77                      # 0x4d
.LCPI6_22:
	.quad	117                     # 0x75
	.quad	108                     # 0x6c
.LCPI6_23:
	.quad	116                     # 0x74
	.quad	32                      # 0x20
.LCPI6_24:
	.quad	116                     # 0x74
	.quad	101                     # 0x65
.LCPI6_25:
	.quad	115                     # 0x73
	.quad	116                     # 0x74
.LCPI6_26:
	.quad	32                      # 0x20
	.quad	99                      # 0x63
.LCPI6_27:
	.quad	97                      # 0x61
	.quad	115                     # 0x73
	.text
	.globl	main
	.p2align	4, 0x90
	.type	main,@function
main:                                   # @main
.Lfunc_begin6:
	.loc	1 381 0                 # MatrixMult.c:381:0
	.cfi_startproc
# BB#0:                                 # %entry
	.loc	1 477 2 prologue_end    # MatrixMult.c:477:2
	pushq	%rbp
.Ltmp118:
	.cfi_def_cfa_offset 16
	pushq	%r15
.Ltmp119:
	.cfi_def_cfa_offset 24
	pushq	%r14
.Ltmp120:
	.cfi_def_cfa_offset 32
	pushq	%r13
.Ltmp121:
	.cfi_def_cfa_offset 40
	pushq	%r12
.Ltmp122:
	.cfi_def_cfa_offset 48
	pushq	%rbx
.Ltmp123:
	.cfi_def_cfa_offset 56
	subq	$72, %rsp
.Ltmp124:
	.cfi_def_cfa_offset 128
.Ltmp125:
	.cfi_offset %rbx, -56
.Ltmp126:
	.cfi_offset %r12, -48
.Ltmp127:
	.cfi_offset %r13, -40
.Ltmp128:
	.cfi_offset %r14, -32
.Ltmp129:
	.cfi_offset %r15, -24
.Ltmp130:
	.cfi_offset %rbp, -16
	#DEBUG_VALUE: main:argc <- %EDI
	#DEBUG_VALUE: main:args <- %RSI
.Ltmp131:
	#DEBUG_VALUE: main:A_has_ownership <- 0
	#DEBUG_VALUE: main:B_has_ownership <- 0
	#DEBUG_VALUE: main:C_has_ownership <- 0
	#DEBUG_VALUE: main:_6_size <- 4
	#DEBUG_VALUE: main:_6_has_ownership <- 0
	#DEBUG_VALUE: main:_9 <- 0
	#DEBUG_VALUE: main:_10_has_ownership <- 0
	#DEBUG_VALUE: main:_13_size <- 0
	#DEBUG_VALUE: main:_13_has_ownership <- 0
	#DEBUG_VALUE: main:_16_size <- 0
	#DEBUG_VALUE: main:_16_has_ownership <- 0
	#DEBUG_VALUE: main:_17 <- 0
	#DEBUG_VALUE: main:_18 <- 0
	#DEBUG_VALUE: main:_19 <- 0
	#DEBUG_VALUE: main:_20 <- 0
	#DEBUG_VALUE: main:_21 <- 0
	#DEBUG_VALUE: main:_22 <- 0
	#DEBUG_VALUE: main:_23 <- 0
	#DEBUG_VALUE: main:_24 <- 0
	#DEBUG_VALUE: main:_25 <- 0
	#DEBUG_VALUE: main:_26 <- 0
	#DEBUG_VALUE: main:_27_has_ownership <- 0
	#DEBUG_VALUE: main:_30_size <- 0
	#DEBUG_VALUE: main:_30_has_ownership <- 0
	#DEBUG_VALUE: main:_33_size <- 0
	#DEBUG_VALUE: main:_33_has_ownership <- 0
	#DEBUG_VALUE: main:_34 <- 0
	#DEBUG_VALUE: main:_35 <- 0
	#DEBUG_VALUE: main:_36 <- 0
	#DEBUG_VALUE: main:_37 <- 0
	#DEBUG_VALUE: main:_38 <- 0
	#DEBUG_VALUE: main:_39 <- 0
	#DEBUG_VALUE: main:_40 <- 0
	#DEBUG_VALUE: main:_41 <- 0
	#DEBUG_VALUE: main:_42 <- 0
	#DEBUG_VALUE: main:_43 <- 0
	#DEBUG_VALUE: main:_44_has_ownership <- 0
	#DEBUG_VALUE: main:_45_size <- 0
	#DEBUG_VALUE: main:_45_has_ownership <- 0
	#DEBUG_VALUE: main:_46 <- 0
	#DEBUG_VALUE: main:_47 <- 0
	#DEBUG_VALUE: main:_48 <- 0
	#DEBUG_VALUE: main:_49 <- 0
	#DEBUG_VALUE: main:_50 <- 0
	#DEBUG_VALUE: main:_51 <- 0
	#DEBUG_VALUE: main:_52 <- 0
	#DEBUG_VALUE: main:_53 <- 0
	#DEBUG_VALUE: main:_54 <- 0
	#DEBUG_VALUE: main:_55 <- 0
	#DEBUG_VALUE: main:_56 <- 0
	#DEBUG_VALUE: main:_59_size <- 0
	#DEBUG_VALUE: main:_59_has_ownership <- 0
	#DEBUG_VALUE: main:_62_size <- 0
	#DEBUG_VALUE: main:_62_has_ownership <- 0
	#DEBUG_VALUE: main:_63 <- 0
	#DEBUG_VALUE: main:_64 <- 0
	#DEBUG_VALUE: main:_65 <- 0
	#DEBUG_VALUE: main:_66 <- 0
	#DEBUG_VALUE: main:_67 <- 0
	#DEBUG_VALUE: main:_68 <- 0
	#DEBUG_VALUE: main:_69 <- 0
	#DEBUG_VALUE: main:_70 <- 0
	#DEBUG_VALUE: main:_71 <- 0
	#DEBUG_VALUE: main:_72 <- 0
	#DEBUG_VALUE: main:_75_size <- 0
	#DEBUG_VALUE: main:_75_has_ownership <- 0
	#DEBUG_VALUE: main:_78 <- 0
	#DEBUG_VALUE: main:_81_size <- 0
	#DEBUG_VALUE: main:_81_has_ownership <- 0
	#DEBUG_VALUE: main:_84 <- 0
	#DEBUG_VALUE: main:_87_size <- 0
	#DEBUG_VALUE: main:_87_has_ownership <- 0
	movl	$32, %edi
.Ltmp132:
	callq	malloc
.Ltmp133:
	movq	%rax, %r14
.Ltmp134:
	#DEBUG_VALUE: main:_6 <- %R14
	.loc	1 478 8                 # MatrixMult.c:478:8
	movaps	.LCPI6_0(%rip), %xmm0   # xmm0 = [78,32]
	movups	%xmm0, (%r14)
	.loc	1 478 32 is_stmt 0      # MatrixMult.c:478:32
	movaps	.LCPI6_1(%rip), %xmm0   # xmm0 = [61,32]
	movups	%xmm0, 16(%r14)
.Ltmp135:
	#DEBUG_VALUE: main:_6_has_ownership <- 1
	.loc	1 481 2 is_stmt 1       # MatrixMult.c:481:2
	movl	$4, %esi
	movq	%r14, %rdi
	callq	printf_s
.Ltmp136:
	#DEBUG_VALUE: main:_9 <- 200
	.loc	1 487 2                 # MatrixMult.c:487:2
	movl	$.L.str.6, %edi
	movl	$200, %esi
	xorl	%eax, %eax
	callq	printf
.Ltmp137:
	#DEBUG_VALUE: init:_27 <- 0
	#DEBUG_VALUE: init:_26 <- 0
	#DEBUG_VALUE: init:_25_has_ownership <- 0
	#DEBUG_VALUE: init:_24 <- 0
	#DEBUG_VALUE: init:_23 <- 0
	#DEBUG_VALUE: init:_22 <- 0
	#DEBUG_VALUE: init:_21 <- 0
	#DEBUG_VALUE: init:_20 <- 0
	#DEBUG_VALUE: init:_19 <- 0
	#DEBUG_VALUE: init:_18 <- 0
	#DEBUG_VALUE: init:_17 <- 0
	#DEBUG_VALUE: init:_16 <- 0
	#DEBUG_VALUE: init:_15 <- 0
	#DEBUG_VALUE: init:_14 <- 0
	#DEBUG_VALUE: init:_13 <- 0
	#DEBUG_VALUE: init:_12 <- 0
	#DEBUG_VALUE: init:_11 <- 0
	#DEBUG_VALUE: init:_10 <- 0
	#DEBUG_VALUE: init:_9 <- 0
	#DEBUG_VALUE: init:_8_has_ownership <- 0
	#DEBUG_VALUE: init:_8_size <- 40000
	#DEBUG_VALUE: init:_7 <- 40000
	#DEBUG_VALUE: init:_6 <- 200
	#DEBUG_VALUE: init:_5 <- 200
	#DEBUG_VALUE: init:_4 <- 0
	#DEBUG_VALUE: init:j <- 0
	#DEBUG_VALUE: init:i <- 0
	#DEBUG_VALUE: init:data_has_ownership <- 0
	#DEBUG_VALUE: init:data_size <- 0
	#DEBUG_VALUE: init:r_has_ownership <- 0
	.loc	1 85 2                  # MatrixMult.c:85:2
	xorl	%edi, %edi
	movl	$40000, %esi            # imm = 0x9C40
	callq	gen1DArray
	movq	%rax, %rbp
.Ltmp138:
	#DEBUG_VALUE: init:data <- %RBP
	#DEBUG_VALUE: init:_8 <- %RBP
	#DEBUG_VALUE: matrix:data <- %RBP
	#DEBUG_VALUE: init:_10 <- 200
	#DEBUG_VALUE: init:data_has_ownership <- 1
	#DEBUG_VALUE: init:data_size <- 40000
	.loc	1 490 8                 # MatrixMult.c:490:8
	movq	%rbp, 16(%rsp)
	leaq	16(%rsp), %rbx
	movl	$init_polly_subfn, %edi
	xorl	%edx, %edx
	xorl	%ecx, %ecx
	movl	$7, %r8d
	movl	$1, %r9d
	movq	%rbx, %rsi
	callq	GOMP_parallel_loop_runtime_start
	movq	%rbx, %rdi
	callq	init_polly_subfn
	callq	GOMP_parallel_end
.Ltmp139:
	#DEBUG_VALUE: matrix:_4_has_ownership <- 0
	#DEBUG_VALUE: matrix:r_has_ownership <- 0
	#DEBUG_VALUE: matrix:data_has_ownership [bit_piece offset=0 size=1] <- 0
	#DEBUG_VALUE: matrix:data_size <- 40000
	#DEBUG_VALUE: matrix:height <- 200
	#DEBUG_VALUE: matrix:width <- 200
	#DEBUG_VALUE: init:_27 <- 200
	#DEBUG_VALUE: init:_26 <- 200
	.loc	1 30 7                  # MatrixMult.c:30:7
	movl	$32, %edi
	callq	malloc
	movq	%rax, %r15
.Ltmp140:
	#DEBUG_VALUE: matrix:_4 <- %R15
	#DEBUG_VALUE: init:_25 <- %R15
	#DEBUG_VALUE: main:_10 <- %R15
	#DEBUG_VALUE: main:A <- %R15
	.loc	1 31 2                  # MatrixMult.c:31:2
	movq	%r15, (%rsp)            # 8-byte Spill
	movq	$40000, 8(%r15)         # imm = 0x9C40
	movl	$40000, %esi            # imm = 0x9C40
	movq	%rbp, %rdi
	callq	copy
	movq	%rax, %rbx
	movq	%rbx, (%r15)
	.loc	1 33 12                 # MatrixMult.c:33:12
	movaps	.LCPI6_2(%rip), %xmm0   # xmm0 = [200,200]
	movups	%xmm0, 16(%r15)
.Ltmp141:
	#DEBUG_VALUE: matrix:_4_has_ownership <- 1
	#DEBUG_VALUE: init:_25_has_ownership <- 1
	.loc	1 163 2 discriminator 1 # MatrixMult.c:163:2
	movq	%rbp, %rdi
	callq	free
.Ltmp142:
	#DEBUG_VALUE: init:data_has_ownership <- 0
	#DEBUG_VALUE: main:_13_size <- 21
	#DEBUG_VALUE: main:A_has_ownership <- 1
	.loc	1 501 2                 # MatrixMult.c:501:2
	movl	$168, %edi
	callq	malloc
	movq	%rax, %r13
.Ltmp143:
	#DEBUG_VALUE: main:_13 <- %R13
	.loc	1 502 9                 # MatrixMult.c:502:9
	movaps	.LCPI6_3(%rip), %xmm0   # xmm0 = [77,97]
	movups	%xmm0, (%r13)
	.loc	1 502 35 is_stmt 0      # MatrixMult.c:502:35
	movaps	.LCPI6_4(%rip), %xmm0   # xmm0 = [116,114]
	movups	%xmm0, 16(%r13)
	.loc	1 502 63                # MatrixMult.c:502:63
	movaps	.LCPI6_5(%rip), %xmm0   # xmm0 = [105,120]
	movups	%xmm0, 32(%r13)
	.loc	1 502 91                # MatrixMult.c:502:91
	movaps	.LCPI6_6(%rip), %xmm0   # xmm0 = [32,65]
	movups	%xmm0, 48(%r13)
	.loc	1 502 117               # MatrixMult.c:502:117
	movaps	.LCPI6_7(%rip), %xmm0   # xmm0 = [91,78]
	movups	%xmm0, 64(%r13)
	.loc	1 502 144               # MatrixMult.c:502:144
	movaps	.LCPI6_8(%rip), %xmm0   # xmm0 = [45,49]
	movups	%xmm0, 80(%r13)
	.loc	1 502 172               # MatrixMult.c:502:172
	movaps	.LCPI6_9(%rip), %xmm0   # xmm0 = [93,91]
	movups	%xmm0, 96(%r13)
	.loc	1 502 200               # MatrixMult.c:502:200
	movaps	.LCPI6_10(%rip), %xmm0  # xmm0 = [78,45]
	movups	%xmm0, 112(%r13)
	.loc	1 502 228               # MatrixMult.c:502:228
	movaps	.LCPI6_11(%rip), %xmm0  # xmm0 = [49,93]
	movups	%xmm0, 128(%r13)
	.loc	1 502 256               # MatrixMult.c:502:256
	movaps	.LCPI6_12(%rip), %xmm0  # xmm0 = [32,61]
	movups	%xmm0, 144(%r13)
	.loc	1 502 284               # MatrixMult.c:502:284
	movq	$32, 160(%r13)
.Ltmp144:
	#DEBUG_VALUE: main:_13_has_ownership <- 1
	.loc	1 505 2 is_stmt 1       # MatrixMult.c:505:2
	movl	$21, %esi
	movq	%r13, %rdi
	callq	printf_s
	.loc	1 510 2                 # MatrixMult.c:510:2
	movl	$40000, %esi            # imm = 0x9C40
	movq	%rbx, %rdi
	callq	copy
.Ltmp145:
	#DEBUG_VALUE: main:_16 <- %RAX
	#DEBUG_VALUE: main:_25 <- 39999
	#DEBUG_VALUE: main:_24 <- 1
	#DEBUG_VALUE: main:_23 <- 40000
	#DEBUG_VALUE: main:_22 <- 200
	#DEBUG_VALUE: main:_21 <- 39800
	#DEBUG_VALUE: main:_20 <- 200
	#DEBUG_VALUE: main:_19 <- 199
	#DEBUG_VALUE: main:_18 <- 1
	#DEBUG_VALUE: main:_17 <- 200
	#DEBUG_VALUE: main:_16_has_ownership <- 1
	.loc	1 531 6                 # MatrixMult.c:531:6
	movq	%rax, 48(%rsp)          # 8-byte Spill
	movq	319992(%rax), %rsi
.Ltmp146:
	#DEBUG_VALUE: main:_16 <- [%RSP+48]
	#DEBUG_VALUE: main:_26 <- %RSI
	.loc	1 533 2                 # MatrixMult.c:533:2
	movl	$.L.str.6, %edi
	xorl	%eax, %eax
	callq	printf
.Ltmp147:
	#DEBUG_VALUE: init:_27 <- 0
	#DEBUG_VALUE: init:_26 <- 0
	#DEBUG_VALUE: init:_25_has_ownership <- 0
	#DEBUG_VALUE: init:_24 <- 0
	#DEBUG_VALUE: init:_23 <- 0
	#DEBUG_VALUE: init:_22 <- 0
	#DEBUG_VALUE: init:_21 <- 0
	#DEBUG_VALUE: init:_20 <- 0
	#DEBUG_VALUE: init:_19 <- 0
	#DEBUG_VALUE: init:_18 <- 0
	#DEBUG_VALUE: init:_17 <- 0
	#DEBUG_VALUE: init:_16 <- 0
	#DEBUG_VALUE: init:_15 <- 0
	#DEBUG_VALUE: init:_14 <- 0
	#DEBUG_VALUE: init:_13 <- 0
	#DEBUG_VALUE: init:_12 <- 0
	#DEBUG_VALUE: init:_11 <- 0
	#DEBUG_VALUE: init:_10 <- 0
	#DEBUG_VALUE: init:_9 <- 0
	#DEBUG_VALUE: init:_8_has_ownership <- 0
	#DEBUG_VALUE: init:_8_size <- 40000
	#DEBUG_VALUE: init:_7 <- 40000
	#DEBUG_VALUE: init:_6 <- 200
	#DEBUG_VALUE: init:_5 <- 200
	#DEBUG_VALUE: init:_4 <- 0
	#DEBUG_VALUE: init:j <- 0
	#DEBUG_VALUE: init:i <- 0
	#DEBUG_VALUE: init:data_has_ownership <- 0
	#DEBUG_VALUE: init:data_size <- 0
	#DEBUG_VALUE: init:r_has_ownership <- 0
	.loc	1 85 2                  # MatrixMult.c:85:2
	xorl	%edi, %edi
	movl	$40000, %esi            # imm = 0x9C40
	callq	gen1DArray
	movq	%rax, %rbx
.Ltmp148:
	#DEBUG_VALUE: init:data <- %RBX
	#DEBUG_VALUE: init:_8 <- %RBX
	#DEBUG_VALUE: matrix:data <- %RBX
	#DEBUG_VALUE: init:_10 <- 200
	#DEBUG_VALUE: init:data_has_ownership <- 1
	#DEBUG_VALUE: init:data_size <- 40000
	.loc	1 536 8                 # MatrixMult.c:536:8
	movq	%rbx, 16(%rsp)
	leaq	16(%rsp), %rbp
.Ltmp149:
	movl	$init_polly_subfn, %edi
	xorl	%edx, %edx
	xorl	%ecx, %ecx
	movl	$7, %r8d
	movl	$1, %r9d
	movq	%rbp, %rsi
	callq	GOMP_parallel_loop_runtime_start
	movq	%rbp, %rdi
	callq	init_polly_subfn
	callq	GOMP_parallel_end
.Ltmp150:
	#DEBUG_VALUE: matrix:_4_has_ownership <- 0
	#DEBUG_VALUE: matrix:r_has_ownership <- 0
	#DEBUG_VALUE: matrix:data_has_ownership [bit_piece offset=0 size=1] <- 0
	#DEBUG_VALUE: matrix:data_size <- 40000
	#DEBUG_VALUE: matrix:height <- 200
	#DEBUG_VALUE: matrix:width <- 200
	#DEBUG_VALUE: init:_27 <- 200
	#DEBUG_VALUE: init:_26 <- 200
	.loc	1 30 7                  # MatrixMult.c:30:7
	movl	$32, %edi
	callq	malloc
	movq	%rax, %r12
.Ltmp151:
	#DEBUG_VALUE: matrix:_4 <- %R12
	#DEBUG_VALUE: init:_25 <- %R12
	#DEBUG_VALUE: main:_27 <- %R12
	#DEBUG_VALUE: main:B <- %R12
	.loc	1 31 2                  # MatrixMult.c:31:2
	movq	$40000, 8(%r12)         # imm = 0x9C40
	movl	$40000, %esi            # imm = 0x9C40
	movq	%rbx, %rdi
	callq	copy
	movq	%rax, %rbp
	movq	%rbp, (%r12)
.Ltmp152:
	.loc	1 33 12                 # MatrixMult.c:33:12
	movaps	.LCPI6_2(%rip), %xmm0   # xmm0 = [200,200]
.Ltmp153:
	.loc	1 33 12 is_stmt 0       # MatrixMult.c:33:12
	movups	%xmm0, 16(%r12)
.Ltmp154:
	#DEBUG_VALUE: matrix:_4_has_ownership <- 1
	#DEBUG_VALUE: init:_25_has_ownership <- 1
	.loc	1 163 2 is_stmt 1 discriminator 1 # MatrixMult.c:163:2
	movq	%rbx, %rdi
	callq	free
.Ltmp155:
	#DEBUG_VALUE: init:data_has_ownership <- 0
	#DEBUG_VALUE: main:_30_size <- 21
	#DEBUG_VALUE: main:B_has_ownership <- 1
	.loc	1 547 2                 # MatrixMult.c:547:2
	movl	$168, %edi
	callq	malloc
	movq	%rax, %rbx
.Ltmp156:
	#DEBUG_VALUE: main:_30 <- %RBX
	.loc	1 502 9                 # MatrixMult.c:502:9
	movaps	.LCPI6_3(%rip), %xmm0   # xmm0 = [77,97]
	.loc	1 548 9                 # MatrixMult.c:548:9
	movups	%xmm0, (%rbx)
	.loc	1 502 35                # MatrixMult.c:502:35
	movaps	.LCPI6_4(%rip), %xmm0   # xmm0 = [116,114]
	.loc	1 548 35                # MatrixMult.c:548:35
	movups	%xmm0, 16(%rbx)
	.loc	1 502 63                # MatrixMult.c:502:63
	movaps	.LCPI6_5(%rip), %xmm0   # xmm0 = [105,120]
	.loc	1 548 63                # MatrixMult.c:548:63
	movups	%xmm0, 32(%rbx)
	.loc	1 548 91 is_stmt 0      # MatrixMult.c:548:91
	movaps	.LCPI6_13(%rip), %xmm0  # xmm0 = [32,66]
	movups	%xmm0, 48(%rbx)
	.loc	1 502 117 is_stmt 1     # MatrixMult.c:502:117
	movaps	.LCPI6_7(%rip), %xmm0   # xmm0 = [91,78]
	.loc	1 548 117               # MatrixMult.c:548:117
	movups	%xmm0, 64(%rbx)
	.loc	1 502 144               # MatrixMult.c:502:144
	movaps	.LCPI6_8(%rip), %xmm0   # xmm0 = [45,49]
	.loc	1 548 144               # MatrixMult.c:548:144
	movups	%xmm0, 80(%rbx)
	.loc	1 502 172               # MatrixMult.c:502:172
	movaps	.LCPI6_9(%rip), %xmm0   # xmm0 = [93,91]
	.loc	1 548 172               # MatrixMult.c:548:172
	movups	%xmm0, 96(%rbx)
	.loc	1 502 200               # MatrixMult.c:502:200
	movaps	.LCPI6_10(%rip), %xmm0  # xmm0 = [78,45]
	.loc	1 548 200               # MatrixMult.c:548:200
	movups	%xmm0, 112(%rbx)
	.loc	1 502 228               # MatrixMult.c:502:228
	movaps	.LCPI6_11(%rip), %xmm0  # xmm0 = [49,93]
	.loc	1 548 228               # MatrixMult.c:548:228
	movups	%xmm0, 128(%rbx)
	.loc	1 502 256               # MatrixMult.c:502:256
	movaps	.LCPI6_12(%rip), %xmm0  # xmm0 = [32,61]
	.loc	1 548 256               # MatrixMult.c:548:256
	movups	%xmm0, 144(%rbx)
	.loc	1 548 284 is_stmt 0     # MatrixMult.c:548:284
	movq	$32, 160(%rbx)
.Ltmp157:
	#DEBUG_VALUE: main:_30_has_ownership <- 1
	.loc	1 551 2 is_stmt 1       # MatrixMult.c:551:2
	movl	$21, %esi
	movq	%rbx, %rdi
	callq	printf_s
	.loc	1 556 2                 # MatrixMult.c:556:2
	movl	$40000, %esi            # imm = 0x9C40
	movq	%rbp, %rdi
	callq	copy
.Ltmp158:
	#DEBUG_VALUE: main:_33 <- %RAX
	#DEBUG_VALUE: main:_42 <- 39999
	#DEBUG_VALUE: main:_41 <- 1
	#DEBUG_VALUE: main:_40 <- 40000
	#DEBUG_VALUE: main:_39 <- 200
	#DEBUG_VALUE: main:_38 <- 39800
	#DEBUG_VALUE: main:_37 <- 200
	#DEBUG_VALUE: main:_36 <- 199
	#DEBUG_VALUE: main:_35 <- 1
	#DEBUG_VALUE: main:_34 <- 200
	#DEBUG_VALUE: main:_33_has_ownership <- 1
	.loc	1 577 6                 # MatrixMult.c:577:6
	movq	%rax, 40(%rsp)          # 8-byte Spill
	movq	319992(%rax), %rsi
.Ltmp159:
	#DEBUG_VALUE: main:_33 <- [%RSP+40]
	#DEBUG_VALUE: main:_43 <- %RSI
	.loc	1 579 2                 # MatrixMult.c:579:2
	movl	$.L.str.6, %edi
	xorl	%eax, %eax
	callq	printf
.Ltmp160:
	.loc	1 584 8                 # MatrixMult.c:584:8
	xorl	%esi, %esi
	xorl	%ecx, %ecx
	movq	%r15, %rdi
.Ltmp161:
	#DEBUG_VALUE: matrix:_4 <- [%RSP+0]
	#DEBUG_VALUE: init:_25 <- [%RSP+0]
	#DEBUG_VALUE: main:_10 <- [%RSP+0]
	#DEBUG_VALUE: main:A <- [%RSP+0]
	movq	%r12, %rdx
	callq	mat_mult
.Ltmp162:
	#DEBUG_VALUE: main:C <- %RAX
	#DEBUG_VALUE: main:_44 <- %RAX
	#DEBUG_VALUE: main:C_has_ownership <- 1
	.loc	1 641 2                 # MatrixMult.c:641:2
	movq	%rax, 8(%rsp)           # 8-byte Spill
	movq	(%rax), %rbp
	movq	8(%rax), %r15
.Ltmp163:
	#DEBUG_VALUE: main:C <- [%RSP+8]
	#DEBUG_VALUE: main:_44 <- [%RSP+8]
	.loc	1 595 3                 # MatrixMult.c:595:3
	movq	%rbp, %rdi
	movq	%r15, %rsi
	callq	copy
.Ltmp164:
	#DEBUG_VALUE: main:_45 <- %RAX
	#DEBUG_VALUE: main:_54 <- 39999
	#DEBUG_VALUE: main:_53 <- 1
	#DEBUG_VALUE: main:_52 <- 40000
	#DEBUG_VALUE: main:_51 <- 200
	#DEBUG_VALUE: main:_50 <- 39800
	#DEBUG_VALUE: main:_49 <- 200
	#DEBUG_VALUE: main:_48 <- 199
	#DEBUG_VALUE: main:_47 <- 1
	#DEBUG_VALUE: main:_46 <- 200
	#DEBUG_VALUE: main:_45_has_ownership <- 1
	.loc	1 620 9                 # MatrixMult.c:620:9
	movl	$3996001000, %ecx       # imm = 0xEE2E22E8
.Ltmp165:
	#DEBUG_VALUE: main:_56 <- 3996001000
	cmpq	%rcx, 319992(%rax)
	jne	.LBB6_1
.Ltmp166:
# BB#2:                                 # %if.end114
	#DEBUG_VALUE: main:_45 <- %RAX
	#DEBUG_VALUE: main:_30 <- %RBX
	#DEBUG_VALUE: main:B <- %R12
	#DEBUG_VALUE: main:_27 <- %R12
	#DEBUG_VALUE: init:_25 <- %R12
	#DEBUG_VALUE: matrix:_4 <- %R12
	#DEBUG_VALUE: main:_13 <- %R13
	#DEBUG_VALUE: main:_6 <- %R14
	#DEBUG_VALUE: main:_59_size <- 21
	.loc	1 632 2                 # MatrixMult.c:632:2
	movl	$168, %edi
	movq	%rax, 64(%rsp)          # 8-byte Spill
	callq	malloc
.Ltmp167:
	movq	%r14, 56(%rsp)          # 8-byte Spill
	movq	%rax, %r14
.Ltmp168:
	#DEBUG_VALUE: main:_59 <- %R14
	.loc	1 502 9                 # MatrixMult.c:502:9
	movaps	.LCPI6_3(%rip), %xmm0   # xmm0 = [77,97]
	.loc	1 633 9                 # MatrixMult.c:633:9
	movups	%xmm0, (%r14)
	.loc	1 502 35                # MatrixMult.c:502:35
	movaps	.LCPI6_4(%rip), %xmm0   # xmm0 = [116,114]
	.loc	1 633 35                # MatrixMult.c:633:35
	movups	%xmm0, 16(%r14)
	.loc	1 502 63                # MatrixMult.c:502:63
	movaps	.LCPI6_5(%rip), %xmm0   # xmm0 = [105,120]
	.loc	1 633 63                # MatrixMult.c:633:63
	movups	%xmm0, 32(%r14)
	.loc	1 633 91 is_stmt 0      # MatrixMult.c:633:91
	movaps	.LCPI6_14(%rip), %xmm0  # xmm0 = [32,67]
	movups	%xmm0, 48(%r14)
	.loc	1 502 117 is_stmt 1     # MatrixMult.c:502:117
	movaps	.LCPI6_7(%rip), %xmm0   # xmm0 = [91,78]
	.loc	1 633 117               # MatrixMult.c:633:117
	movups	%xmm0, 64(%r14)
	.loc	1 502 144               # MatrixMult.c:502:144
	movaps	.LCPI6_8(%rip), %xmm0   # xmm0 = [45,49]
	.loc	1 633 144               # MatrixMult.c:633:144
	movups	%xmm0, 80(%r14)
	.loc	1 502 172               # MatrixMult.c:502:172
	movaps	.LCPI6_9(%rip), %xmm0   # xmm0 = [93,91]
	.loc	1 633 172               # MatrixMult.c:633:172
	movups	%xmm0, 96(%r14)
	.loc	1 502 200               # MatrixMult.c:502:200
	movaps	.LCPI6_10(%rip), %xmm0  # xmm0 = [78,45]
	.loc	1 633 200               # MatrixMult.c:633:200
	movups	%xmm0, 112(%r14)
	.loc	1 502 228               # MatrixMult.c:502:228
	movaps	.LCPI6_11(%rip), %xmm0  # xmm0 = [49,93]
	.loc	1 633 228               # MatrixMult.c:633:228
	movups	%xmm0, 128(%r14)
	.loc	1 502 256               # MatrixMult.c:502:256
	movaps	.LCPI6_12(%rip), %xmm0  # xmm0 = [32,61]
	.loc	1 633 256               # MatrixMult.c:633:256
	movups	%xmm0, 144(%r14)
	.loc	1 633 284 is_stmt 0     # MatrixMult.c:633:284
	movq	$32, 160(%r14)
.Ltmp169:
	#DEBUG_VALUE: main:_59_has_ownership <- 1
	.loc	1 636 2 is_stmt 1       # MatrixMult.c:636:2
	movl	$21, %esi
	movq	%r14, %rdi
	callq	printf_s
	.loc	1 641 2                 # MatrixMult.c:641:2
	movq	%rbp, %rdi
	movq	%r15, %rsi
	callq	copy
.Ltmp170:
	#DEBUG_VALUE: main:_62 <- %RAX
	#DEBUG_VALUE: main:_71 <- 39999
	#DEBUG_VALUE: main:_70 <- 1
	#DEBUG_VALUE: main:_69 <- 40000
	#DEBUG_VALUE: main:_68 <- 200
	#DEBUG_VALUE: main:_67 <- 39800
	#DEBUG_VALUE: main:_66 <- 200
	#DEBUG_VALUE: main:_65 <- 199
	#DEBUG_VALUE: main:_64 <- 1
	#DEBUG_VALUE: main:_63 <- 200
	#DEBUG_VALUE: main:_62_has_ownership <- 1
	.loc	1 662 6                 # MatrixMult.c:662:6
	movq	%rax, 32(%rsp)          # 8-byte Spill
	movq	319992(%rax), %rsi
.Ltmp171:
	#DEBUG_VALUE: main:_62 <- [%RSP+32]
	#DEBUG_VALUE: main:_72 <- %RSI
	.loc	1 664 2                 # MatrixMult.c:664:2
	movl	$.L.str.6, %edi
	xorl	%eax, %eax
	callq	printf
.Ltmp172:
	#DEBUG_VALUE: main:_75_size <- 5
	.loc	1 669 2                 # MatrixMult.c:669:2
	movl	$40, %edi
	callq	malloc
.Ltmp173:
	#DEBUG_VALUE: main:_75 <- %RAX
	.loc	1 670 9                 # MatrixMult.c:670:9
	movq	%rax, 24(%rsp)          # 8-byte Spill
	movaps	.LCPI6_15(%rip), %xmm0  # xmm0 = [80,97]
	movups	%xmm0, (%rax)
	.loc	1 670 35 is_stmt 0      # MatrixMult.c:670:35
	movaps	.LCPI6_16(%rip), %xmm0  # xmm0 = [115,115]
	movups	%xmm0, 16(%rax)
	.loc	1 670 63                # MatrixMult.c:670:63
	movq	$32, 32(%rax)
.Ltmp174:
	#DEBUG_VALUE: main:_75_has_ownership <- 1
	.loc	1 673 2 is_stmt 1       # MatrixMult.c:673:2
	movl	$5, %esi
	movq	%rax, %rdi
.Ltmp175:
	#DEBUG_VALUE: main:_75 <- [%RSP+24]
	callq	println_s
.Ltmp176:
	#DEBUG_VALUE: main:_78 <- 200
	.loc	1 679 2                 # MatrixMult.c:679:2
	movl	$.L.str.3, %edi
	movl	$200, %esi
	xorl	%eax, %eax
	callq	printf
.Ltmp177:
	#DEBUG_VALUE: main:_81_size <- 3
	.loc	1 684 2                 # MatrixMult.c:684:2
	movl	$24, %edi
	callq	malloc
	movq	%rax, %rbp
.Ltmp178:
	#DEBUG_VALUE: main:_81 <- %RBP
	.loc	1 685 9                 # MatrixMult.c:685:9
	movaps	.LCPI6_17(%rip), %xmm0  # xmm0 = [32,88]
	movups	%xmm0, (%rbp)
	.loc	1 685 35 is_stmt 0      # MatrixMult.c:685:35
	movq	$32, 16(%rbp)
.Ltmp179:
	#DEBUG_VALUE: main:_81_has_ownership <- 1
	.loc	1 688 2 is_stmt 1       # MatrixMult.c:688:2
	movl	$3, %esi
	movq	%rbp, %rdi
	callq	printf_s
.Ltmp180:
	#DEBUG_VALUE: main:_84 <- 200
	.loc	1 694 2                 # MatrixMult.c:694:2
	movl	$.L.str.3, %edi
	movl	$200, %esi
	xorl	%eax, %eax
	callq	printf
.Ltmp181:
	#DEBUG_VALUE: main:_87_size <- 21
	.loc	1 699 2                 # MatrixMult.c:699:2
	movl	$168, %edi
	callq	malloc
	movq	%rax, %r15
.Ltmp182:
	#DEBUG_VALUE: main:_87 <- %R15
	.loc	1 700 9                 # MatrixMult.c:700:9
	movaps	.LCPI6_18(%rip), %xmm0  # xmm0 = [32,77]
	movups	%xmm0, (%r15)
	.loc	1 700 35 is_stmt 0      # MatrixMult.c:700:35
	movaps	.LCPI6_19(%rip), %xmm0  # xmm0 = [97,116]
	movups	%xmm0, 16(%r15)
	.loc	1 700 62                # MatrixMult.c:700:62
	movaps	.LCPI6_20(%rip), %xmm0  # xmm0 = [114,105]
	movups	%xmm0, 32(%r15)
	.loc	1 700 90                # MatrixMult.c:700:90
	movaps	.LCPI6_21(%rip), %xmm0  # xmm0 = [120,77]
	movups	%xmm0, 48(%r15)
	.loc	1 700 117               # MatrixMult.c:700:117
	movaps	.LCPI6_22(%rip), %xmm0  # xmm0 = [117,108]
	movups	%xmm0, 64(%r15)
	.loc	1 700 146               # MatrixMult.c:700:146
	movaps	.LCPI6_23(%rip), %xmm0  # xmm0 = [116,32]
	movups	%xmm0, 80(%r15)
	.loc	1 700 175               # MatrixMult.c:700:175
	movaps	.LCPI6_24(%rip), %xmm0  # xmm0 = [116,101]
	movups	%xmm0, 96(%r15)
	.loc	1 700 205               # MatrixMult.c:700:205
	movaps	.LCPI6_25(%rip), %xmm0  # xmm0 = [115,116]
	movups	%xmm0, 112(%r15)
	.loc	1 700 235               # MatrixMult.c:700:235
	movaps	.LCPI6_26(%rip), %xmm0  # xmm0 = [32,99]
	movups	%xmm0, 128(%r15)
	.loc	1 700 263               # MatrixMult.c:700:263
	movaps	.LCPI6_27(%rip), %xmm0  # xmm0 = [97,115]
	movups	%xmm0, 144(%r15)
	.loc	1 700 292               # MatrixMult.c:700:292
	movq	$101, 160(%r15)
.Ltmp183:
	#DEBUG_VALUE: main:_87_has_ownership <- 1
	.loc	1 703 2 is_stmt 1       # MatrixMult.c:703:2
	movl	$21, %esi
	movq	%r15, %rdi
	callq	println_s
.Ltmp184:
	.loc	1 705 2 discriminator 1 # MatrixMult.c:705:2
	movq	(%rsp), %rdi            # 8-byte Reload
	callq	free_Matrix
.Ltmp185:
	#DEBUG_VALUE: main:A_has_ownership <- 0
	.loc	1 706 2 discriminator 1 # MatrixMult.c:706:2
	movq	%r12, %rdi
	callq	free_Matrix
.Ltmp186:
	#DEBUG_VALUE: main:B_has_ownership <- 0
	.loc	1 707 2 discriminator 1 # MatrixMult.c:707:2
	movq	8(%rsp), %rdi           # 8-byte Reload
	callq	free_Matrix
.Ltmp187:
	#DEBUG_VALUE: main:C_has_ownership <- 0
	.loc	1 708 2 discriminator 1 # MatrixMult.c:708:2
	movq	56(%rsp), %rdi          # 8-byte Reload
	callq	free
.Ltmp188:
	#DEBUG_VALUE: main:_6_has_ownership <- 0
	.loc	1 710 2 discriminator 1 # MatrixMult.c:710:2
	movq	%r13, %rdi
	callq	free
.Ltmp189:
	#DEBUG_VALUE: main:_13_has_ownership <- 0
	.loc	1 711 2 discriminator 1 # MatrixMult.c:711:2
	movq	48(%rsp), %rdi          # 8-byte Reload
	callq	free
.Ltmp190:
	#DEBUG_VALUE: main:_16_has_ownership <- 0
	.loc	1 713 2 discriminator 1 # MatrixMult.c:713:2
	movq	%rbx, %rdi
	callq	free
.Ltmp191:
	#DEBUG_VALUE: main:_30_has_ownership <- 0
	.loc	1 714 2 discriminator 1 # MatrixMult.c:714:2
	movq	40(%rsp), %rdi          # 8-byte Reload
	callq	free
.Ltmp192:
	#DEBUG_VALUE: main:_33_has_ownership <- 0
	.loc	1 716 2 discriminator 1 # MatrixMult.c:716:2
	movq	64(%rsp), %rdi          # 8-byte Reload
	callq	free
.Ltmp193:
	#DEBUG_VALUE: main:_45_has_ownership <- 0
	.loc	1 717 2 discriminator 1 # MatrixMult.c:717:2
	movq	%r14, %rdi
	callq	free
.Ltmp194:
	#DEBUG_VALUE: main:_59_has_ownership <- 0
	.loc	1 718 2 discriminator 1 # MatrixMult.c:718:2
	movq	32(%rsp), %rdi          # 8-byte Reload
	callq	free
.Ltmp195:
	#DEBUG_VALUE: main:_62_has_ownership <- 0
	.loc	1 719 2 discriminator 1 # MatrixMult.c:719:2
	movq	24(%rsp), %rdi          # 8-byte Reload
	callq	free
.Ltmp196:
	#DEBUG_VALUE: main:_75_has_ownership <- 0
	.loc	1 720 2 discriminator 1 # MatrixMult.c:720:2
	movq	%rbp, %rdi
	callq	free
.Ltmp197:
	#DEBUG_VALUE: main:_81_has_ownership <- 0
	.loc	1 721 2 discriminator 1 # MatrixMult.c:721:2
	movq	%r15, %rdi
	callq	free
.Ltmp198:
	#DEBUG_VALUE: main:_87_has_ownership <- 0
	.loc	1 722 2                 # MatrixMult.c:722:2
	xorl	%edi, %edi
	callq	exit
.Ltmp199:
.LBB6_1:                                # %if.end110
	#DEBUG_VALUE: main:_45 <- %RAX
	#DEBUG_VALUE: main:_30 <- %RBX
	#DEBUG_VALUE: main:B <- %R12
	#DEBUG_VALUE: main:_27 <- %R12
	#DEBUG_VALUE: init:_25 <- %R12
	#DEBUG_VALUE: matrix:_4 <- %R12
	#DEBUG_VALUE: main:_13 <- %R13
	#DEBUG_VALUE: main:_6 <- %R14
	.loc	1 622 11                # MatrixMult.c:622:11
	movq	stderr(%rip), %rcx
	.loc	1 622 3 is_stmt 0       # MatrixMult.c:622:3
	movl	$.L.str.7, %edi
	movl	$4, %esi
	movl	$1, %edx
	callq	fwrite
.Ltmp200:
	.loc	1 623 3 is_stmt 1       # MatrixMult.c:623:3
	movl	$-1, %edi
	callq	exit
.Ltmp201:
.Lfunc_end6:
	.size	main, .Lfunc_end6-main
	.cfi_endproc

	.p2align	4, 0x90
	.type	init_polly_subfn,@function
init_polly_subfn:                       # @init_polly_subfn
.Lfunc_begin7:
	.cfi_startproc
# BB#0:                                 # %polly.par.setup
	pushq	%rbp
.Ltmp202:
	.cfi_def_cfa_offset 16
	pushq	%r15
.Ltmp203:
	.cfi_def_cfa_offset 24
	pushq	%r14
.Ltmp204:
	.cfi_def_cfa_offset 32
	pushq	%r13
.Ltmp205:
	.cfi_def_cfa_offset 40
	pushq	%r12
.Ltmp206:
	.cfi_def_cfa_offset 48
	pushq	%rbx
.Ltmp207:
	.cfi_def_cfa_offset 56
	subq	$24, %rsp
.Ltmp208:
	.cfi_def_cfa_offset 80
.Ltmp209:
	.cfi_offset %rbx, -56
.Ltmp210:
	.cfi_offset %r12, -48
.Ltmp211:
	.cfi_offset %r13, -40
.Ltmp212:
	.cfi_offset %r14, -32
.Ltmp213:
	.cfi_offset %r15, -24
.Ltmp214:
	.cfi_offset %rbp, -16
	movq	(%rdi), %r12
	leaq	16(%rsp), %rdi
	leaq	8(%rsp), %rsi
	callq	GOMP_loop_runtime_next
	testb	%al, %al
	je	.LBB7_2
# BB#1:                                 # %polly.par.loadIVBounds.preheader
	addq	$16, %r12
	movl	$31, %r13d
	movl	$7, %r14d
	.p2align	4, 0x90
.LBB7_4:                                # %polly.par.loadIVBounds
                                        # =>This Loop Header: Depth=1
                                        #     Child Loop BB7_5 Depth 2
                                        #       Child Loop BB7_7 Depth 3
                                        #         Child Loop BB7_8 Depth 4
                                        #           Child Loop BB7_9 Depth 5
	movq	8(%rsp), %r8
	movq	16(%rsp), %r10
	addq	$-2, %r8
	imulq	$51200, %r10, %r9       # imm = 0xC800
	addq	%r12, %r9
	.p2align	4, 0x90
.LBB7_5:                                # %polly.loop_header
                                        #   Parent Loop BB7_4 Depth=1
                                        # =>  This Loop Header: Depth=2
                                        #       Child Loop BB7_7 Depth 3
                                        #         Child Loop BB7_8 Depth 4
                                        #           Child Loop BB7_9 Depth 5
	movq	%r10, %rsi
	shlq	$5, %rsi
	movl	$199, %edi
	subq	%rsi, %rdi
	cmpq	$31, %rdi
	cmovgq	%r13, %rdi
	testq	%rdi, %rdi
	js	.LBB7_12
# BB#6:                                 #   in Loop: Header=BB7_5 Depth=2
	decq	%rdi
	movq	%r9, %r11
	xorl	%edx, %edx
	.p2align	4, 0x90
.LBB7_7:                                # %polly.loop_header2.us
                                        #   Parent Loop BB7_4 Depth=1
                                        #     Parent Loop BB7_5 Depth=2
                                        # =>    This Loop Header: Depth=3
                                        #         Child Loop BB7_8 Depth 4
                                        #           Child Loop BB7_9 Depth 5
	leaq	(,%rdx,8), %rax
	movl	$49, %ecx
	subq	%rax, %rcx
	cmpq	$7, %rcx
	cmovgq	%r14, %rcx
	decq	%rcx
	movq	%r11, %r15
	xorl	%ebp, %ebp
	.p2align	4, 0x90
.LBB7_8:                                # %polly.loop_header8.us
                                        #   Parent Loop BB7_4 Depth=1
                                        #     Parent Loop BB7_5 Depth=2
                                        #       Parent Loop BB7_7 Depth=3
                                        # =>      This Loop Header: Depth=4
                                        #           Child Loop BB7_9 Depth 5
	leaq	(%rbp,%rsi), %rax
	.loc	1 121 11                # MatrixMult.c:121:11
	movd	%rax, %xmm0
	pshufd	$68, %xmm0, %xmm0       # xmm0 = xmm0[0,1,0,1]
	movq	$-1, %rax
	movq	%r15, %rbx
	.p2align	4, 0x90
.LBB7_9:                                # %polly.loop_header15.us
                                        #   Parent Loop BB7_4 Depth=1
                                        #     Parent Loop BB7_5 Depth=2
                                        #       Parent Loop BB7_7 Depth=3
                                        #         Parent Loop BB7_8 Depth=4
                                        # =>        This Inner Loop Header: Depth=5
	movdqu	-16(%rbx), %xmm1
	paddq	%xmm0, %xmm1
	movdqu	%xmm1, -16(%rbx)
	movdqu	(%rbx), %xmm1
	paddq	%xmm0, %xmm1
	movdqu	%xmm1, (%rbx)
	incq	%rax
	addq	$32, %rbx
	cmpq	%rcx, %rax
	jle	.LBB7_9
# BB#10:                                # %polly.loop_exit17.us
                                        #   in Loop: Header=BB7_8 Depth=4
	addq	$1600, %r15             # imm = 0x640
	cmpq	%rdi, %rbp
	leaq	1(%rbp), %rbp
	jle	.LBB7_8
# BB#11:                                # %polly.loop_exit10.loopexit.us
                                        #   in Loop: Header=BB7_7 Depth=3
	incq	%rdx
	addq	$256, %r11              # imm = 0x100
	cmpq	$7, %rdx
	jne	.LBB7_7
.LBB7_12:                               # %polly.loop_exit4
                                        #   in Loop: Header=BB7_5 Depth=2
	addq	$51200, %r9             # imm = 0xC800
	cmpq	%r8, %r10
	leaq	1(%r10), %r10
	jle	.LBB7_5
# BB#3:                                 # %polly.par.checkNext.loopexit
                                        #   in Loop: Header=BB7_4 Depth=1
	leaq	16(%rsp), %rdi
	leaq	8(%rsp), %rsi
	callq	GOMP_loop_runtime_next
	testb	%al, %al
	jne	.LBB7_4
.LBB7_2:                                # %polly.par.exit
	callq	GOMP_loop_end_nowait
	addq	$24, %rsp
	popq	%rbx
	popq	%r12
	popq	%r13
	popq	%r14
	popq	%r15
	popq	%rbp
	retq
.Lfunc_end7:
	.size	init_polly_subfn, .Lfunc_end7-init_polly_subfn
	.cfi_endproc

	.p2align	4, 0x90
	.type	mat_mult_polly_subfn,@function
mat_mult_polly_subfn:                   # @mat_mult_polly_subfn
.Lfunc_begin8:
	.cfi_startproc
# BB#0:                                 # %polly.par.setup
	pushq	%rbp
.Ltmp215:
	.cfi_def_cfa_offset 16
	pushq	%r15
.Ltmp216:
	.cfi_def_cfa_offset 24
	pushq	%r14
.Ltmp217:
	.cfi_def_cfa_offset 32
	pushq	%r13
.Ltmp218:
	.cfi_def_cfa_offset 40
	pushq	%r12
.Ltmp219:
	.cfi_def_cfa_offset 48
	pushq	%rbx
.Ltmp220:
	.cfi_def_cfa_offset 56
	subq	$136, %rsp
.Ltmp221:
	.cfi_def_cfa_offset 192
.Ltmp222:
	.cfi_offset %rbx, -56
.Ltmp223:
	.cfi_offset %r12, -48
.Ltmp224:
	.cfi_offset %r13, -40
.Ltmp225:
	.cfi_offset %r14, -32
.Ltmp226:
	.cfi_offset %r15, -24
.Ltmp227:
	.cfi_offset %rbp, -16
	movq	(%rdi), %rbx
	movq	8(%rdi), %rax
	movq	%rax, 8(%rsp)           # 8-byte Spill
	movq	16(%rdi), %rax
	movq	%rax, 56(%rsp)          # 8-byte Spill
	leaq	48(%rsp), %rdi
	leaq	40(%rsp), %rsi
	callq	GOMP_loop_runtime_next
	testb	%al, %al
	je	.LBB8_2
# BB#1:                                 # %polly.par.loadIVBounds.preheader
	addq	$24, 8(%rsp)            # 8-byte Folded Spill
	.p2align	4, 0x90
.LBB8_4:                                # %polly.par.loadIVBounds
                                        # =>This Loop Header: Depth=1
                                        #     Child Loop BB8_5 Depth 2
                                        #       Child Loop BB8_6 Depth 3
                                        #         Child Loop BB8_8 Depth 4
                                        #           Child Loop BB8_9 Depth 5
                                        #             Child Loop BB8_10 Depth 6
                                        #               Child Loop BB8_11 Depth 7
	movq	40(%rsp), %rax
	movq	48(%rsp), %rcx
	addq	$-2, %rax
	movq	%rax, 64(%rsp)          # 8-byte Spill
	imulq	$51200, %rcx, %rax      # imm = 0xC800
	addq	8(%rsp), %rax           # 8-byte Folded Reload
	movq	%rax, 16(%rsp)          # 8-byte Spill
	.p2align	4, 0x90
.LBB8_5:                                # %polly.loop_header
                                        #   Parent Loop BB8_4 Depth=1
                                        # =>  This Loop Header: Depth=2
                                        #       Child Loop BB8_6 Depth 3
                                        #         Child Loop BB8_8 Depth 4
                                        #           Child Loop BB8_9 Depth 5
                                        #             Child Loop BB8_10 Depth 6
                                        #               Child Loop BB8_11 Depth 7
	movq	%rcx, 72(%rsp)          # 8-byte Spill
	shlq	$5, %rcx
	movq	%rcx, 120(%rsp)         # 8-byte Spill
	movl	$199, %edx
	subq	%rcx, %rdx
	cmpq	$31, %rdx
	movl	$31, %eax
	cmovgq	%rax, %rdx
	movq	%rdx, 80(%rsp)          # 8-byte Spill
	leaq	-1(%rdx), %rax
	movq	%rax, 112(%rsp)         # 8-byte Spill
	movq	56(%rsp), %rax          # 8-byte Reload
	movq	%rax, 24(%rsp)          # 8-byte Spill
	xorl	%r10d, %r10d
	.p2align	4, 0x90
.LBB8_6:                                # %polly.loop_header2
                                        #   Parent Loop BB8_4 Depth=1
                                        #     Parent Loop BB8_5 Depth=2
                                        # =>    This Loop Header: Depth=3
                                        #         Child Loop BB8_8 Depth 4
                                        #           Child Loop BB8_9 Depth 5
                                        #             Child Loop BB8_10 Depth 6
                                        #               Child Loop BB8_11 Depth 7
	movq	%r10, 88(%rsp)          # 8-byte Spill
	shlq	$5, %r10
	movl	$199, %eax
	subq	%r10, %rax
	cmpq	$31, %rax
	movl	$31, %edi
	cmovleq	%rax, %rdi
	cmpq	$0, 80(%rsp)            # 8-byte Folded Reload
	js	.LBB8_15
# BB#7:                                 #   in Loop: Header=BB8_6 Depth=3
	decq	%rdi
	movq	16(%rsp), %r13          # 8-byte Reload
	movq	24(%rsp), %rax          # 8-byte Reload
	movq	%rax, 32(%rsp)          # 8-byte Spill
	xorl	%eax, %eax
	.p2align	4, 0x90
.LBB8_8:                                # %polly.loop_header8.us
                                        #   Parent Loop BB8_4 Depth=1
                                        #     Parent Loop BB8_5 Depth=2
                                        #       Parent Loop BB8_6 Depth=3
                                        # =>      This Loop Header: Depth=4
                                        #           Child Loop BB8_9 Depth 5
                                        #             Child Loop BB8_10 Depth 6
                                        #               Child Loop BB8_11 Depth 7
	movq	%rax, 96(%rsp)          # 8-byte Spill
	movq	%r13, 104(%rsp)         # 8-byte Spill
	leaq	(,%rax,8), %rax
	movl	$49, %r8d
	subq	%rax, %r8
	cmpq	$7, %r8
	movl	$7, %eax
	cmovgq	%rax, %r8
	decq	%r8
	xorl	%ecx, %ecx
	.p2align	4, 0x90
.LBB8_9:                                # %polly.loop_header14.us
                                        #   Parent Loop BB8_4 Depth=1
                                        #     Parent Loop BB8_5 Depth=2
                                        #       Parent Loop BB8_6 Depth=3
                                        #         Parent Loop BB8_8 Depth=4
                                        # =>        This Loop Header: Depth=5
                                        #             Child Loop BB8_10 Depth 6
                                        #               Child Loop BB8_11 Depth 7
	movq	%rcx, 128(%rsp)         # 8-byte Spill
	movq	120(%rsp), %rax         # 8-byte Reload
	leaq	(%rcx,%rax), %rax
	imulq	$200, %rax, %r11
	movq	32(%rsp), %rsi          # 8-byte Reload
	xorl	%r14d, %r14d
	.p2align	4, 0x90
.LBB8_10:                               # %polly.loop_header21.us
                                        #   Parent Loop BB8_4 Depth=1
                                        #     Parent Loop BB8_5 Depth=2
                                        #       Parent Loop BB8_6 Depth=3
                                        #         Parent Loop BB8_8 Depth=4
                                        #           Parent Loop BB8_9 Depth=5
                                        # =>          This Loop Header: Depth=6
                                        #               Child Loop BB8_11 Depth 7
	leaq	(%r14,%r10), %rdx
	addq	%r11, %rdx
	movq	(%rbx,%rdx,8), %rbp
	movq	$-1, %r12
	movq	%r13, %r9
	movq	%rsi, %rax
	.p2align	4, 0x90
.LBB8_11:                               # %polly.loop_header28.us
                                        #   Parent Loop BB8_4 Depth=1
                                        #     Parent Loop BB8_5 Depth=2
                                        #       Parent Loop BB8_6 Depth=3
                                        #         Parent Loop BB8_8 Depth=4
                                        #           Parent Loop BB8_9 Depth=5
                                        #             Parent Loop BB8_10 Depth=6
                                        # =>            This Inner Loop Header: Depth=7
	movq	(%rax), %r15
	.loc	1 314 12                # MatrixMult.c:314:12
	imulq	-24(%r9), %r15
	.loc	1 316 12                # MatrixMult.c:316:12
	addq	%rbp, %r15
	movq	1600(%rax), %rbp
	.loc	1 314 12                # MatrixMult.c:314:12
	imulq	-16(%r9), %rbp
	.loc	1 316 12                # MatrixMult.c:316:12
	addq	%r15, %rbp
	movq	3200(%rax), %rcx
	.loc	1 314 12                # MatrixMult.c:314:12
	imulq	-8(%r9), %rcx
	.loc	1 316 12                # MatrixMult.c:316:12
	addq	%rbp, %rcx
	movq	4800(%rax), %rbp
	.loc	1 314 12                # MatrixMult.c:314:12
	imulq	(%r9), %rbp
	.loc	1 316 12                # MatrixMult.c:316:12
	addq	%rcx, %rbp
	incq	%r12
	addq	$6400, %rax             # imm = 0x1900
	addq	$32, %r9
	cmpq	%r8, %r12
	jle	.LBB8_11
# BB#12:                                # %polly.loop_exit30.us
                                        #   in Loop: Header=BB8_10 Depth=6
	movq	%rbp, (%rbx,%rdx,8)
	addq	$8, %rsi
	cmpq	%rdi, %r14
	leaq	1(%r14), %r14
	jle	.LBB8_10
# BB#13:                                # %polly.loop_exit23.us
                                        #   in Loop: Header=BB8_9 Depth=5
	addq	$1600, %r13             # imm = 0x640
	movq	128(%rsp), %rcx         # 8-byte Reload
	cmpq	112(%rsp), %rcx         # 8-byte Folded Reload
	leaq	1(%rcx), %rcx
	jle	.LBB8_9
# BB#14:                                # %polly.loop_exit16.loopexit.us
                                        #   in Loop: Header=BB8_8 Depth=4
	movq	96(%rsp), %rax          # 8-byte Reload
	incq	%rax
	addq	$51200, 32(%rsp)        # 8-byte Folded Spill
                                        # imm = 0xC800
	movq	104(%rsp), %r13         # 8-byte Reload
	addq	$256, %r13              # imm = 0x100
	cmpq	$7, %rax
	jne	.LBB8_8
.LBB8_15:                               # %polly.loop_exit10
                                        #   in Loop: Header=BB8_6 Depth=3
	movq	88(%rsp), %r10          # 8-byte Reload
	incq	%r10
	addq	$256, 24(%rsp)          # 8-byte Folded Spill
                                        # imm = 0x100
	cmpq	$7, %r10
	jne	.LBB8_6
# BB#16:                                # %polly.loop_exit4
                                        #   in Loop: Header=BB8_5 Depth=2
	addq	$51200, 16(%rsp)        # 8-byte Folded Spill
                                        # imm = 0xC800
	movq	72(%rsp), %rcx          # 8-byte Reload
	cmpq	64(%rsp), %rcx          # 8-byte Folded Reload
	leaq	1(%rcx), %rcx
	jle	.LBB8_5
# BB#3:                                 # %polly.par.checkNext.loopexit
                                        #   in Loop: Header=BB8_4 Depth=1
	leaq	48(%rsp), %rdi
	leaq	40(%rsp), %rsi
	callq	GOMP_loop_runtime_next
	testb	%al, %al
	jne	.LBB8_4
.LBB8_2:                                # %polly.par.exit
	callq	GOMP_loop_end_nowait
	addq	$136, %rsp
	popq	%rbx
	popq	%r12
	popq	%r13
	popq	%r14
	popq	%r15
	popq	%rbp
	retq
.Lfunc_end8:
	.size	mat_mult_polly_subfn, .Lfunc_end8-mat_mult_polly_subfn
	.cfi_endproc

	.type	.L.str.1,@object        # @.str.1
	.section	.rodata.str1.1,"aMS",@progbits,1
.L.str.1:
	.asciz	" data:"
	.size	.L.str.1, 7

	.type	.L.str.2,@object        # @.str.2
.L.str.2:
	.asciz	" width:"
	.size	.L.str.2, 8

	.type	.L.str.3,@object        # @.str.3
.L.str.3:
	.asciz	"%lld"
	.size	.L.str.3, 5

	.type	.L.str.4,@object        # @.str.4
.L.str.4:
	.asciz	" height:"
	.size	.L.str.4, 9

	.type	.L.str.6,@object        # @.str.6
.L.str.6:
	.asciz	"%lld\n"
	.size	.L.str.6, 6

	.type	.L.str.7,@object        # @.str.7
.L.str.7:
	.asciz	"fail"
	.size	.L.str.7, 5

	.section	".note.GNU-stack","",@progbits