	.text
	.file	"llvm/GCD_cached.polly.ll"
	.globl	gcd
	.p2align	4, 0x90
	.type	gcd,@function
gcd:                                    # @gcd
.Lfunc_begin0:
	.file	1 "GCD_cached.c"
	.loc	1 2 0                   # GCD_cached.c:2:0
	.cfi_startproc
# BB#0:                                 # %entry
	#DEBUG_VALUE: gcd:a <- %RDI
	#DEBUG_VALUE: gcd:b <- %RSI
	#DEBUG_VALUE: gcd:_2 <- 0
	#DEBUG_VALUE: gcd:_3 <- 0
	#DEBUG_VALUE: gcd:_4 <- 0
	#DEBUG_VALUE: gcd:_5 <- 0
	#DEBUG_VALUE: gcd:_6 <- 0
	#DEBUG_VALUE: gcd:_7 <- 0
	.loc	1 12 6 prologue_end     # GCD_cached.c:12:6
	testq	%rdi, %rdi
	je	.LBB0_1
.Ltmp0:
# BB#2:                                 # %while.cond.preheader
	#DEBUG_VALUE: gcd:b <- %RSI
	#DEBUG_VALUE: gcd:a <- %RDI
	#DEBUG_VALUE: gcd:_4 <- 0
	js	.LBB0_6
.Ltmp1:
# BB#3:                                 # %blklab4.lr.ph.preheader
	#DEBUG_VALUE: gcd:b <- %RSI
	#DEBUG_VALUE: gcd:a <- %RDI
	.loc	1 35 7                  # GCD_cached.c:35:7
	testq	%rsi, %rsi
	je	.LBB0_8
.Ltmp2:
	.p2align	4, 0x90
.LBB0_4:                                # %blklab4
                                        # =>This Inner Loop Header: Depth=1
	#DEBUG_VALUE: gcd:_5 <- 0
	.loc	1 37 6                  # GCD_cached.c:37:6
	movq	%rdi, %rax
	subq	%rsi, %rax
	jle	.LBB0_7
# BB#5:                                 # %if.end9
                                        #   in Loop: Header=BB0_4 Depth=1
.Ltmp3:
	#DEBUG_VALUE: gcd:a <- %RAX
	#DEBUG_VALUE: gcd:_4 <- 0
	#DEBUG_VALUE: gcd:_6 <- %RAX
	movq	%rax, %rdi
.Ltmp4:
	#DEBUG_VALUE: gcd:_6 <- %RDI
	#DEBUG_VALUE: gcd:a <- %RDI
	jns	.LBB0_4
	jmp	.LBB0_6
.Ltmp5:
.LBB0_7:                                # %blklab5
                                        #   in Loop: Header=BB0_4 Depth=1
	.loc	1 47 7                  # GCD_cached.c:47:7
	subq	%rdi, %rsi
.Ltmp6:
	#DEBUG_VALUE: gcd:_7 <- %RSI
	#DEBUG_VALUE: gcd:_4 <- 0
	#DEBUG_VALUE: gcd:b <- %RSI
	jne	.LBB0_4
.Ltmp7:
.LBB0_8:                                # %cleanup
	#DEBUG_VALUE: gcd:b <- %RSI
	.loc	1 60 1                  # GCD_cached.c:60:1
	movq	%rdi, %rax
	retq
.Ltmp8:
.LBB0_1:
	#DEBUG_VALUE: gcd:b <- %RSI
	#DEBUG_VALUE: gcd:a <- %RDI
	movq	%rsi, %rdi
.Ltmp9:
	movq	%rdi, %rax
	retq
.Ltmp10:
.LBB0_6:                                # %if.end3
	#DEBUG_VALUE: gcd:a <- %RDI
	.loc	1 26 12                 # GCD_cached.c:26:12
	pushq	%rax
.Ltmp11:
	.cfi_def_cfa_offset 16
	movq	stderr(%rip), %rcx
	.loc	1 26 4 is_stmt 0        # GCD_cached.c:26:4
	movl	$.L.str, %edi
.Ltmp12:
	movl	$4, %esi
	movl	$1, %edx
	callq	fwrite
	.loc	1 27 4 is_stmt 1        # GCD_cached.c:27:4
	movl	$-1, %edi
	callq	exit
.Ltmp13:
.Lfunc_end0:
	.size	gcd, .Lfunc_end0-gcd
	.cfi_endproc

	.globl	gcd_cached
	.p2align	4, 0x90
	.type	gcd_cached,@function
gcd_cached:                             # @gcd_cached
.Lfunc_begin1:
	.loc	1 62 0                  # GCD_cached.c:62:0
	.cfi_startproc
# BB#0:                                 # %entry
	pushq	%r14
.Ltmp14:
	.cfi_def_cfa_offset 16
	pushq	%rbx
.Ltmp15:
	.cfi_def_cfa_offset 24
	pushq	%rax
.Ltmp16:
	.cfi_def_cfa_offset 32
.Ltmp17:
	.cfi_offset %rbx, -24
.Ltmp18:
	.cfi_offset %r14, -16
	#DEBUG_VALUE: gcd_cached:a <- %RDI
	#DEBUG_VALUE: gcd_cached:b <- %RSI
	#DEBUG_VALUE: gcd_cached:n <- %RDX
	#DEBUG_VALUE: gcd_cached:gcds <- %RCX
	#DEBUG_VALUE: gcd_cached:gcds_size <- %R8
	#DEBUG_VALUE: gcd_cached:gcds_dealloc [bit_piece offset=0 size=1] <- %R9D
	movq	%rsi, %r14
.Ltmp19:
	#DEBUG_VALUE: gcd_cached:b <- %R14
	movq	%rdi, %rbx
.Ltmp20:
	#DEBUG_VALUE: gcd_cached:_11 <- 0
	#DEBUG_VALUE: gcd_cached:_10 <- 0
	#DEBUG_VALUE: gcd_cached:_9 <- 0
	#DEBUG_VALUE: gcd_cached:_8 <- 0
	#DEBUG_VALUE: gcd_cached:_7 <- 0
	#DEBUG_VALUE: gcd_cached:_6 <- 0
	#DEBUG_VALUE: gcd_cached:_5 <- 0
	#DEBUG_VALUE: gcd_cached:_4 <- 0
	#DEBUG_VALUE: gcd_cached:gcds_dealloc [bit_piece offset=0 size=1] <- %R9B
	#DEBUG_VALUE: gcd_cached:a <- %RBX
	.loc	1 74 5 prologue_end     # GCD_cached.c:74:5
	testq	%rbx, %rbx
	je	.LBB1_3
.Ltmp21:
# BB#1:                                 # %blklab7
	#DEBUG_VALUE: gcd_cached:a <- %RBX
	#DEBUG_VALUE: gcd_cached:gcds_dealloc [bit_piece offset=0 size=1] <- %R9B
	#DEBUG_VALUE: gcd_cached:b <- %R14
	#DEBUG_VALUE: gcd_cached:gcds_size <- %R8
	#DEBUG_VALUE: gcd_cached:gcds <- %RCX
	#DEBUG_VALUE: gcd_cached:n <- %RDX
	#DEBUG_VALUE: gcd_cached:_6 <- 0
	.loc	1 85 5                  # GCD_cached.c:85:5
	testq	%r14, %r14
	je	.LBB1_5
.Ltmp22:
# BB#2:                                 # %blklab9
	#DEBUG_VALUE: gcd_cached:a <- %RBX
	#DEBUG_VALUE: gcd_cached:gcds_dealloc [bit_piece offset=0 size=1] <- %R9B
	#DEBUG_VALUE: gcd_cached:b <- %R14
	#DEBUG_VALUE: gcd_cached:gcds_size <- %R8
	#DEBUG_VALUE: gcd_cached:gcds <- %RCX
	#DEBUG_VALUE: gcd_cached:n <- %RDX
	movq	%rbx, %rax
	negq	%rax
	xorl	%esi, %esi
.Ltmp23:
	.loc	1 94 6                  # GCD_cached.c:94:6
	cmpq	%r14, %rbx
	cmovgq	%rsi, %rax
.Ltmp24:
	.loc	1 94 5 is_stmt 0        # GCD_cached.c:94:5
	cmovgq	%r14, %rsi
	addq	%r14, %rax
	subq	%rsi, %rbx
.Ltmp25:
	.loc	1 110 6 is_stmt 1       # GCD_cached.c:110:6
	imulq	%rdx, %rbx
.Ltmp26:
	#DEBUG_VALUE: gcd_cached:_9 <- %RBX
	.loc	1 112 8                 # GCD_cached.c:112:8
	addq	%rax, %rbx
.Ltmp27:
	#DEBUG_VALUE: gcd_cached:_10 <- %RBX
	.loc	1 114 6                 # GCD_cached.c:114:6
	movq	(%rcx,%rbx,8), %r14
.Ltmp28:
.LBB1_3:                                # %blklab9
	#DEBUG_VALUE: gcd_cached:gcds_dealloc [bit_piece offset=0 size=1] <- %R9B
	#DEBUG_VALUE: gcd_cached:gcds_size <- %R8
	#DEBUG_VALUE: gcd_cached:gcds <- %RCX
	#DEBUG_VALUE: gcd_cached:n <- %RDX
	#DEBUG_VALUE: gcd_cached:_11 <- %R14
	.loc	1 116 2                 # GCD_cached.c:116:2
	testb	%r9b, %r9b
	je	.LBB1_8
.Ltmp29:
# BB#4:                                 # %if.then14
	#DEBUG_VALUE: gcd_cached:_11 <- %R14
	#DEBUG_VALUE: gcd_cached:gcds_dealloc [bit_piece offset=0 size=1] <- %R9B
	#DEBUG_VALUE: gcd_cached:gcds_size <- %R8
	#DEBUG_VALUE: gcd_cached:gcds <- %RCX
	#DEBUG_VALUE: gcd_cached:n <- %RDX
	.loc	1 116 2 is_stmt 0 discriminator 1 # GCD_cached.c:116:2
	movq	%rcx, %rdi
	callq	free
.Ltmp30:
	#DEBUG_VALUE: gcd_cached:gcds_dealloc <- 0
	jmp	.LBB1_8
.Ltmp31:
.LBB1_5:                                # %if.end5
	#DEBUG_VALUE: gcd_cached:a <- %RBX
	#DEBUG_VALUE: gcd_cached:gcds_dealloc [bit_piece offset=0 size=1] <- %R9B
	#DEBUG_VALUE: gcd_cached:b <- %R14
	#DEBUG_VALUE: gcd_cached:gcds_size <- %R8
	#DEBUG_VALUE: gcd_cached:gcds <- %RCX
	#DEBUG_VALUE: gcd_cached:n <- %RDX
	.loc	1 87 2 is_stmt 1        # GCD_cached.c:87:2
	testb	%r9b, %r9b
	je	.LBB1_7
.Ltmp32:
# BB#6:                                 # %if.then7
	#DEBUG_VALUE: gcd_cached:a <- %RBX
	#DEBUG_VALUE: gcd_cached:gcds_dealloc [bit_piece offset=0 size=1] <- %R9B
	#DEBUG_VALUE: gcd_cached:b <- %R14
	#DEBUG_VALUE: gcd_cached:gcds_size <- %R8
	#DEBUG_VALUE: gcd_cached:gcds <- %RCX
	#DEBUG_VALUE: gcd_cached:n <- %RDX
	.loc	1 87 2 is_stmt 0 discriminator 1 # GCD_cached.c:87:2
	movq	%rcx, %rdi
	callq	free
.Ltmp33:
.LBB1_7:
	#DEBUG_VALUE: gcd_cached:a <- %RBX
	#DEBUG_VALUE: gcd_cached:b <- %R14
	movq	%rbx, %r14
.Ltmp34:
.LBB1_8:                                # %cleanup
	.loc	1 123 1 is_stmt 1 discriminator 2 # GCD_cached.c:123:1
	movq	%r14, %rax
	addq	$8, %rsp
	popq	%rbx
	popq	%r14
	retq
.Ltmp35:
.Lfunc_end1:
	.size	gcd_cached, .Lfunc_end1-gcd_cached
	.cfi_endproc

	.section	.rodata.cst16,"aM",@progbits,16
	.p2align	4
.LCPI2_0:
	.quad	78                      # 0x4e
	.quad	32                      # 0x20
.LCPI2_1:
	.quad	61                      # 0x3d
	.quad	32                      # 0x20
.LCPI2_2:
	.quad	2                       # 0x2
	.quad	2                       # 0x2
.LCPI2_3:
	.quad	4                       # 0x4
	.quad	4                       # 0x4
.LCPI2_4:
	.quad	6                       # 0x6
	.quad	6                       # 0x6
.LCPI2_5:
	.quad	8                       # 0x8
	.quad	8                       # 0x8
.LCPI2_6:
	.quad	83                      # 0x53
	.quad	117                     # 0x75
.LCPI2_7:
	.quad	109                     # 0x6d
	.quad	58                      # 0x3a
.LCPI2_8:
	.quad	80                      # 0x50
	.quad	97                      # 0x61
.LCPI2_9:
	.quad	115                     # 0x73
	.quad	115                     # 0x73
.LCPI2_10:
	.quad	32                      # 0x20
	.quad	99                      # 0x63
.LCPI2_11:
	.quad	97                      # 0x61
	.quad	99                      # 0x63
.LCPI2_12:
	.quad	104                     # 0x68
	.quad	101                     # 0x65
.LCPI2_13:
	.quad	100                     # 0x64
	.quad	32                      # 0x20
.LCPI2_14:
	.quad	69                      # 0x45
	.quad	117                     # 0x75
.LCPI2_15:
	.quad	99                      # 0x63
	.quad	108                     # 0x6c
.LCPI2_16:
	.quad	105                     # 0x69
	.quad	100                     # 0x64
.LCPI2_17:
	.quad	32                      # 0x20
	.quad	71                      # 0x47
.LCPI2_18:
	.quad	67                      # 0x43
	.quad	68                      # 0x44
.LCPI2_19:
	.quad	32                      # 0x20
	.quad	116                     # 0x74
.LCPI2_20:
	.quad	101                     # 0x65
	.quad	115                     # 0x73
.LCPI2_21:
	.quad	116                     # 0x74
	.quad	32                      # 0x20
.LCPI2_22:
	.quad	99                      # 0x63
	.quad	97                      # 0x61
.LCPI2_23:
	.quad	115                     # 0x73
	.quad	101                     # 0x65
	.text
	.globl	main
	.p2align	4, 0x90
	.type	main,@function
main:                                   # @main
.Lfunc_begin2:
	.loc	1 125 0                 # GCD_cached.c:125:0
	.cfi_startproc
# BB#0:                                 # %entry
	.loc	1 171 2 prologue_end    # GCD_cached.c:171:2
	pushq	%rbp
.Ltmp36:
	.cfi_def_cfa_offset 16
	pushq	%r15
.Ltmp37:
	.cfi_def_cfa_offset 24
	pushq	%r14
.Ltmp38:
	.cfi_def_cfa_offset 32
	pushq	%r13
.Ltmp39:
	.cfi_def_cfa_offset 40
	pushq	%r12
.Ltmp40:
	.cfi_def_cfa_offset 48
	pushq	%rbx
.Ltmp41:
	.cfi_def_cfa_offset 56
	subq	$40, %rsp
.Ltmp42:
	.cfi_def_cfa_offset 96
.Ltmp43:
	.cfi_offset %rbx, -56
.Ltmp44:
	.cfi_offset %r12, -48
.Ltmp45:
	.cfi_offset %r13, -40
.Ltmp46:
	.cfi_offset %r14, -32
.Ltmp47:
	.cfi_offset %r15, -24
.Ltmp48:
	.cfi_offset %rbp, -16
	#DEBUG_VALUE: main:argc <- %EDI
	#DEBUG_VALUE: main:args <- %RSI
.Ltmp49:
	#DEBUG_VALUE: main:max_dealloc <- 0
	#DEBUG_VALUE: main:n <- 0
	#DEBUG_VALUE: main:gcds_size <- 0
	#DEBUG_VALUE: main:gcds_dealloc <- 0
	#DEBUG_VALUE: main:sum <- 0
	#DEBUG_VALUE: main:i <- 0
	#DEBUG_VALUE: main:j <- 0
	#DEBUG_VALUE: main:_7_dealloc <- 0
	#DEBUG_VALUE: main:_8_size <- 0
	#DEBUG_VALUE: main:_8_size_size <- 0
	#DEBUG_VALUE: main:_8_dealloc <- 0
	#DEBUG_VALUE: main:_9 <- 0
	#DEBUG_VALUE: main:_10_size <- 0
	#DEBUG_VALUE: main:_10_dealloc <- 0
	#DEBUG_VALUE: main:_13_size <- 0
	#DEBUG_VALUE: main:_13_dealloc <- 0
	#DEBUG_VALUE: main:_16 <- 0
	#DEBUG_VALUE: main:_17 <- 0
	#DEBUG_VALUE: main:_18_size <- 0
	#DEBUG_VALUE: main:_18_dealloc <- 0
	#DEBUG_VALUE: main:_19 <- 0
	#DEBUG_VALUE: main:_20 <- 0
	#DEBUG_VALUE: main:_21 <- 0
	#DEBUG_VALUE: main:_22 <- 0
	#DEBUG_VALUE: main:_23 <- 0
	#DEBUG_VALUE: main:_24 <- 0
	#DEBUG_VALUE: main:_25 <- 0
	#DEBUG_VALUE: main:_26 <- 0
	#DEBUG_VALUE: main:_27 <- 0
	#DEBUG_VALUE: main:_28 <- 0
	#DEBUG_VALUE: main:_29 <- 0
	#DEBUG_VALUE: main:_30 <- 0
	#DEBUG_VALUE: main:_31 <- 0
	#DEBUG_VALUE: main:_32 <- 0
	#DEBUG_VALUE: main:_35_size <- 0
	#DEBUG_VALUE: main:_35_dealloc <- 0
	#DEBUG_VALUE: main:_40_size <- 0
	#DEBUG_VALUE: main:_40_dealloc <- 0
	callq	convertArgsToIntArray
.Ltmp50:
	#DEBUG_VALUE: main:_8 <- %RAX
	.loc	1 175 6                 # GCD_cached.c:175:6
	movq	(%rax), %rdi
.Ltmp51:
	#DEBUG_VALUE: main:_10 <- %RDI
	.loc	1 178 2                 # GCD_cached.c:178:2
	callq	parseStringToInt
.Ltmp52:
	#DEBUG_VALUE: main:max <- %RAX
	#DEBUG_VALUE: main:_7 <- %RAX
	#DEBUG_VALUE: main:max_dealloc <- 1
	.loc	1 186 9                 # GCD_cached.c:186:9
	testq	%rax, %rax
	je	.LBB2_21
.Ltmp53:
# BB#1:                                 # %if.end5
	#DEBUG_VALUE: main:_7 <- %RAX
	#DEBUG_VALUE: main:max <- %RAX
	movq	%rax, 16(%rsp)          # 8-byte Spill
	.loc	1 188 6                 # GCD_cached.c:188:6
	movq	(%rax), %r13
.Ltmp54:
	#DEBUG_VALUE: gcd_cached:n <- %R13
	#DEBUG_VALUE: main:_13_size <- 4
	#DEBUG_VALUE: main:n <- %R13
	.loc	1 201 2                 # GCD_cached.c:201:2
	xorl	%ebx, %ebx
	.loc	1 193 2                 # GCD_cached.c:193:2
	xorl	%edi, %edi
	movl	$4, %esi
	callq	create1DArray
.Ltmp55:
	#DEBUG_VALUE: main:_13 <- %RAX
	.loc	1 194 9                 # GCD_cached.c:194:9
	movaps	.LCPI2_0(%rip), %xmm0   # xmm0 = [78,32]
	movups	%xmm0, (%rax)
	.loc	1 194 35 is_stmt 0      # GCD_cached.c:194:35
	movdqa	.LCPI2_1(%rip), %xmm0   # xmm0 = [61,32]
	movdqu	%xmm0, 16(%rax)
.Ltmp56:
	#DEBUG_VALUE: main:_13_dealloc <- 1
	.loc	1 197 2 is_stmt 1       # GCD_cached.c:197:2
	movl	$4, %esi
	movq	%rax, 8(%rsp)           # 8-byte Spill
.Ltmp57:
	#DEBUG_VALUE: main:_13 <- [%RSP+8]
	movq	%rax, %rdi
	callq	printf_s
.Ltmp58:
	.loc	1 201 2                 # GCD_cached.c:201:2
	movl	$.L.str.1, %edi
	xorl	%eax, %eax
	movq	%r13, %rsi
	callq	printf
	#DEBUG_VALUE: main:_16 <- 0
	.loc	1 205 7                 # GCD_cached.c:205:7
	movl	%r13d, %esi
	imull	%esi, %esi
	.loc	1 208 2                 # GCD_cached.c:208:2
	xorl	%edi, %edi
	callq	create1DArray
	movq	%rax, %r12
.Ltmp59:
	#DEBUG_VALUE: main:gcds <- %R12
	#DEBUG_VALUE: main:_18 <- %R12
	#DEBUG_VALUE: gcd_cached:gcds <- %R12
	#DEBUG_VALUE: main:_20 <- 0
	#DEBUG_VALUE: main:_19 <- 0
	#DEBUG_VALUE: main:_18_dealloc <- 0
	#DEBUG_VALUE: main:i <- 0
	#DEBUG_VALUE: main:sum <- 0
	#DEBUG_VALUE: main:gcds_dealloc <- 1
	.loc	1 225 6                 # GCD_cached.c:225:6
	testq	%r13, %r13
	jle	.LBB2_20
.Ltmp60:
# BB#2:                                 # %while.cond31.preheader.us.preheader
	#DEBUG_VALUE: gcd_cached:gcds <- %R12
	#DEBUG_VALUE: main:_18 <- %R12
	#DEBUG_VALUE: main:gcds <- %R12
	#DEBUG_VALUE: main:n <- %R13
	#DEBUG_VALUE: gcd_cached:n <- %R13
	.loc	1 74 6                  # GCD_cached.c:74:6
	leaq	-4(%r13), %rax
	shrq	$2, %rax
	leal	1(%rax), %ecx
.Ltmp61:
	.loc	1 62 32                 # GCD_cached.c:62:32
	movq	%r13, %rdx
	andq	$-4, %rdx
	andl	$1, %ecx
.Ltmp62:
	.loc	1 74 6                  # GCD_cached.c:74:6
	leaq	(,%r13,8), %rsi
	movq	%rcx, 32(%rsp)          # 8-byte Spill
	decq	%rcx
	movq	%rax, %r11
	subq	%rax, %rcx
	movq	%rcx, 24(%rsp)          # 8-byte Spill
	xorl	%edi, %edi
	movl	$1, %eax
	movd	%rax, %xmm8
	pslldq	$8, %xmm8               # xmm8 = zero,zero,zero,zero,zero,zero,zero,zero,xmm8[0,1,2,3,4,5,6,7]
	movdqa	.LCPI2_2(%rip), %xmm1   # xmm1 = [2,2]
	movdqa	.LCPI2_3(%rip), %xmm9   # xmm9 = [4,4]
	movdqa	.LCPI2_4(%rip), %xmm3   # xmm3 = [6,6]
	movdqa	.LCPI2_5(%rip), %xmm4   # xmm4 = [8,8]
	movq	%r12, %r14
	xorl	%ebx, %ebx
	xorl	%r10d, %r10d
	jmp	.LBB2_3
.Ltmp63:
.LBB2_13:                               #   in Loop: Header=BB2_3 Depth=1
	#DEBUG_VALUE: main:_23 <- %RBP
	#DEBUG_VALUE: main:_25 <- %RBP
	#DEBUG_VALUE: gcd_cached:a <- %R10
	movdqa	%xmm8, %xmm2
.Ltmp64:
.LBB2_16:                               # %middle.block.unr-lcssa
                                        #   in Loop: Header=BB2_3 Depth=1
	cmpq	$0, 32(%rsp)            # 8-byte Folded Reload
	je	.LBB2_18
# BB#17:                                # %middle.block.epilog-lcssa
                                        #   in Loop: Header=BB2_3 Depth=1
	.loc	1 62 32                 # GCD_cached.c:62:32
	movdqa	%xmm2, %xmm0
	paddq	%xmm1, %xmm0
.Ltmp65:
	.loc	1 241 4                 # GCD_cached.c:241:4
	movd	%xmm2, %rax
	addq	%rbp, %rax
	.loc	1 241 14 is_stmt 0      # GCD_cached.c:241:14
	movdqu	%xmm2, (%r12,%rax,8)
	movdqu	%xmm0, 16(%r12,%rax,8)
	.loc	1 249 11 is_stmt 1      # GCD_cached.c:249:11
	paddq	%xmm0, %xmm6
	paddq	%xmm2, %xmm5
.LBB2_18:                               # %middle.block
                                        #   in Loop: Header=BB2_3 Depth=1
	cmpq	%rdx, %r13
	paddq	%xmm5, %xmm6
	pshufd	$78, %xmm6, %xmm0       # xmm0 = xmm6[2,3,0,1]
	paddq	%xmm6, %xmm0
	movd	%xmm0, %rbx
	movq	%rdx, %rax
	jne	.LBB2_10
	jmp	.LBB2_19
	.p2align	4, 0x90
.LBB2_3:                                # %while.cond31.preheader.us
                                        # =>This Loop Header: Depth=1
                                        #     Child Loop BB2_5 Depth 2
                                        #     Child Loop BB2_15 Depth 2
                                        #     Child Loop BB2_10 Depth 2
.Ltmp66:
	#DEBUG_VALUE: gcd_cached:a <- %R10
	.loc	1 74 6                  # GCD_cached.c:74:6
	testq	%r10, %r10
.Ltmp67:
	.loc	1 74 5 is_stmt 0        # GCD_cached.c:74:5
	je	.LBB2_8
.Ltmp68:
# BB#4:                                 # %if.end36.us228.preheader
                                        #   in Loop: Header=BB2_3 Depth=1
	#DEBUG_VALUE: gcd_cached:a <- %R10
	.loc	1 235 10 is_stmt 1      # GCD_cached.c:235:10
	movq	%r10, %rbp
	negq	%rbp
	movq	%r14, %rax
	xorl	%r15d, %r15d
.Ltmp69:
	.p2align	4, 0x90
.LBB2_5:                                # %if.end36.us228
                                        #   Parent Loop BB2_3 Depth=1
                                        # =>  This Inner Loop Header: Depth=2
	#DEBUG_VALUE: gcd_cached:gcds_dealloc [bit_piece offset=0 size=1] <- 0
	#DEBUG_VALUE: gcd_cached:_4 <- 0
	#DEBUG_VALUE: gcd_cached:_5 <- 0
	#DEBUG_VALUE: gcd_cached:_6 <- 0
	#DEBUG_VALUE: gcd_cached:_7 <- 0
	#DEBUG_VALUE: gcd_cached:_8 <- 0
	#DEBUG_VALUE: gcd_cached:_9 <- 0
	#DEBUG_VALUE: gcd_cached:_10 <- 0
	#DEBUG_VALUE: gcd_cached:_11 <- 0
	#DEBUG_VALUE: gcd_cached:b <- %R15
	.loc	1 85 6                  # GCD_cached.c:85:6
	testq	%r15, %r15
.Ltmp70:
	.loc	1 235 10                # GCD_cached.c:235:10
	movq	%r10, %rcx
	je	.LBB2_7
.Ltmp71:
# BB#6:                                 # %blklab9.i.us233
                                        #   in Loop: Header=BB2_5 Depth=2
	#DEBUG_VALUE: gcd_cached:b <- %R15
	.loc	1 94 6                  # GCD_cached.c:94:6
	cmpq	%r15, %r10
.Ltmp72:
	.loc	1 235 10                # GCD_cached.c:235:10
	movq	%rbp, %rcx
	cmovgq	%rdi, %rcx
.Ltmp73:
	.loc	1 94 5                  # GCD_cached.c:94:5
	movl	$0, %r8d
	cmovgq	%r15, %r8
	movq	%r10, %r9
	subq	%r8, %r9
	.loc	1 114 6                 # GCD_cached.c:114:6
	imulq	%r13, %r9
	addq	%rcx, %r9
	addq	%r15, %r9
	movq	(%r12,%r9,8), %rcx
.Ltmp74:
	#DEBUG_VALUE: gcd_cached:_11 <- %RCX
.LBB2_7:                                # %gcd_cached.exit.us242
                                        #   in Loop: Header=BB2_5 Depth=2
	#DEBUG_VALUE: gcd_cached:b <- %R15
	#DEBUG_VALUE: main:_22 <- %RCX
	.loc	1 241 14                # GCD_cached.c:241:14
	movq	%rcx, (%rax)
	.loc	1 249 11                # GCD_cached.c:249:11
	addq	%rcx, %rbx
.Ltmp75:
	#DEBUG_VALUE: main:_29 <- 1
	#DEBUG_VALUE: main:_28 <- %RBX
	#DEBUG_VALUE: main:sum <- %RBX
	.loc	1 255 9                 # GCD_cached.c:255:9
	incq	%r15
.Ltmp76:
	#DEBUG_VALUE: main:_30 <- %R15
	#DEBUG_VALUE: main:j <- %R15
	.loc	1 233 7                 # GCD_cached.c:233:7
	addq	$8, %rax
	cmpq	%r15, %r13
	jne	.LBB2_5
	jmp	.LBB2_19
.Ltmp77:
	.p2align	4, 0x90
.LBB2_8:                                # %if.end36.us.us.preheader
                                        #   in Loop: Header=BB2_3 Depth=1
	#DEBUG_VALUE: gcd_cached:a <- %R10
	.loc	1 62 32                 # GCD_cached.c:62:32
	cmpq	$3, %r13
	jbe	.LBB2_9
.Ltmp78:
# BB#11:                                # %min.iters.checked
                                        #   in Loop: Header=BB2_3 Depth=1
	#DEBUG_VALUE: gcd_cached:a <- %R10
	testq	%rdx, %rdx
	je	.LBB2_9
.Ltmp79:
# BB#12:                                # %vector.ph
                                        #   in Loop: Header=BB2_3 Depth=1
	#DEBUG_VALUE: gcd_cached:a <- %R10
	.loc	1 237 9                 # GCD_cached.c:237:9
	movq	%r10, %rbp
	imulq	%r13, %rbp
.Ltmp80:
	#DEBUG_VALUE: main:_25 <- %RBP
	#DEBUG_VALUE: main:_23 <- %RBP
	testq	%r11, %r11
.Ltmp81:
	.loc	1 62 32                 # GCD_cached.c:62:32
	movd	%rbx, %xmm5
	pxor	%xmm6, %xmm6
	je	.LBB2_13
.Ltmp82:
# BB#14:                                # %vector.ph.new
                                        #   in Loop: Header=BB2_3 Depth=1
	#DEBUG_VALUE: main:_23 <- %RBP
	#DEBUG_VALUE: main:_25 <- %RBP
	#DEBUG_VALUE: gcd_cached:a <- %R10
	movl	$1, %eax
	movd	%rax, %xmm2
	pslldq	$8, %xmm2               # xmm2 = zero,zero,zero,zero,zero,zero,zero,zero,xmm2[0,1,2,3,4,5,6,7]
	pxor	%xmm6, %xmm6
	movq	24(%rsp), %rbx          # 8-byte Reload
.Ltmp83:
	.p2align	4, 0x90
.LBB2_15:                               # %vector.body
                                        #   Parent Loop BB2_3 Depth=1
                                        # =>  This Inner Loop Header: Depth=2
	movdqa	%xmm2, %xmm7
	paddq	%xmm1, %xmm7
	movdqa	%xmm2, %xmm0
	paddq	%xmm9, %xmm0
.Ltmp84:
	.loc	1 241 4                 # GCD_cached.c:241:4
	movd	%xmm2, %rax
	addq	%rbp, %rax
	.loc	1 241 14 is_stmt 0      # GCD_cached.c:241:14
	movdqu	%xmm2, (%r12,%rax,8)
	movdqu	%xmm7, 16(%r12,%rax,8)
	.loc	1 249 11 is_stmt 1      # GCD_cached.c:249:11
	paddq	%xmm2, %xmm5
	paddq	%xmm6, %xmm7
.Ltmp85:
	.loc	1 62 32                 # GCD_cached.c:62:32
	movdqa	%xmm2, %xmm6
	paddq	%xmm3, %xmm6
	paddq	%xmm4, %xmm2
.Ltmp86:
	.loc	1 241 4                 # GCD_cached.c:241:4
	movd	%xmm0, %rax
	addq	%rbp, %rax
	.loc	1 241 14 is_stmt 0      # GCD_cached.c:241:14
	movdqu	%xmm0, (%r12,%rax,8)
	movdqu	%xmm6, 16(%r12,%rax,8)
	.loc	1 249 11 is_stmt 1      # GCD_cached.c:249:11
	paddq	%xmm0, %xmm5
	paddq	%xmm7, %xmm6
.Ltmp87:
	.loc	1 62 32                 # GCD_cached.c:62:32
	addq	$2, %rbx
	jne	.LBB2_15
	jmp	.LBB2_16
.Ltmp88:
	.p2align	4, 0x90
.LBB2_9:                                #   in Loop: Header=BB2_3 Depth=1
	#DEBUG_VALUE: gcd_cached:a <- %R10
	xorl	%eax, %eax
.Ltmp89:
	.p2align	4, 0x90
.LBB2_10:                               # %if.end36.us.us
                                        #   Parent Loop BB2_3 Depth=1
                                        # =>  This Inner Loop Header: Depth=2
	#DEBUG_VALUE: main:_22 <- %RAX
	#DEBUG_VALUE: gcd_cached:gcds_dealloc [bit_piece offset=0 size=1] <- 0
	#DEBUG_VALUE: gcd_cached:_4 <- 0
	#DEBUG_VALUE: gcd_cached:_5 <- 0
	#DEBUG_VALUE: gcd_cached:_6 <- 0
	#DEBUG_VALUE: gcd_cached:_7 <- 0
	#DEBUG_VALUE: gcd_cached:_8 <- 0
	#DEBUG_VALUE: gcd_cached:_9 <- 0
	#DEBUG_VALUE: gcd_cached:_10 <- 0
	#DEBUG_VALUE: gcd_cached:_11 <- 0
	.loc	1 241 14                # GCD_cached.c:241:14
	movq	%rax, (%r14,%rax,8)
	.loc	1 249 11                # GCD_cached.c:249:11
	addq	%rax, %rbx
	#DEBUG_VALUE: main:_29 <- 1
.Ltmp90:
	#DEBUG_VALUE: main:_28 <- %RBX
	#DEBUG_VALUE: main:sum <- %RBX
	.loc	1 255 9                 # GCD_cached.c:255:9
	incq	%rax
.Ltmp91:
	#DEBUG_VALUE: main:_30 <- %RAX
	#DEBUG_VALUE: main:j <- %RAX
	.loc	1 233 7                 # GCD_cached.c:233:7
	cmpq	%rax, %r13
	jne	.LBB2_10
.Ltmp92:
.LBB2_19:                               # %blklab16.loopexit.us
                                        #   in Loop: Header=BB2_3 Depth=1
	#DEBUG_VALUE: main:_31 <- 1
	.loc	1 266 8                 # GCD_cached.c:266:8
	incq	%r10
.Ltmp93:
	#DEBUG_VALUE: main:_32 <- %R10
	#DEBUG_VALUE: main:i <- %R10
	.loc	1 225 6                 # GCD_cached.c:225:6
	addq	%rsi, %r14
	cmpq	%r13, %r10
	jne	.LBB2_3
.Ltmp94:
.LBB2_20:                               # %if.then98
	#DEBUG_VALUE: main:_35_size <- 5
	.loc	1 278 2                 # GCD_cached.c:278:2
	xorl	%edi, %edi
	movl	$5, %esi
	callq	create1DArray
	movq	%rax, %r13
.Ltmp95:
	#DEBUG_VALUE: main:_35 <- %R13
	.loc	1 279 9                 # GCD_cached.c:279:9
	movaps	.LCPI2_6(%rip), %xmm0   # xmm0 = [83,117]
	movups	%xmm0, (%r13)
	.loc	1 279 36 is_stmt 0      # GCD_cached.c:279:36
	movaps	.LCPI2_7(%rip), %xmm0   # xmm0 = [109,58]
	movups	%xmm0, 16(%r13)
	.loc	1 279 63                # GCD_cached.c:279:63
	movq	$32, 32(%r13)
.Ltmp96:
	#DEBUG_VALUE: main:_35_dealloc <- 1
	.loc	1 282 2 is_stmt 1       # GCD_cached.c:282:2
	movl	$5, %esi
	movq	%r13, %rdi
	callq	printf_s
	.loc	1 286 2                 # GCD_cached.c:286:2
	movl	$.L.str.1, %edi
	xorl	%eax, %eax
	movq	%rbx, %rsi
	callq	printf
.Ltmp97:
	#DEBUG_VALUE: main:_40_size <- 32
	.loc	1 291 2                 # GCD_cached.c:291:2
	xorl	%edi, %edi
	movl	$32, %esi
	callq	create1DArray
	movq	%rax, %rbx
.Ltmp98:
	#DEBUG_VALUE: main:_40 <- %RBX
	.loc	1 292 9                 # GCD_cached.c:292:9
	movaps	.LCPI2_8(%rip), %xmm0   # xmm0 = [80,97]
	movups	%xmm0, (%rbx)
	.loc	1 292 35 is_stmt 0      # GCD_cached.c:292:35
	movaps	.LCPI2_9(%rip), %xmm0   # xmm0 = [115,115]
	movups	%xmm0, 16(%rbx)
	.loc	1 292 63                # GCD_cached.c:292:63
	movaps	.LCPI2_10(%rip), %xmm0  # xmm0 = [32,99]
	movups	%xmm0, 32(%rbx)
	.loc	1 292 89                # GCD_cached.c:292:89
	movaps	.LCPI2_11(%rip), %xmm0  # xmm0 = [97,99]
	movups	%xmm0, 48(%rbx)
	.loc	1 292 115               # GCD_cached.c:292:115
	movaps	.LCPI2_12(%rip), %xmm0  # xmm0 = [104,101]
	movups	%xmm0, 64(%rbx)
	.loc	1 292 144               # GCD_cached.c:292:144
	movaps	.LCPI2_13(%rip), %xmm0  # xmm0 = [100,32]
	movups	%xmm0, 80(%rbx)
	.loc	1 292 173               # GCD_cached.c:292:173
	movaps	.LCPI2_14(%rip), %xmm0  # xmm0 = [69,117]
	movups	%xmm0, 96(%rbx)
	.loc	1 292 202               # GCD_cached.c:292:202
	movaps	.LCPI2_15(%rip), %xmm0  # xmm0 = [99,108]
	movups	%xmm0, 112(%rbx)
	.loc	1 292 231               # GCD_cached.c:292:231
	movaps	.LCPI2_16(%rip), %xmm0  # xmm0 = [105,100]
	movups	%xmm0, 128(%rbx)
	.loc	1 292 261               # GCD_cached.c:292:261
	movaps	.LCPI2_17(%rip), %xmm0  # xmm0 = [32,71]
	movups	%xmm0, 144(%rbx)
	.loc	1 292 289               # GCD_cached.c:292:289
	movaps	.LCPI2_18(%rip), %xmm0  # xmm0 = [67,68]
	movups	%xmm0, 160(%rbx)
	.loc	1 292 317               # GCD_cached.c:292:317
	movaps	.LCPI2_19(%rip), %xmm0  # xmm0 = [32,116]
	movups	%xmm0, 176(%rbx)
	.loc	1 292 346               # GCD_cached.c:292:346
	movaps	.LCPI2_20(%rip), %xmm0  # xmm0 = [101,115]
	movups	%xmm0, 192(%rbx)
	.loc	1 292 376               # GCD_cached.c:292:376
	movaps	.LCPI2_21(%rip), %xmm0  # xmm0 = [116,32]
	movups	%xmm0, 208(%rbx)
	.loc	1 292 405               # GCD_cached.c:292:405
	movaps	.LCPI2_22(%rip), %xmm0  # xmm0 = [99,97]
	movups	%xmm0, 224(%rbx)
	.loc	1 292 433               # GCD_cached.c:292:433
	movaps	.LCPI2_23(%rip), %xmm0  # xmm0 = [115,101]
	movups	%xmm0, 240(%rbx)
.Ltmp99:
	#DEBUG_VALUE: main:_40_dealloc <- 1
	.loc	1 295 2 is_stmt 1       # GCD_cached.c:295:2
	movl	$32, %esi
	movq	%rbx, %rdi
	callq	println_s
.Ltmp100:
	.loc	1 299 2 discriminator 1 # GCD_cached.c:299:2
	movq	16(%rsp), %rdi          # 8-byte Reload
	callq	free
.Ltmp101:
	#DEBUG_VALUE: main:max_dealloc <- 0
	.loc	1 300 2 discriminator 1 # GCD_cached.c:300:2
	movq	%r12, %rdi
	callq	free
.Ltmp102:
	#DEBUG_VALUE: main:gcds_dealloc <- 0
	.loc	1 304 2 discriminator 1 # GCD_cached.c:304:2
	movq	8(%rsp), %rdi           # 8-byte Reload
	callq	free
.Ltmp103:
	#DEBUG_VALUE: main:_13_dealloc <- 0
	.loc	1 306 2 discriminator 1 # GCD_cached.c:306:2
	movq	%r13, %rdi
	callq	free
.Ltmp104:
	#DEBUG_VALUE: main:_35_dealloc <- 0
	.loc	1 307 2 discriminator 1 # GCD_cached.c:307:2
	movq	%rbx, %rdi
	callq	free
.Ltmp105:
	#DEBUG_VALUE: main:_40_dealloc <- 0
.LBB2_21:                               # %if.end120
	.loc	1 308 2                 # GCD_cached.c:308:2
	xorl	%edi, %edi
	callq	exit
.Ltmp106:
.Lfunc_end2:
	.size	main, .Lfunc_end2-main
	.cfi_endproc

	.type	.L.str,@object          # @.str
	.section	.rodata.str1.1,"aMS",@progbits,1
.L.str:
	.asciz	"fail"
	.size	.L.str, 5

	.type	.L.str.1,@object        # @.str.1
.L.str.1:
	.asciz	"%lld\n"
	.size	.L.str.1, 6

	.section	".note.GNU-stack","",@progbits