	.text
	.file	"llvm/CoinGame.polly.enablevc.ll"
	.globl	findMoves
	.p2align	4, 0x90
	.type	findMoves,@function
findMoves:                              # @findMoves
.Lfunc_begin0:
	.file	1 "CoinGame.c"
	.loc	1 2 0                   # CoinGame.c:2:0
	.cfi_startproc
# BB#0:                                 # %entry
	pushq	%rbp
.Ltmp0:
	.cfi_def_cfa_offset 16
	pushq	%r15
.Ltmp1:
	.cfi_def_cfa_offset 24
	pushq	%r14
.Ltmp2:
	.cfi_def_cfa_offset 32
	pushq	%r13
.Ltmp3:
	.cfi_def_cfa_offset 40
	pushq	%r12
.Ltmp4:
	.cfi_def_cfa_offset 48
	pushq	%rbx
.Ltmp5:
	.cfi_def_cfa_offset 56
.Ltmp6:
	.cfi_offset %rbx, -56
.Ltmp7:
	.cfi_offset %r12, -48
.Ltmp8:
	.cfi_offset %r13, -40
.Ltmp9:
	.cfi_offset %r14, -32
.Ltmp10:
	.cfi_offset %r15, -24
.Ltmp11:
	.cfi_offset %rbp, -16
	movabsq	$9223372036854775807, %r9 # imm = 0x7FFFFFFFFFFFFFFF
	cmpq	%r9, %rcx
	jne	.LBB0_16
# BB#1:                                 # %while.cond1.preheader.preheader
	xorl	%r10d, %r10d
	movq	%r9, %r8
	.p2align	4, 0x90
.LBB0_2:                                # %while.cond1.preheader
                                        # =>This Loop Header: Depth=1
                                        #     Child Loop BB0_3 Depth 2
	movq	%r10, %r14
	xorl	%edx, %edx
	.p2align	4, 0x90
.LBB0_3:                                # %if.end5
                                        #   Parent Loop BB0_2 Depth=1
                                        # =>  This Inner Loop Header: Depth=2
.Ltmp12:
	#DEBUG_VALUE: findMoves:_11 <- 0
	#DEBUG_VALUE: findMoves:y <- 0
	#DEBUG_VALUE: findMoves:_12 <- 1
	.loc	1 15 12 prologue_end    # CoinGame.c:15:12
	leaq	(%r10,%rdx), %rbx
.Ltmp13:
	.loc	1 84 10                 # CoinGame.c:84:10
	leaq	(%rdx,%r9), %rcx
.Ltmp14:
	.loc	1 92 10                 # CoinGame.c:92:10
	testq	%rbx, %rbx
.Ltmp15:
	#DEBUG_VALUE: findMoves:_16 <- 0
	#DEBUG_VALUE: findMoves:_14 <- 1
	jle	.LBB0_4
.Ltmp16:
# BB#5:                                 # %if.end5
                                        #   in Loop: Header=BB0_3 Depth=2
	cmpq	$-3, %rcx
	movl	$0, %eax
	je	.LBB0_7
# BB#6:                                 # %if.end11
                                        #   in Loop: Header=BB0_3 Depth=2
.Ltmp17:
	#DEBUG_VALUE: findMoves:_17 <- 1
	#DEBUG_VALUE: findMoves:_21 <- 1
	.loc	1 106 8                 # CoinGame.c:106:8
	leaq	(%r14,%r9), %rax
	movq	-8(%rdi,%rax,8), %rax
.Ltmp18:
	#DEBUG_VALUE: findMoves:_23 <- %RAX
	#DEBUG_VALUE: findMoves:y <- %RAX
	jmp	.LBB0_7
.Ltmp19:
	.p2align	4, 0x90
.LBB0_4:                                #   in Loop: Header=BB0_3 Depth=2
	xorl	%eax, %eax
.LBB0_7:                                # %blklab4
                                        #   in Loop: Header=BB0_3 Depth=2
.Ltmp20:
	#DEBUG_VALUE: findMoves:_24 <- 0
	#DEBUG_VALUE: findMoves:x <- 0
	#DEBUG_VALUE: findMoves:_25 <- 2
	.loc	1 120 10                # CoinGame.c:120:10
	cmpq	$-4, %rcx
	movl	$0, %ecx
	je	.LBB0_9
.Ltmp21:
# BB#8:                                 # %if.end18
                                        #   in Loop: Header=BB0_3 Depth=2
	#DEBUG_VALUE: findMoves:_27 <- 2
	.loc	1 130 8                 # CoinGame.c:130:8
	movq	-16(%rdi,%r14,8), %rcx
.Ltmp22:
	#DEBUG_VALUE: findMoves:_31 <- %RCX
	#DEBUG_VALUE: findMoves:x <- %RCX
.LBB0_9:                                # %blklab5
                                        #   in Loop: Header=BB0_3 Depth=2
	.loc	1 82 9                  # CoinGame.c:82:9
	leaq	1(%rdx), %r11
.Ltmp23:
	#DEBUG_VALUE: findMoves:_35 <- 0
	#DEBUG_VALUE: findMoves:_33 <- 1
	#DEBUG_VALUE: findMoves:z <- 0
	#DEBUG_VALUE: findMoves:_32 <- 0
	#DEBUG_VALUE: findMoves:_13 <- %R11
	#DEBUG_VALUE: findMoves:_18 <- %R11
	#DEBUG_VALUE: findMoves:_52 <- %R11
	#DEBUG_VALUE: findMoves:i <- %R11
	.loc	1 146 10                # CoinGame.c:146:10
	cmpq	$2, %rbx
	movl	$0, %esi
	jl	.LBB0_11
.Ltmp24:
# BB#10:                                # %if.end26
                                        #   in Loop: Header=BB0_3 Depth=2
	#DEBUG_VALUE: findMoves:i <- %R11
	#DEBUG_VALUE: findMoves:_52 <- %R11
	#DEBUG_VALUE: findMoves:_18 <- %R11
	#DEBUG_VALUE: findMoves:_13 <- %R11
	#DEBUG_VALUE: findMoves:_38 <- 2
	.loc	1 156 8                 # CoinGame.c:156:8
	movq	-16(%rdi,%r14,8), %rsi
.Ltmp25:
	#DEBUG_VALUE: findMoves:_40 <- %RSI
	#DEBUG_VALUE: findMoves:z <- %RSI
.LBB0_11:                               # %blklab6
                                        #   in Loop: Header=BB0_3 Depth=2
	#DEBUG_VALUE: findMoves:i <- %R11
	#DEBUG_VALUE: findMoves:_52 <- %R11
	#DEBUG_VALUE: findMoves:_18 <- %R11
	#DEBUG_VALUE: findMoves:_13 <- %R11
	#DEBUG_VALUE: findMoves:x <- %RAX
	.loc	1 178 10                # CoinGame.c:178:10
	notq	%rax
.Ltmp26:
	notq	%rcx
	cmpq	%rcx, %rax
	cmovgeq	%rax, %rcx
	negq	%rcx
	leaq	-1(%rdx,%rcx), %rcx
	notq	%rsi
	cmpq	%rsi, %rax
	cmovgeq	%rax, %rsi
	subq	%rsi, %rbx
	decq	%rbx
	cmpq	%rbx, %rcx
.Ltmp27:
	.loc	1 188 4                 # CoinGame.c:188:4
	cmovgeq	%rcx, %rbx
.Ltmp28:
	#DEBUG_VALUE: findMoves:_51 <- 1
	#DEBUG_VALUE: findMoves:_49 <- 1
	.loc	1 186 15                # CoinGame.c:186:15
	movq	%rbx, (%rdi,%r14,8)
	.loc	1 74 7                  # CoinGame.c:74:7
	leaq	1(%r14,%r9), %r14
	cmpq	%r11, %r8
	movq	%r11, %rdx
	jne	.LBB0_3
.Ltmp29:
# BB#12:                                # %blklab2
                                        #   in Loop: Header=BB0_2 Depth=1
	#DEBUG_VALUE: findMoves:_13 <- %R11
	#DEBUG_VALUE: findMoves:_18 <- %R11
	#DEBUG_VALUE: findMoves:_52 <- %R11
	#DEBUG_VALUE: findMoves:i <- %R11
	#DEBUG_VALUE: findMoves:_53 <- 1
	.loc	1 221 8                 # CoinGame.c:221:8
	incq	%r10
.Ltmp30:
	#DEBUG_VALUE: findMoves:s <- %R10
	#DEBUG_VALUE: findMoves:_54 <- %R10
	.loc	1 64 6                  # CoinGame.c:64:6
	decq	%r8
	cmpq	%r9, %r10
	jne	.LBB0_2
	jmp	.LBB0_13
.Ltmp31:
.LBB0_16:                               # %polly.loop_if
	.loc	1 64 7 is_stmt 0        # CoinGame.c:64:7
	testq	%rcx, %rcx
	jle	.LBB0_13
.Ltmp32:
# BB#17:                                # %polly.loop_preheader
	leaq	(,%rcx,8), %r8
	leaq	8(,%rcx,8), %r11
	movq	%rcx, %r10
	shlq	$4, %r10
	xorl	%r15d, %r15d
	movq	%rdi, %r9
	.p2align	4, 0x90
.LBB0_14:                               # %polly.loop_header
                                        # =>This Loop Header: Depth=1
                                        #     Child Loop BB0_19 Depth 2
	movq	%rcx, %r14
	subq	%r15, %r14
	jle	.LBB0_15
# BB#18:                                # %polly.loop_preheader158
                                        #   in Loop: Header=BB0_14 Depth=1
	decq	%r14
	movq	$-1, %rbp
	movq	%r9, %r13
	.p2align	4, 0x90
.LBB0_19:                               # %polly.loop_header157
                                        #   Parent Loop BB0_14 Depth=1
                                        # =>  This Inner Loop Header: Depth=2
	leaq	3(%rbp), %rax
	leaq	1(%r15,%rbp), %r12
	cmpq	%rcx, %rax
	jg	.LBB0_20
# BB#21:                                # %polly.loop_header157
                                        #   in Loop: Header=BB0_19 Depth=2
	testq	%r12, %r12
	movl	$0, %esi
	jle	.LBB0_22
# BB#25:                                # %polly.stmt.if.end11
                                        #   in Loop: Header=BB0_19 Depth=2
	movq	-8(%r8,%r13), %rsi
	jmp	.LBB0_22
	.p2align	4, 0x90
.LBB0_20:                               #   in Loop: Header=BB0_19 Depth=2
	xorl	%esi, %esi
.LBB0_22:                               # %polly.cond168
                                        #   in Loop: Header=BB0_19 Depth=2
	leaq	4(%rbp), %rax
	cmpq	%rcx, %rax
	movl	$0, %eax
	jg	.LBB0_23
# BB#26:                                # %polly.stmt.if.end18
                                        #   in Loop: Header=BB0_19 Depth=2
	movq	(%r10,%r13), %rax
.LBB0_23:                               # %polly.cond178
                                        #   in Loop: Header=BB0_19 Depth=2
	cmpq	$1, %r12
	movl	$0, %ebx
	jle	.LBB0_24
# BB#27:                                # %polly.stmt.if.end26
                                        #   in Loop: Header=BB0_19 Depth=2
	movq	-16(%r13), %rbx
.LBB0_24:                               # %polly.stmt.blklab6
                                        #   in Loop: Header=BB0_19 Depth=2
.Ltmp33:
	.loc	1 178 10 is_stmt 1      # CoinGame.c:178:10
	notq	%rsi
	notq	%rax
	cmpq	%rax, %rsi
	cmovgeq	%rsi, %rax
	movq	%rbp, %rdx
	subq	%rax, %rdx
	notq	%rbx
	cmpq	%rbx, %rsi
	cmovgeq	%rsi, %rbx
	leaq	(%r15,%rbp), %rax
	subq	%rbx, %rax
	cmpq	%rax, %rdx
.Ltmp34:
	.loc	1 188 4                 # CoinGame.c:188:4
	cmovgeq	%rdx, %rax
	movq	%rax, (%r13)
	addq	%r11, %r13
	incq	%rbp
	cmpq	%r14, %rbp
	jl	.LBB0_19
.Ltmp35:
.LBB0_15:                               # %polly.loop_exit159
                                        #   in Loop: Header=BB0_14 Depth=1
	incq	%r15
	addq	$8, %r9
	cmpq	%rcx, %r15
	jne	.LBB0_14
.LBB0_13:                               # %if.end54
	.loc	1 231 2                 # CoinGame.c:231:2
	movq	%rdi, %rax
	popq	%rbx
	popq	%r12
	popq	%r13
	popq	%r14
	popq	%r15
	popq	%rbp
	retq
.Ltmp36:
.Lfunc_end0:
	.size	findMoves, .Lfunc_end0-findMoves
	.cfi_endproc

	.section	.rodata.cst16,"aM",@progbits,16
	.p2align	4
.LCPI1_0:
	.quad	84                      # 0x54
	.quad	104                     # 0x68
.LCPI1_1:
	.quad	101                     # 0x65
	.quad	32                      # 0x20
.LCPI1_2:
	.quad	116                     # 0x74
	.quad	111                     # 0x6f
.LCPI1_3:
	.quad	116                     # 0x74
	.quad	97                      # 0x61
.LCPI1_4:
	.quad	108                     # 0x6c
	.quad	32                      # 0x20
.LCPI1_5:
	.quad	97                      # 0x61
	.quad	109                     # 0x6d
.LCPI1_6:
	.quad	111                     # 0x6f
	.quad	117                     # 0x75
.LCPI1_7:
	.quad	110                     # 0x6e
	.quad	116                     # 0x74
.LCPI1_8:
	.quad	32                      # 0x20
	.quad	111                     # 0x6f
.LCPI1_9:
	.quad	102                     # 0x66
	.quad	32                      # 0x20
.LCPI1_10:
	.quad	109                     # 0x6d
	.quad	111                     # 0x6f
.LCPI1_11:
	.quad	110                     # 0x6e
	.quad	101                     # 0x65
.LCPI1_12:
	.quad	121                     # 0x79
	.quad	32                      # 0x20
.LCPI1_13:
	.quad	40                      # 0x28
	.quad	109                     # 0x6d
.LCPI1_14:
	.quad	97                      # 0x61
	.quad	120                     # 0x78
.LCPI1_15:
	.quad	105                     # 0x69
	.quad	109                     # 0x6d
.LCPI1_16:
	.quad	117                     # 0x75
	.quad	109                     # 0x6d
.LCPI1_17:
	.quad	41                      # 0x29
	.quad	32                      # 0x20
.LCPI1_18:
	.quad	65                      # 0x41
	.quad	108                     # 0x6c
.LCPI1_19:
	.quad	105                     # 0x69
	.quad	99                      # 0x63
.LCPI1_20:
	.quad	103                     # 0x67
	.quad	101                     # 0x65
.LCPI1_21:
	.quad	116                     # 0x74
	.quad	115                     # 0x73
.LCPI1_22:
	.quad	32                      # 0x20
	.quad	105                     # 0x69
.LCPI1_23:
	.quad	115                     # 0x73
	.quad	32                      # 0x20
.LCPI1_24:
	.quad	80                      # 0x50
	.quad	97                      # 0x61
.LCPI1_25:
	.quad	115                     # 0x73
	.quad	115                     # 0x73
.LCPI1_26:
	.quad	32                      # 0x20
	.quad	67                      # 0x43
.LCPI1_27:
	.quad	111                     # 0x6f
	.quad	105                     # 0x69
.LCPI1_28:
	.quad	110                     # 0x6e
	.quad	71                      # 0x47
.LCPI1_29:
	.quad	116                     # 0x74
	.quad	101                     # 0x65
.LCPI1_30:
	.quad	115                     # 0x73
	.quad	116                     # 0x74
.LCPI1_31:
	.quad	32                      # 0x20
	.quad	99                      # 0x63
.LCPI1_32:
	.quad	97                      # 0x61
	.quad	115                     # 0x73
	.text
	.globl	main
	.p2align	4, 0x90
	.type	main,@function
main:                                   # @main
.Lfunc_begin1:
	.loc	1 235 0                 # CoinGame.c:235:0
	.cfi_startproc
# BB#0:                                 # %entry
	pushq	%rbp
.Ltmp37:
	.cfi_def_cfa_offset 16
	pushq	%r15
.Ltmp38:
	.cfi_def_cfa_offset 24
	pushq	%r14
.Ltmp39:
	.cfi_def_cfa_offset 32
	pushq	%r13
.Ltmp40:
	.cfi_def_cfa_offset 40
	pushq	%r12
.Ltmp41:
	.cfi_def_cfa_offset 48
	pushq	%rbx
.Ltmp42:
	.cfi_def_cfa_offset 56
	pushq	%rax
.Ltmp43:
	.cfi_def_cfa_offset 64
.Ltmp44:
	.cfi_offset %rbx, -56
.Ltmp45:
	.cfi_offset %r12, -48
.Ltmp46:
	.cfi_offset %r13, -40
.Ltmp47:
	.cfi_offset %r14, -32
.Ltmp48:
	.cfi_offset %r15, -24
.Ltmp49:
	.cfi_offset %rbp, -16
	#DEBUG_VALUE: main:argc <- %EDI
	#DEBUG_VALUE: main:args <- %RSI
	movl	%edi, %ebx
.Ltmp50:
	#DEBUG_VALUE: main:_23_has_ownership <- 0
	#DEBUG_VALUE: main:_23_size <- 0
	#DEBUG_VALUE: main:_18_has_ownership <- 0
	#DEBUG_VALUE: main:_18_size <- 0
	#DEBUG_VALUE: main:_15 <- 0
	#DEBUG_VALUE: main:_14 <- 0
	#DEBUG_VALUE: main:_13 <- 0
	#DEBUG_VALUE: main:_12_has_ownership <- 0
	#DEBUG_VALUE: main:_12_size <- 0
	#DEBUG_VALUE: main:_11_has_ownership <- 0
	#DEBUG_VALUE: main:_11_size <- 0
	#DEBUG_VALUE: main:_10 <- 0
	#DEBUG_VALUE: main:_9 <- 0
	#DEBUG_VALUE: main:_8_has_ownership <- 0
	#DEBUG_VALUE: main:_8_size <- 0
	#DEBUG_VALUE: main:_7 <- 0
	#DEBUG_VALUE: main:_6_has_ownership <- 0
	#DEBUG_VALUE: main:_6_size_size <- 0
	#DEBUG_VALUE: main:_6_size <- 0
	#DEBUG_VALUE: main:sum_alice <- 0
	#DEBUG_VALUE: main:moves_has_ownership <- 0
	#DEBUG_VALUE: main:moves_size <- 0
	#DEBUG_VALUE: main:n <- 0
	#DEBUG_VALUE: main:argc <- %EBX
	.loc	1 264 2 prologue_end    # CoinGame.c:264:2
	callq	convertArgsToIntArray
.Ltmp51:
	movq	%rax, %r15
.Ltmp52:
	#DEBUG_VALUE: main:_6 <- %R15
	decl	%ebx
.Ltmp53:
	movslq	%ebx, %r14
.Ltmp54:
	#DEBUG_VALUE: main:_6_has_ownership <- 1
	#DEBUG_VALUE: main:_6_size <- %EBX
	.loc	1 269 5                 # CoinGame.c:269:5
	movq	(%r15), %rdi
.Ltmp55:
	#DEBUG_VALUE: main:_8 <- %RDI
	.loc	1 271 2                 # CoinGame.c:271:2
	callq	parseStringToInt
.Ltmp56:
	#DEBUG_VALUE: main:max <- %RAX
	#DEBUG_VALUE: main:_5 <- %RAX
	.loc	1 275 9                 # CoinGame.c:275:9
	testq	%rax, %rax
	jne	.LBB1_1
.Ltmp57:
# BB#2:                                 # %if.end122.critedge
	#DEBUG_VALUE: main:_5 <- %RAX
	#DEBUG_VALUE: main:max <- %RAX
	#DEBUG_VALUE: main:_6_size <- %EBX
	#DEBUG_VALUE: main:_6 <- %R15
	.loc	1 336 2 discriminator 1 # CoinGame.c:336:2
	movq	%r15, %rdi
	movq	%r14, %rsi
	callq	free2DArray
.Ltmp58:
	#DEBUG_VALUE: main:_6_has_ownership <- 0
	.loc	1 342 2                 # CoinGame.c:342:2
	xorl	%edi, %edi
	callq	exit
.Ltmp59:
.LBB1_1:                                # %if.then103
	#DEBUG_VALUE: main:_5 <- %RAX
	#DEBUG_VALUE: main:max <- %RAX
	#DEBUG_VALUE: main:_6_size <- %EBX
	#DEBUG_VALUE: main:_6 <- %R15
	.loc	1 277 6                 # CoinGame.c:277:6
	movq	(%rax), %rbx
.Ltmp60:
	#DEBUG_VALUE: main:_9 <- 0
	#DEBUG_VALUE: main:n <- %RBX
	.loc	1 281 7                 # CoinGame.c:281:7
	movl	%ebx, %esi
	imull	%esi, %esi
	.loc	1 284 2                 # CoinGame.c:284:2
	xorl	%edi, %edi
	callq	gen1DArray
.Ltmp61:
	#DEBUG_VALUE: main:moves <- %RAX
	#DEBUG_VALUE: main:_11 <- %RAX
	#DEBUG_VALUE: main:_11_has_ownership <- 0
	#DEBUG_VALUE: main:moves_has_ownership <- 0
	.loc	1 295 8                 # CoinGame.c:295:8
	xorl	%edx, %edx
	movq	%rax, %rdi
	movq	%rbx, %rcx
	callq	findMoves
.Ltmp62:
	movq	%rax, %r12
.Ltmp63:
	#DEBUG_VALUE: main:_12 <- %R12
	#DEBUG_VALUE: main:moves <- %R12
	#DEBUG_VALUE: main:_13 <- 1
	#DEBUG_VALUE: main:_12_has_ownership <- 0
	#DEBUG_VALUE: main:moves_has_ownership <- 1
	.loc	1 307 6                 # CoinGame.c:307:6
	movq	-8(%r12,%rbx,8), %r13
.Ltmp64:
	#DEBUG_VALUE: main:_18_size <- 50
	#DEBUG_VALUE: main:_15 <- %R13
	#DEBUG_VALUE: main:sum_alice <- %R13
	.loc	1 314 2                 # CoinGame.c:314:2
	movl	$400, %edi              # imm = 0x190
	callq	malloc
	movq	%rax, %rbp
.Ltmp65:
	#DEBUG_VALUE: main:_18 <- %RBP
	.loc	1 315 9                 # CoinGame.c:315:9
	movaps	.LCPI1_0(%rip), %xmm0   # xmm0 = [84,104]
	movups	%xmm0, (%rbp)
	.loc	1 315 36 is_stmt 0      # CoinGame.c:315:36
	movaps	.LCPI1_1(%rip), %xmm0   # xmm0 = [101,32]
	movups	%xmm0, 16(%rbp)
	movaps	%xmm0, %xmm1
	.loc	1 315 63                # CoinGame.c:315:63
	movaps	.LCPI1_2(%rip), %xmm0   # xmm0 = [116,111]
	movups	%xmm0, 32(%rbp)
	.loc	1 315 91                # CoinGame.c:315:91
	movaps	.LCPI1_3(%rip), %xmm0   # xmm0 = [116,97]
	movups	%xmm0, 48(%rbp)
	.loc	1 315 118               # CoinGame.c:315:118
	movaps	.LCPI1_4(%rip), %xmm0   # xmm0 = [108,32]
	movups	%xmm0, 64(%rbp)
	.loc	1 315 146               # CoinGame.c:315:146
	movaps	.LCPI1_5(%rip), %xmm0   # xmm0 = [97,109]
	movups	%xmm0, 80(%rbp)
	.loc	1 315 175               # CoinGame.c:315:175
	movaps	.LCPI1_6(%rip), %xmm0   # xmm0 = [111,117]
	movups	%xmm0, 96(%rbp)
	.loc	1 315 205               # CoinGame.c:315:205
	movaps	.LCPI1_7(%rip), %xmm0   # xmm0 = [110,116]
	movups	%xmm0, 112(%rbp)
	.loc	1 315 235               # CoinGame.c:315:235
	movaps	.LCPI1_8(%rip), %xmm0   # xmm0 = [32,111]
	movups	%xmm0, 128(%rbp)
	.loc	1 315 264               # CoinGame.c:315:264
	movaps	.LCPI1_9(%rip), %xmm0   # xmm0 = [102,32]
	movups	%xmm0, 144(%rbp)
	.loc	1 315 293               # CoinGame.c:315:293
	movaps	.LCPI1_10(%rip), %xmm0  # xmm0 = [109,111]
	movups	%xmm0, 160(%rbp)
	.loc	1 315 323               # CoinGame.c:315:323
	movaps	.LCPI1_11(%rip), %xmm0  # xmm0 = [110,101]
	movups	%xmm0, 176(%rbp)
	.loc	1 315 353               # CoinGame.c:315:353
	movaps	.LCPI1_12(%rip), %xmm0  # xmm0 = [121,32]
	movups	%xmm0, 192(%rbp)
	.loc	1 315 382               # CoinGame.c:315:382
	movaps	.LCPI1_13(%rip), %xmm0  # xmm0 = [40,109]
	movups	%xmm0, 208(%rbp)
	.loc	1 315 411               # CoinGame.c:315:411
	movaps	.LCPI1_14(%rip), %xmm0  # xmm0 = [97,120]
	movups	%xmm0, 224(%rbp)
	.loc	1 315 440               # CoinGame.c:315:440
	movaps	.LCPI1_15(%rip), %xmm0  # xmm0 = [105,109]
	movups	%xmm0, 240(%rbp)
	.loc	1 315 470               # CoinGame.c:315:470
	movaps	.LCPI1_16(%rip), %xmm0  # xmm0 = [117,109]
	movups	%xmm0, 256(%rbp)
	.loc	1 315 500               # CoinGame.c:315:500
	movaps	.LCPI1_17(%rip), %xmm0  # xmm0 = [41,32]
	movups	%xmm0, 272(%rbp)
	.loc	1 315 528               # CoinGame.c:315:528
	movaps	.LCPI1_18(%rip), %xmm0  # xmm0 = [65,108]
	movups	%xmm0, 288(%rbp)
	.loc	1 315 557               # CoinGame.c:315:557
	movaps	.LCPI1_19(%rip), %xmm0  # xmm0 = [105,99]
	movups	%xmm0, 304(%rbp)
	.loc	1 315 586               # CoinGame.c:315:586
	movups	%xmm1, 320(%rbp)
	.loc	1 315 615               # CoinGame.c:315:615
	movaps	.LCPI1_20(%rip), %xmm0  # xmm0 = [103,101]
	movups	%xmm0, 336(%rbp)
	.loc	1 315 645               # CoinGame.c:315:645
	movaps	.LCPI1_21(%rip), %xmm0  # xmm0 = [116,115]
	movups	%xmm0, 352(%rbp)
	.loc	1 315 675               # CoinGame.c:315:675
	movaps	.LCPI1_22(%rip), %xmm0  # xmm0 = [32,105]
	movups	%xmm0, 368(%rbp)
	.loc	1 315 704               # CoinGame.c:315:704
	movaps	.LCPI1_23(%rip), %xmm0  # xmm0 = [115,32]
	movups	%xmm0, 384(%rbp)
.Ltmp66:
	#DEBUG_VALUE: main:_18_has_ownership <- 1
	.loc	1 318 2 is_stmt 1       # CoinGame.c:318:2
	movl	$50, %esi
	movq	%rbp, %rdi
	callq	printf_s
	.loc	1 322 2                 # CoinGame.c:322:2
	movl	$.L.str, %edi
	xorl	%eax, %eax
	movq	%r13, %rsi
	callq	printf
.Ltmp67:
	#DEBUG_VALUE: main:_23_size <- 23
	.loc	1 327 2                 # CoinGame.c:327:2
	movl	$184, %edi
	callq	malloc
	movq	%rax, %rbx
.Ltmp68:
	#DEBUG_VALUE: main:_23 <- %RBX
	.loc	1 328 9                 # CoinGame.c:328:9
	movaps	.LCPI1_24(%rip), %xmm0  # xmm0 = [80,97]
	movups	%xmm0, (%rbx)
	.loc	1 328 35 is_stmt 0      # CoinGame.c:328:35
	movaps	.LCPI1_25(%rip), %xmm0  # xmm0 = [115,115]
	movups	%xmm0, 16(%rbx)
	.loc	1 328 63                # CoinGame.c:328:63
	movaps	.LCPI1_26(%rip), %xmm0  # xmm0 = [32,67]
	movups	%xmm0, 32(%rbx)
	.loc	1 328 89                # CoinGame.c:328:89
	movaps	.LCPI1_27(%rip), %xmm0  # xmm0 = [111,105]
	movups	%xmm0, 48(%rbx)
	.loc	1 328 117               # CoinGame.c:328:117
	movaps	.LCPI1_28(%rip), %xmm0  # xmm0 = [110,71]
	movups	%xmm0, 64(%rbx)
	.loc	1 315 146 is_stmt 1     # CoinGame.c:315:146
	movaps	.LCPI1_5(%rip), %xmm0   # xmm0 = [97,109]
	.loc	1 328 145               # CoinGame.c:328:145
	movups	%xmm0, 80(%rbx)
	.loc	1 315 36                # CoinGame.c:315:36
	movaps	.LCPI1_1(%rip), %xmm0   # xmm0 = [101,32]
	.loc	1 328 174               # CoinGame.c:328:174
	movups	%xmm0, 96(%rbx)
	.loc	1 328 203 is_stmt 0     # CoinGame.c:328:203
	movaps	.LCPI1_29(%rip), %xmm0  # xmm0 = [116,101]
	movups	%xmm0, 112(%rbx)
	.loc	1 328 233               # CoinGame.c:328:233
	movaps	.LCPI1_30(%rip), %xmm0  # xmm0 = [115,116]
	movups	%xmm0, 128(%rbx)
	.loc	1 328 263               # CoinGame.c:328:263
	movaps	.LCPI1_31(%rip), %xmm0  # xmm0 = [32,99]
	movups	%xmm0, 144(%rbx)
	.loc	1 328 291               # CoinGame.c:328:291
	movaps	.LCPI1_32(%rip), %xmm0  # xmm0 = [97,115]
	movups	%xmm0, 160(%rbx)
	.loc	1 328 320               # CoinGame.c:328:320
	movq	$101, 176(%rbx)
.Ltmp69:
	#DEBUG_VALUE: main:_23_has_ownership <- 1
	.loc	1 331 2 is_stmt 1       # CoinGame.c:331:2
	movl	$23, %esi
	movq	%rbx, %rdi
	callq	println_s
.Ltmp70:
	.loc	1 335 2 discriminator 1 # CoinGame.c:335:2
	movq	%r12, %rdi
	callq	free
.Ltmp71:
	#DEBUG_VALUE: main:moves_has_ownership <- 0
	.loc	1 336 2 discriminator 1 # CoinGame.c:336:2
	movq	%r15, %rdi
	movq	%r14, %rsi
	callq	free2DArray
.Ltmp72:
	#DEBUG_VALUE: main:_6_has_ownership <- 0
	.loc	1 340 2 discriminator 1 # CoinGame.c:340:2
	movq	%rbp, %rdi
	callq	free
.Ltmp73:
	#DEBUG_VALUE: main:_18_has_ownership <- 0
	.loc	1 341 2 discriminator 1 # CoinGame.c:341:2
	movq	%rbx, %rdi
	callq	free
.Ltmp74:
	#DEBUG_VALUE: main:_23_has_ownership <- 0
	.loc	1 342 2                 # CoinGame.c:342:2
	xorl	%edi, %edi
	callq	exit
.Ltmp75:
.Lfunc_end1:
	.size	main, .Lfunc_end1-main
	.cfi_endproc

	.type	.L.str,@object          # @.str
	.section	.rodata.str1.1,"aMS",@progbits,1
.L.str:
	.asciz	"%lld\n"
	.size	.L.str, 6

	.section	".note.GNU-stack","",@progbits