	.text
	.file	"llvm/MatrixMult.polly.disablevc.ll"
	.globl	copy_Matrix
	.p2align	4, 0x90
	.type	copy_Matrix,@function
copy_Matrix:                            # @copy_Matrix
.Lfunc_begin0:
	.file	1 "MatrixMult.c"
	.loc	1 2 0                   # MatrixMult.c:2:0
	.cfi_startproc
# BB#0:                                 # %entry
	pushq	%r14
.Ltmp0:
	.cfi_def_cfa_offset 16
	pushq	%rbx
.Ltmp1:
	.cfi_def_cfa_offset 24
	pushq	%rax
.Ltmp2:
	.cfi_def_cfa_offset 32
.Ltmp3:
	.cfi_offset %rbx, -24
.Ltmp4:
	.cfi_offset %r14, -16
	#DEBUG_VALUE: copy_Matrix:_Matrix <- %RDI
	movq	%rdi, %r14
.Ltmp5:
	#DEBUG_VALUE: copy_Matrix:_Matrix <- %R14
	.loc	1 3 23 prologue_end discriminator 1 # MatrixMult.c:3:23
	movl	$32, %edi
	callq	malloc
	movq	%rax, %rbx
.Ltmp6:
	#DEBUG_VALUE: copy_Matrix:new_Matrix <- %RBX
	.loc	1 4 2                   # MatrixMult.c:4:2
	movq	8(%r14), %rsi
	movq	%rsi, 8(%rbx)
	movq	(%r14), %rdi
	callq	copy
	movq	%rax, (%rbx)
	.loc	1 5 31                  # MatrixMult.c:5:31
	movups	16(%r14), %xmm0
	.loc	1 5 20 is_stmt 0        # MatrixMult.c:5:20
	movups	%xmm0, 16(%rbx)
	.loc	1 7 2 is_stmt 1         # MatrixMult.c:7:2
	movq	%rbx, %rax
	addq	$8, %rsp
	popq	%rbx
.Ltmp7:
	popq	%r14
.Ltmp8:
	retq
.Ltmp9:
.Lfunc_end0:
	.size	copy_Matrix, .Lfunc_end0-copy_Matrix
	.cfi_endproc

	.globl	free_Matrix
	.p2align	4, 0x90
	.type	free_Matrix,@function
free_Matrix:                            # @free_Matrix
.Lfunc_begin1:
	.loc	1 9 0                   # MatrixMult.c:9:0
	.cfi_startproc
# BB#0:                                 # %entry
	pushq	%rbx
.Ltmp10:
	.cfi_def_cfa_offset 16
.Ltmp11:
	.cfi_offset %rbx, -16
	#DEBUG_VALUE: free_Matrix:matrix <- %RDI
	movq	%rdi, %rbx
.Ltmp12:
	#DEBUG_VALUE: free_Matrix:matrix <- %RBX
	.loc	1 10 15 prologue_end    # MatrixMult.c:10:15
	movq	(%rbx), %rdi
	.loc	1 10 2 is_stmt 0        # MatrixMult.c:10:2
	callq	free
	.loc	1 11 2 is_stmt 1        # MatrixMult.c:11:2
	movq	%rbx, %rdi
	popq	%rbx
.Ltmp13:
	jmp	free                    # TAILCALL
.Ltmp14:
.Lfunc_end1:
	.size	free_Matrix, .Lfunc_end1-free_Matrix
	.cfi_endproc

	.globl	printf_Matrix
	.p2align	4, 0x90
	.type	printf_Matrix,@function
printf_Matrix:                          # @printf_Matrix
.Lfunc_begin2:
	.loc	1 13 0                  # MatrixMult.c:13:0
	.cfi_startproc
# BB#0:                                 # %entry
	pushq	%rbx
.Ltmp15:
	.cfi_def_cfa_offset 16
.Ltmp16:
	.cfi_offset %rbx, -16
	#DEBUG_VALUE: printf_Matrix:matrix <- %RDI
	movq	%rdi, %rbx
.Ltmp17:
	#DEBUG_VALUE: printf_Matrix:matrix <- %RBX
	.loc	1 14 2 prologue_end     # MatrixMult.c:14:2
	movl	$123, %edi
	callq	putchar
	.loc	1 15 2                  # MatrixMult.c:15:2
	movl	$.L.str.1, %edi
	xorl	%eax, %eax
	callq	printf
	.loc	1 16 2                  # MatrixMult.c:16:2
	movq	(%rbx), %rdi
	movq	8(%rbx), %rsi
	callq	printf1DArray
	.loc	1 17 2                  # MatrixMult.c:17:2
	movl	$.L.str.2, %edi
	xorl	%eax, %eax
	callq	printf
	.loc	1 18 25                 # MatrixMult.c:18:25
	movq	16(%rbx), %rsi
	.loc	1 18 2 is_stmt 0        # MatrixMult.c:18:2
	movl	$.L.str.3, %edi
	xorl	%eax, %eax
	callq	printf
	.loc	1 19 2 is_stmt 1        # MatrixMult.c:19:2
	movl	$.L.str.4, %edi
	xorl	%eax, %eax
	callq	printf
	.loc	1 20 25                 # MatrixMult.c:20:25
	movq	24(%rbx), %rsi
	.loc	1 20 2 is_stmt 0        # MatrixMult.c:20:2
	movl	$.L.str.3, %edi
	xorl	%eax, %eax
	callq	printf
	.loc	1 21 2 is_stmt 1        # MatrixMult.c:21:2
	movl	$125, %edi
	popq	%rbx
.Ltmp18:
	jmp	putchar                 # TAILCALL
.Ltmp19:
.Lfunc_end2:
	.size	printf_Matrix, .Lfunc_end2-printf_Matrix
	.cfi_endproc

	.globl	matrix
	.p2align	4, 0x90
	.type	matrix,@function
matrix:                                 # @matrix
.Lfunc_begin3:
	.loc	1 23 0                  # MatrixMult.c:23:0
	.cfi_startproc
# BB#0:                                 # %entry
	pushq	%rbp
.Ltmp20:
	.cfi_def_cfa_offset 16
	pushq	%r15
.Ltmp21:
	.cfi_def_cfa_offset 24
	pushq	%r14
.Ltmp22:
	.cfi_def_cfa_offset 32
	pushq	%r13
.Ltmp23:
	.cfi_def_cfa_offset 40
	pushq	%r12
.Ltmp24:
	.cfi_def_cfa_offset 48
	pushq	%rbx
.Ltmp25:
	.cfi_def_cfa_offset 56
	pushq	%rax
.Ltmp26:
	.cfi_def_cfa_offset 64
.Ltmp27:
	.cfi_offset %rbx, -56
.Ltmp28:
	.cfi_offset %r12, -48
.Ltmp29:
	.cfi_offset %r13, -40
.Ltmp30:
	.cfi_offset %r14, -32
.Ltmp31:
	.cfi_offset %r15, -24
.Ltmp32:
	.cfi_offset %rbp, -16
	#DEBUG_VALUE: matrix:width <- %RDI
	#DEBUG_VALUE: matrix:height <- %RSI
	#DEBUG_VALUE: matrix:data <- %RDX
	#DEBUG_VALUE: matrix:data_size <- %RCX
	#DEBUG_VALUE: matrix:data_has_ownership [bit_piece offset=0 size=1] <- %R8D
	movl	%r8d, %r15d
.Ltmp33:
	#DEBUG_VALUE: matrix:data_has_ownership [bit_piece offset=0 size=1] <- %R15D
	movq	%rcx, %rbp
.Ltmp34:
	#DEBUG_VALUE: matrix:data_size <- %RBP
	movq	%rdx, %r14
.Ltmp35:
	#DEBUG_VALUE: matrix:data <- %R14
	movq	%rsi, %r12
.Ltmp36:
	#DEBUG_VALUE: matrix:height <- %R12
	movq	%rdi, %r13
.Ltmp37:
	#DEBUG_VALUE: matrix:_4_has_ownership <- 0
	#DEBUG_VALUE: matrix:r_has_ownership <- 0
	#DEBUG_VALUE: matrix:data_has_ownership [bit_piece offset=0 size=1] <- %R15B
	#DEBUG_VALUE: matrix:width <- %R13
	.loc	1 30 7 prologue_end     # MatrixMult.c:30:7
	movl	$32, %edi
	callq	malloc
	movq	%rax, %rbx
	.loc	1 31 2                  # MatrixMult.c:31:2
	movq	%rbp, 8(%rbx)
	movq	%r14, %rdi
	movq	%rbp, %rsi
	callq	copy
	movq	%rax, (%rbx)
	.loc	1 32 13                 # MatrixMult.c:32:13
	movq	%r12, 24(%rbx)
	.loc	1 33 12                 # MatrixMult.c:33:12
	movq	%r13, 16(%rbx)
.Ltmp38:
	#DEBUG_VALUE: matrix:_4_has_ownership <- 1
	.loc	1 36 2                  # MatrixMult.c:36:2
	testb	%r15b, %r15b
	je	.LBB3_2
.Ltmp39:
# BB#1:                                 # %if.then7
	#DEBUG_VALUE: matrix:width <- %R13
	#DEBUG_VALUE: matrix:data_has_ownership [bit_piece offset=0 size=1] <- %R15B
	#DEBUG_VALUE: matrix:height <- %R12
	#DEBUG_VALUE: matrix:data <- %R14
	#DEBUG_VALUE: matrix:data_size <- %RBP
	.loc	1 36 2 is_stmt 0 discriminator 1 # MatrixMult.c:36:2
	movq	%r14, %rdi
	callq	free
.Ltmp40:
	#DEBUG_VALUE: matrix:data_has_ownership <- 0
.LBB3_2:                                # %if.end11
	#DEBUG_VALUE: matrix:width <- %R13
	#DEBUG_VALUE: matrix:height <- %R12
	#DEBUG_VALUE: matrix:data <- %R14
	#DEBUG_VALUE: matrix:data_size <- %RBP
	.loc	1 38 2 is_stmt 1        # MatrixMult.c:38:2
	movq	%rbx, %rax
	addq	$8, %rsp
	popq	%rbx
	popq	%r12
.Ltmp41:
	popq	%r13
.Ltmp42:
	popq	%r14
.Ltmp43:
	popq	%r15
	popq	%rbp
.Ltmp44:
	retq
.Ltmp45:
.Lfunc_end3:
	.size	matrix, .Lfunc_end3-matrix
	.cfi_endproc

	.globl	init
	.p2align	4, 0x90
	.type	init,@function
init:                                   # @init
.Lfunc_begin4:
	.loc	1 42 0                  # MatrixMult.c:42:0
	.cfi_startproc
# BB#0:                                 # %entry
	pushq	%rbp
.Ltmp46:
	.cfi_def_cfa_offset 16
	pushq	%r15
.Ltmp47:
	.cfi_def_cfa_offset 24
	pushq	%r14
.Ltmp48:
	.cfi_def_cfa_offset 32
	pushq	%r13
.Ltmp49:
	.cfi_def_cfa_offset 40
	pushq	%r12
.Ltmp50:
	.cfi_def_cfa_offset 48
	pushq	%rbx
.Ltmp51:
	.cfi_def_cfa_offset 56
	subq	$56, %rsp
.Ltmp52:
	.cfi_def_cfa_offset 112
.Ltmp53:
	.cfi_offset %rbx, -56
.Ltmp54:
	.cfi_offset %r12, -48
.Ltmp55:
	.cfi_offset %r13, -40
.Ltmp56:
	.cfi_offset %r14, -32
.Ltmp57:
	.cfi_offset %r15, -24
.Ltmp58:
	.cfi_offset %rbp, -16
	#DEBUG_VALUE: init:width <- %RDI
	#DEBUG_VALUE: init:height <- %RSI
	movq	%rsi, %rbx
.Ltmp59:
	#DEBUG_VALUE: init:height <- %RBX
	movq	%rbx, 16(%rsp)          # 8-byte Spill
	movq	%rdi, %r13
.Ltmp60:
	#DEBUG_VALUE: init:_21_has_ownership <- 0
	#DEBUG_VALUE: init:_20 <- 0
	#DEBUG_VALUE: init:_19 <- 0
	#DEBUG_VALUE: init:_18 <- 0
	#DEBUG_VALUE: init:_17 <- 0
	#DEBUG_VALUE: init:_16 <- 0
	#DEBUG_VALUE: init:_15 <- 0
	#DEBUG_VALUE: init:_14 <- 0
	#DEBUG_VALUE: init:_13 <- 0
	#DEBUG_VALUE: init:_12 <- 0
	#DEBUG_VALUE: init:_11 <- 0
	#DEBUG_VALUE: init:_10 <- 0
	#DEBUG_VALUE: init:_9 <- 0
	#DEBUG_VALUE: init:_8_has_ownership <- 0
	#DEBUG_VALUE: init:_8_size <- 0
	#DEBUG_VALUE: init:_7 <- 0
	#DEBUG_VALUE: init:_6 <- 0
	#DEBUG_VALUE: init:j <- 0
	#DEBUG_VALUE: init:i <- 0
	#DEBUG_VALUE: init:data_has_ownership <- 0
	#DEBUG_VALUE: init:data_size <- 0
	#DEBUG_VALUE: init:r_has_ownership <- 0
	#DEBUG_VALUE: init:width <- %R13
	.loc	1 70 10 prologue_end    # MatrixMult.c:70:10
	imulq	%r13, %rsi
.Ltmp61:
	#DEBUG_VALUE: matrix:data_size <- %RSI
	#DEBUG_VALUE: init:_8_size <- %RSI
	#DEBUG_VALUE: init:_7 <- %RSI
	#DEBUG_VALUE: init:data_size <- %RSI
	.loc	1 73 2                  # MatrixMult.c:73:2
	movq	%rsi, (%rsp)            # 8-byte Spill
	xorl	%edi, %edi
.Ltmp62:
	#DEBUG_VALUE: matrix:data_size <- [%RSP+0]
	#DEBUG_VALUE: init:_8_size <- [%RSP+0]
	#DEBUG_VALUE: init:_7 <- [%RSP+0]
	#DEBUG_VALUE: init:data_size <- [%RSP+0]
	callq	gen1DArray
.Ltmp63:
	movq	%rax, 8(%rsp)           # 8-byte Spill
.Ltmp64:
	#DEBUG_VALUE: init:data <- [%RSP+8]
	#DEBUG_VALUE: init:_8 <- [%RSP+8]
	#DEBUG_VALUE: matrix:data <- [%RSP+8]
	#DEBUG_VALUE: init:data_has_ownership <- 1
	.loc	1 87 7                  # MatrixMult.c:87:7
	testq	%rbx, %rbx
.Ltmp65:
	#DEBUG_VALUE: init:height <- [%RSP+16]
	jle	.LBB4_13
.Ltmp66:
# BB#1:                                 # %polly.start
	#DEBUG_VALUE: init:height <- [%RSP+16]
	#DEBUG_VALUE: matrix:data <- [%RSP+8]
	#DEBUG_VALUE: init:_8 <- [%RSP+8]
	#DEBUG_VALUE: init:data <- [%RSP+8]
	#DEBUG_VALUE: init:width <- %R13
	movq	16(%rsp), %rax          # 8-byte Reload
	decq	%rax
	sarq	$5, %rax
	movq	%rax, 48(%rsp)          # 8-byte Spill
	js	.LBB4_13
.Ltmp67:
# BB#2:                                 # %polly.loop_header.preheader
	#DEBUG_VALUE: init:width <- %R13
	#DEBUG_VALUE: init:data <- [%RSP+8]
	#DEBUG_VALUE: init:_8 <- [%RSP+8]
	#DEBUG_VALUE: matrix:data <- [%RSP+8]
	#DEBUG_VALUE: init:height <- [%RSP+16]
	leaq	-1(%r13), %rcx
	sarq	$5, %rcx
	movq	%r13, %rax
	shlq	$8, %rax
	movq	%rax, 40(%rsp)          # 8-byte Spill
	leaq	(,%r13,8), %rsi
	xorl	%eax, %eax
	movq	%rax, 32(%rsp)          # 8-byte Spill
	movq	8(%rsp), %rax           # 8-byte Reload
	movq	%rax, 24(%rsp)          # 8-byte Spill
.Ltmp68:
	.p2align	4, 0x90
.LBB4_3:                                # %polly.loop_header
                                        # =>This Loop Header: Depth=1
                                        #     Child Loop BB4_6 Depth 2
                                        #       Child Loop BB4_8 Depth 3
                                        #         Child Loop BB4_9 Depth 4
	testq	%rcx, %rcx
	js	.LBB4_12
# BB#4:                                 # %polly.loop_header87.preheader
                                        #   in Loop: Header=BB4_3 Depth=1
	movq	32(%rsp), %rdi          # 8-byte Reload
	shlq	$5, %rdi
	movq	16(%rsp), %rax          # 8-byte Reload
	subq	%rdi, %rax
	decq	%rax
	cmpq	$31, %rax
	movl	$31, %edx
	cmovgq	%rdx, %rax
	testq	%rax, %rax
	js	.LBB4_12
# BB#5:                                 #   in Loop: Header=BB4_3 Depth=1
	decq	%rax
	movq	24(%rsp), %rdx          # 8-byte Reload
	xorl	%r11d, %r11d
	.p2align	4, 0x90
.LBB4_6:                                # %polly.loop_header87.us
                                        #   Parent Loop BB4_3 Depth=1
                                        # =>  This Loop Header: Depth=2
                                        #       Child Loop BB4_8 Depth 3
                                        #         Child Loop BB4_9 Depth 4
	movq	%r11, %rbp
	shlq	$5, %rbp
	movq	%r13, %rbx
	subq	%rbp, %rbx
	decq	%rbx
	cmpq	$31, %rbx
	movl	$31, %r12d
	cmovleq	%rbx, %r12
	testq	%r12, %r12
	js	.LBB4_11
# BB#7:                                 #   in Loop: Header=BB4_6 Depth=2
	decq	%r12
	movq	%rdx, %r10
	xorl	%r15d, %r15d
	.p2align	4, 0x90
.LBB4_8:                                # %polly.loop_header96.us.us
                                        #   Parent Loop BB4_3 Depth=1
                                        #     Parent Loop BB4_6 Depth=2
                                        # =>    This Loop Header: Depth=3
                                        #         Child Loop BB4_9 Depth 4
	leaq	(%r15,%rdi), %r14
	movq	$-1, %r9
	movq	%r10, %r8
	.p2align	4, 0x90
.LBB4_9:                                # %polly.loop_header105.us.us
                                        #   Parent Loop BB4_3 Depth=1
                                        #     Parent Loop BB4_6 Depth=2
                                        #       Parent Loop BB4_8 Depth=3
                                        # =>      This Inner Loop Header: Depth=4
	addq	%r14, (%r8)
	incq	%r9
	addq	$8, %r8
	cmpq	%r12, %r9
	jle	.LBB4_9
# BB#10:                                # %polly.loop_exit107.loopexit.us.us
                                        #   in Loop: Header=BB4_8 Depth=3
	addq	%rsi, %r10
	cmpq	%rax, %r15
	leaq	1(%r15), %r15
	jle	.LBB4_8
.LBB4_11:                               # %polly.loop_exit98.loopexit.us
                                        #   in Loop: Header=BB4_6 Depth=2
	addq	$256, %rdx              # imm = 0x100
	cmpq	%rcx, %r11
	leaq	1(%r11), %r11
	jne	.LBB4_6
.LBB4_12:                               # %polly.loop_exit89
                                        #   in Loop: Header=BB4_3 Depth=1
	movq	24(%rsp), %rax          # 8-byte Reload
	addq	40(%rsp), %rax          # 8-byte Folded Reload
	movq	%rax, 24(%rsp)          # 8-byte Spill
	movq	32(%rsp), %rax          # 8-byte Reload
	cmpq	48(%rsp), %rax          # 8-byte Folded Reload
	leaq	1(%rax), %rax
	movq	%rax, 32(%rsp)          # 8-byte Spill
	jne	.LBB4_3
.LBB4_13:                               # %if.end23
	#DEBUG_VALUE: init:data_has_ownership <- 1
.Ltmp69:
	#DEBUG_VALUE: matrix:data_has_ownership [bit_piece offset=0 size=1] <- 0
	#DEBUG_VALUE: matrix:r_has_ownership <- 0
	#DEBUG_VALUE: matrix:_4_has_ownership <- 0
	.loc	1 30 7                  # MatrixMult.c:30:7
	movl	$32, %edi
	callq	malloc
	movq	%rax, %rbx
.Ltmp70:
	#DEBUG_VALUE: matrix:_4 <- %RBX
	#DEBUG_VALUE: init:_21 <- %RBX
	movq	(%rsp), %rsi            # 8-byte Reload
	.loc	1 31 2                  # MatrixMult.c:31:2
	movq	%rsi, 8(%rbx)
	movq	8(%rsp), %rbp           # 8-byte Reload
	movq	%rbp, %rdi
	callq	copy
	movq	%rax, (%rbx)
	.loc	1 32 13                 # MatrixMult.c:32:13
	movq	16(%rsp), %rax          # 8-byte Reload
	movq	%rax, 24(%rbx)
	.loc	1 33 12                 # MatrixMult.c:33:12
	movq	%r13, 16(%rbx)
.Ltmp71:
	.loc	1 139 2 discriminator 1 # MatrixMult.c:139:2
	movq	%rbp, %rdi
	callq	free
.Ltmp72:
	.loc	1 141 2                 # MatrixMult.c:141:2
	movq	%rbx, %rax
	addq	$56, %rsp
.Ltmp73:
	#DEBUG_VALUE: matrix:width <- %R13
	#DEBUG_VALUE: matrix:_4_has_ownership <- 1
	#DEBUG_VALUE: init:_21_has_ownership <- 1
	#DEBUG_VALUE: init:data_has_ownership <- 0
	popq	%rbx
.Ltmp74:
	popq	%r12
	popq	%r13
.Ltmp75:
	popq	%r14
	popq	%r15
	popq	%rbp
	retq
.Ltmp76:
.Lfunc_end4:
	.size	init, .Lfunc_end4-init
	.cfi_endproc
	.file	2 "./MatrixMult.h"

	.globl	print_mat
	.p2align	4, 0x90
	.type	print_mat,@function
print_mat:                              # @print_mat
.Lfunc_begin5:
	.loc	1 145 0                 # MatrixMult.c:145:0
	.cfi_startproc
# BB#0:                                 # %entry
	pushq	%rbp
.Ltmp77:
	.cfi_def_cfa_offset 16
	pushq	%r15
.Ltmp78:
	.cfi_def_cfa_offset 24
	pushq	%r14
.Ltmp79:
	.cfi_def_cfa_offset 32
	pushq	%r13
.Ltmp80:
	.cfi_def_cfa_offset 40
	pushq	%r12
.Ltmp81:
	.cfi_def_cfa_offset 48
	pushq	%rbx
.Ltmp82:
	.cfi_def_cfa_offset 56
	subq	$56, %rsp
.Ltmp83:
	.cfi_def_cfa_offset 112
.Ltmp84:
	.cfi_offset %rbx, -56
.Ltmp85:
	.cfi_offset %r12, -48
.Ltmp86:
	.cfi_offset %r13, -40
.Ltmp87:
	.cfi_offset %r14, -32
.Ltmp88:
	.cfi_offset %r15, -24
.Ltmp89:
	.cfi_offset %rbp, -16
	#DEBUG_VALUE: print_mat:sys <- %RDI
	#DEBUG_VALUE: print_mat:a <- %RSI
	#DEBUG_VALUE: print_mat:a_has_ownership [bit_piece offset=0 size=1] <- %EDX
	movq	%rsi, %r15
.Ltmp90:
	#DEBUG_VALUE: print_mat:_25_has_ownership <- 0
	#DEBUG_VALUE: print_mat:_25_size <- 0
	#DEBUG_VALUE: print_mat:_22 <- 0
	#DEBUG_VALUE: print_mat:_21 <- 0
	#DEBUG_VALUE: print_mat:_20 <- 0
	#DEBUG_VALUE: print_mat:_19 <- 0
	#DEBUG_VALUE: print_mat:_18_has_ownership <- 0
	#DEBUG_VALUE: print_mat:_18_size <- 0
	#DEBUG_VALUE: print_mat:_15 <- 0
	#DEBUG_VALUE: print_mat:_14 <- 0
	#DEBUG_VALUE: print_mat:_13 <- 0
	#DEBUG_VALUE: print_mat:_12_has_ownership <- 0
	#DEBUG_VALUE: print_mat:_12_size <- 0
	#DEBUG_VALUE: print_mat:_9 <- 0
	#DEBUG_VALUE: print_mat:_8 <- 0
	#DEBUG_VALUE: print_mat:_7 <- 0
	#DEBUG_VALUE: print_mat:_6 <- 0
	#DEBUG_VALUE: print_mat:j <- 0
	#DEBUG_VALUE: print_mat:height <- 0
	#DEBUG_VALUE: print_mat:width <- 0
	#DEBUG_VALUE: print_mat:i <- 0
	#DEBUG_VALUE: print_mat:a <- %R15
	.loc	1 179 10 prologue_end   # MatrixMult.c:179:10
	movq	24(%r15), %rbp
.Ltmp91:
	#DEBUG_VALUE: print_mat:_8 <- %RBP
	#DEBUG_VALUE: print_mat:height <- %RBP
	.loc	1 185 6                 # MatrixMult.c:185:6
	movq	%rbp, 16(%rsp)          # 8-byte Spill
	testq	%rbp, %rbp
	jle	.LBB5_16
.Ltmp92:
# BB#1:                                 # %while.cond3.preheader.preheader
	#DEBUG_VALUE: print_mat:height <- %RBP
	#DEBUG_VALUE: print_mat:_8 <- %RBP
	#DEBUG_VALUE: print_mat:a <- %R15
	#DEBUG_VALUE: print_mat:a_has_ownership [bit_piece offset=0 size=1] <- %EDX
	#DEBUG_VALUE: print_mat:sys <- %RDI
	.loc	1 175 10                # MatrixMult.c:175:10
	movq	16(%r15), %r13
.Ltmp93:
	#DEBUG_VALUE: print_mat:_7 <- %R13
	#DEBUG_VALUE: print_mat:width <- %R13
	movq	%r13, 8(%rsp)           # 8-byte Spill
	xorl	%ebx, %ebx
.Ltmp94:
	.loc	1 193 7                 # MatrixMult.c:193:7
	testq	%r13, %r13
	jle	.LBB5_2
.Ltmp95:
# BB#6:                                 # %while.cond3.preheader.us.preheader
	#DEBUG_VALUE: print_mat:sys <- %RDI
	#DEBUG_VALUE: print_mat:a_has_ownership [bit_piece offset=0 size=1] <- %EDX
	#DEBUG_VALUE: print_mat:a <- %R15
	#DEBUG_VALUE: print_mat:_8 <- %RBP
	#DEBUG_VALUE: print_mat:height <- %RBP
	#DEBUG_VALUE: print_mat:width <- %R13
	#DEBUG_VALUE: print_mat:_7 <- %R13
	.loc	1 201 9                 # MatrixMult.c:201:9
	leaq	(,%r13,8), %rcx
.Ltmp96:
	#DEBUG_VALUE: print_mat:_25 <- %RAX
	movq	%rcx, (%rsp)            # 8-byte Spill
	movl	$0, %ecx
	xorl	%edx, %edx
.Ltmp97:
	xorl	%ebp, %ebp
.Ltmp98:
	xorl	%r14d, %r14d
	xorl	%ebx, %ebx
	xorl	%r12d, %r12d
.Ltmp99:
	.p2align	4, 0x90
.LBB5_7:                                # %while.cond3.preheader.us
                                        # =>This Loop Header: Depth=1
                                        #     Child Loop BB5_8 Depth 2
	movq	%rdx, 32(%rsp)          # 8-byte Spill
	movq	%rbp, 24(%rsp)          # 8-byte Spill
	movq	%r14, 40(%rsp)          # 8-byte Spill
	movq	%rcx, 48(%rsp)          # 8-byte Spill
	movq	%rcx, %rbp
	movb	%dl, %r14b
	.p2align	4, 0x90
.LBB5_8:                                # %if.end7.us
                                        #   Parent Loop BB5_7 Depth=1
                                        # =>  This Inner Loop Header: Depth=2
.Ltmp100:
	.loc	1 197 4                 # MatrixMult.c:197:4
	andb	$1, %r14b
	je	.LBB5_10
# BB#9:                                 # %if.then8.us
                                        #   in Loop: Header=BB5_8 Depth=2
.Ltmp101:
	.loc	1 197 4 is_stmt 0 discriminator 1 # MatrixMult.c:197:4
	movq	%r12, %rdi
	callq	free
.Ltmp102:
	#DEBUG_VALUE: print_mat:_12_has_ownership <- 0
.LBB5_10:                               # %if.end9.us
                                        #   in Loop: Header=BB5_8 Depth=2
	.loc	1 198 4 is_stmt 1       # MatrixMult.c:198:4
	movq	(%r15), %rdi
	movq	8(%r15), %rsi
	callq	copy
	movq	%rax, %r12
.Ltmp103:
	#DEBUG_VALUE: print_mat:_12 <- %R12
	#DEBUG_VALUE: print_mat:_12_has_ownership <- 1
	.loc	1 205 8                 # MatrixMult.c:205:8
	movq	(%r12,%rbp), %rsi
.Ltmp104:
	#DEBUG_VALUE: print_mat:_15 <- %RSI
	.loc	1 207 4                 # MatrixMult.c:207:4
	movl	$.L.str.3, %edi
	xorl	%eax, %eax
	callq	printf
.Ltmp105:
	testb	%r14b, %r14b
	je	.LBB5_12
.Ltmp106:
# BB#11:                                # %if.then13.us
                                        #   in Loop: Header=BB5_8 Depth=2
	#DEBUG_VALUE: print_mat:_12 <- %R12
	.loc	1 211 4 discriminator 1 # MatrixMult.c:211:4
	movq	%rbx, %rdi
	callq	free
.Ltmp107:
	#DEBUG_VALUE: print_mat:_18_has_ownership <- 0
.LBB5_12:                               # %if.end14.us
                                        #   in Loop: Header=BB5_8 Depth=2
	#DEBUG_VALUE: print_mat:_12 <- %R12
	#DEBUG_VALUE: print_mat:_18_size <- 1
	.loc	1 212 4                 # MatrixMult.c:212:4
	movl	$8, %edi
	callq	malloc
	movq	%rax, %rbx
.Ltmp108:
	#DEBUG_VALUE: print_mat:_18 <- %RBX
	.loc	1 213 11                # MatrixMult.c:213:11
	movq	$32, (%rbx)
.Ltmp109:
	#DEBUG_VALUE: print_mat:_18_has_ownership <- 1
	.loc	1 216 4                 # MatrixMult.c:216:4
	movl	$1, %esi
	movq	%rbx, %rdi
	callq	printf_s
.Ltmp110:
	#DEBUG_VALUE: print_mat:_19 <- 1
	.loc	1 193 7                 # MatrixMult.c:193:7
	addq	$8, %rbp
	decq	%r13
	movb	$1, %r14b
	jne	.LBB5_8
.Ltmp111:
# BB#13:                                # %blklab8.loopexit.us
                                        #   in Loop: Header=BB5_7 Depth=1
	#DEBUG_VALUE: print_mat:_12 <- %R12
	#DEBUG_VALUE: print_mat:_18 <- %RBX
	#DEBUG_VALUE: print_mat:_21 <- 1
	movq	40(%rsp), %r14          # 8-byte Reload
	.loc	1 231 8                 # MatrixMult.c:231:8
	incq	%r14
.Ltmp112:
	#DEBUG_VALUE: print_mat:_22 <- %R14
	#DEBUG_VALUE: print_mat:i <- %R14
	.loc	1 237 3                 # MatrixMult.c:237:3
	movq	32(%rsp), %rax          # 8-byte Reload
	testb	$1, %al
	je	.LBB5_15
.Ltmp113:
# BB#14:                                # %if.then20.us
                                        #   in Loop: Header=BB5_7 Depth=1
	#DEBUG_VALUE: print_mat:_18 <- %RBX
	#DEBUG_VALUE: print_mat:_12 <- %R12
	#DEBUG_VALUE: print_mat:i <- %R14
	#DEBUG_VALUE: print_mat:_22 <- %R14
	.loc	1 237 3 is_stmt 0 discriminator 1 # MatrixMult.c:237:3
	movq	24(%rsp), %rdi          # 8-byte Reload
	callq	free
.Ltmp114:
	#DEBUG_VALUE: print_mat:_25_has_ownership <- 0
.LBB5_15:                               # %if.end21.us
                                        #   in Loop: Header=BB5_7 Depth=1
	#DEBUG_VALUE: print_mat:_18 <- %RBX
	#DEBUG_VALUE: print_mat:_12 <- %R12
	#DEBUG_VALUE: print_mat:i <- %R14
	#DEBUG_VALUE: print_mat:_22 <- %R14
	#DEBUG_VALUE: print_mat:_25_size <- 0
	.loc	1 238 3 is_stmt 1       # MatrixMult.c:238:3
	xorl	%edi, %edi
	callq	malloc
	movq	%rax, %rbp
.Ltmp115:
	#DEBUG_VALUE: print_mat:_25 <- %RBP
	#DEBUG_VALUE: print_mat:_25_has_ownership <- 1
	.loc	1 241 3                 # MatrixMult.c:241:3
	xorl	%esi, %esi
	movq	%rbp, %rdi
	callq	println_s
	movq	48(%rsp), %rcx          # 8-byte Reload
	.loc	1 185 6                 # MatrixMult.c:185:6
	addq	(%rsp), %rcx            # 8-byte Folded Reload
	movb	$1, %dl
	movq	16(%rsp), %rax          # 8-byte Reload
	cmpq	%rax, %r14
	movq	8(%rsp), %r13           # 8-byte Reload
	jne	.LBB5_7
	jmp	.LBB5_16
.Ltmp116:
.LBB5_2:
	#DEBUG_VALUE: print_mat:sys <- %RDI
	#DEBUG_VALUE: print_mat:a_has_ownership [bit_piece offset=0 size=1] <- %EDX
	#DEBUG_VALUE: print_mat:a <- %R15
	#DEBUG_VALUE: print_mat:_8 <- %RBP
	#DEBUG_VALUE: print_mat:height <- %RBP
	#DEBUG_VALUE: print_mat:width <- %R13
	#DEBUG_VALUE: print_mat:_7 <- %R13
	xorl	%eax, %eax
.Ltmp117:
	.p2align	4, 0x90
.LBB5_3:                                # %while.cond3.preheader
                                        # =>This Inner Loop Header: Depth=1
	.loc	1 237 3                 # MatrixMult.c:237:3
	testb	$1, %al
	#DEBUG_VALUE: print_mat:_21 <- 1
	je	.LBB5_5
# BB#4:                                 # %if.then20
                                        #   in Loop: Header=BB5_3 Depth=1
.Ltmp118:
	.loc	1 237 3 is_stmt 0 discriminator 1 # MatrixMult.c:237:3
	movq	%rbx, %rdi
	callq	free
.Ltmp119:
	#DEBUG_VALUE: print_mat:_25_has_ownership <- 0
.LBB5_5:                                # %if.end21
                                        #   in Loop: Header=BB5_3 Depth=1
	#DEBUG_VALUE: print_mat:_25_size <- 0
	.loc	1 238 3 is_stmt 1       # MatrixMult.c:238:3
	xorl	%edi, %edi
	callq	malloc
	movq	%rax, %rbx
.Ltmp120:
	#DEBUG_VALUE: print_mat:_25 <- %RBX
	#DEBUG_VALUE: print_mat:_25_has_ownership <- 1
	.loc	1 241 3                 # MatrixMult.c:241:3
	xorl	%esi, %esi
	movq	%rbx, %rdi
	callq	println_s
	.loc	1 185 6                 # MatrixMult.c:185:6
	decq	%rbp
	movb	$1, %al
	jne	.LBB5_3
.Ltmp121:
.LBB5_16:                               # %blklab6
	.loc	1 248 1                 # MatrixMult.c:248:1
	addq	$56, %rsp
	popq	%rbx
	popq	%r12
	popq	%r13
	popq	%r14
	popq	%r15
	popq	%rbp
	retq
.Ltmp122:
.Lfunc_end5:
	.size	print_mat, .Lfunc_end5-print_mat
	.cfi_endproc

	.globl	mat_mult
	.p2align	4, 0x90
	.type	mat_mult,@function
mat_mult:                               # @mat_mult
.Lfunc_begin6:
	.loc	1 250 0                 # MatrixMult.c:250:0
	.cfi_startproc
# BB#0:                                 # %entry
	pushq	%rbp
.Ltmp123:
	.cfi_def_cfa_offset 16
	pushq	%r15
.Ltmp124:
	.cfi_def_cfa_offset 24
	pushq	%r14
.Ltmp125:
	.cfi_def_cfa_offset 32
	pushq	%r13
.Ltmp126:
	.cfi_def_cfa_offset 40
	pushq	%r12
.Ltmp127:
	.cfi_def_cfa_offset 48
	pushq	%rbx
.Ltmp128:
	.cfi_def_cfa_offset 56
	subq	$216, %rsp
.Ltmp129:
	.cfi_def_cfa_offset 272
.Ltmp130:
	.cfi_offset %rbx, -56
.Ltmp131:
	.cfi_offset %r12, -48
.Ltmp132:
	.cfi_offset %r13, -40
.Ltmp133:
	.cfi_offset %r14, -32
.Ltmp134:
	.cfi_offset %r15, -24
.Ltmp135:
	.cfi_offset %rbp, -16
	#DEBUG_VALUE: mat_mult:a <- %RDI
	#DEBUG_VALUE: mat_mult:a_has_ownership [bit_piece offset=0 size=1] <- %ESI
	#DEBUG_VALUE: mat_mult:b <- %RDX
	#DEBUG_VALUE: mat_mult:b_has_ownership [bit_piece offset=0 size=1] <- %ECX
	movl	%ecx, 68(%rsp)          # 4-byte Spill
.Ltmp136:
	#DEBUG_VALUE: mat_mult:b_has_ownership [bit_piece offset=0 size=1] <-  [complex expression]
	movq	%rdx, %r14
.Ltmp137:
	#DEBUG_VALUE: mat_mult:b <- %R14
	movq	%r14, 112(%rsp)         # 8-byte Spill
	movl	%esi, 64(%rsp)          # 4-byte Spill
.Ltmp138:
	#DEBUG_VALUE: mat_mult:a_has_ownership [bit_piece offset=0 size=1] <-  [complex expression]
	movq	%rdi, %rbp
.Ltmp139:
	#DEBUG_VALUE: mat_mult:_58_has_ownership <- 0
	#DEBUG_VALUE: mat_mult:_57 <- 0
	#DEBUG_VALUE: mat_mult:_56 <- 0
	#DEBUG_VALUE: mat_mult:_55 <- 0
	#DEBUG_VALUE: mat_mult:_54 <- 0
	#DEBUG_VALUE: mat_mult:_53 <- 0
	#DEBUG_VALUE: mat_mult:_52 <- 0
	#DEBUG_VALUE: mat_mult:_51 <- 0
	#DEBUG_VALUE: mat_mult:_50 <- 0
	#DEBUG_VALUE: mat_mult:_49 <- 0
	#DEBUG_VALUE: mat_mult:_48 <- 0
	#DEBUG_VALUE: mat_mult:_47 <- 0
	#DEBUG_VALUE: mat_mult:_46 <- 0
	#DEBUG_VALUE: mat_mult:_45 <- 0
	#DEBUG_VALUE: mat_mult:_44 <- 0
	#DEBUG_VALUE: mat_mult:_43 <- 0
	#DEBUG_VALUE: mat_mult:_42 <- 0
	#DEBUG_VALUE: mat_mult:_41 <- 0
	#DEBUG_VALUE: mat_mult:_40 <- 0
	#DEBUG_VALUE: mat_mult:_39 <- 0
	#DEBUG_VALUE: mat_mult:_38 <- 0
	#DEBUG_VALUE: mat_mult:_37 <- 0
	#DEBUG_VALUE: mat_mult:_36 <- 0
	#DEBUG_VALUE: mat_mult:_35 <- 0
	#DEBUG_VALUE: mat_mult:_34 <- 0
	#DEBUG_VALUE: mat_mult:_33 <- 0
	#DEBUG_VALUE: mat_mult:_32 <- 0
	#DEBUG_VALUE: mat_mult:_31 <- 0
	#DEBUG_VALUE: mat_mult:_30 <- 0
	#DEBUG_VALUE: mat_mult:_29 <- 0
	#DEBUG_VALUE: mat_mult:_28 <- 0
	#DEBUG_VALUE: mat_mult:_27 <- 0
	#DEBUG_VALUE: mat_mult:_26 <- 0
	#DEBUG_VALUE: mat_mult:_25 <- 0
	#DEBUG_VALUE: mat_mult:_24 <- 0
	#DEBUG_VALUE: mat_mult:_23 <- 0
	#DEBUG_VALUE: mat_mult:_22 <- 0
	#DEBUG_VALUE: mat_mult:_21_has_ownership <- 0
	#DEBUG_VALUE: mat_mult:_21_size <- 0
	#DEBUG_VALUE: mat_mult:_20 <- 0
	#DEBUG_VALUE: mat_mult:_19 <- 0
	#DEBUG_VALUE: mat_mult:_18_has_ownership <- 0
	#DEBUG_VALUE: mat_mult:_18_size <- 0
	#DEBUG_VALUE: mat_mult:_17_has_ownership <- 0
	#DEBUG_VALUE: mat_mult:_17_size <- 0
	#DEBUG_VALUE: mat_mult:_16_has_ownership <- 0
	#DEBUG_VALUE: mat_mult:_16_size <- 0
	#DEBUG_VALUE: mat_mult:_15 <- 0
	#DEBUG_VALUE: mat_mult:_14 <- 0
	#DEBUG_VALUE: mat_mult:_13 <- 0
	#DEBUG_VALUE: mat_mult:_12 <- 0
	#DEBUG_VALUE: mat_mult:k <- 0
	#DEBUG_VALUE: mat_mult:j <- 0
	#DEBUG_VALUE: mat_mult:i <- 0
	#DEBUG_VALUE: mat_mult:b_t_has_ownership <- 0
	#DEBUG_VALUE: mat_mult:b_t_size <- 0
	#DEBUG_VALUE: mat_mult:b_data_has_ownership <- 0
	#DEBUG_VALUE: mat_mult:b_data_size <- 0
	#DEBUG_VALUE: mat_mult:a_data_has_ownership <- 0
	#DEBUG_VALUE: mat_mult:a_data_size <- 0
	#DEBUG_VALUE: mat_mult:data_has_ownership <- 0
	#DEBUG_VALUE: mat_mult:data_size <- 0
	#DEBUG_VALUE: mat_mult:height <- 0
	#DEBUG_VALUE: mat_mult:width <- 0
	#DEBUG_VALUE: mat_mult:c_has_ownership <- 0
	#DEBUG_VALUE: mat_mult:a <- %RBP
	.loc	1 319 11 prologue_end   # MatrixMult.c:319:11
	movq	%rbp, 104(%rsp)         # 8-byte Spill
	movq	16(%r14), %rax
.Ltmp140:
	#DEBUG_VALUE: matrix:width <- %RAX
	#DEBUG_VALUE: mat_mult:_12 <- %RAX
	#DEBUG_VALUE: mat_mult:width <- %RAX
	.loc	1 323 11                # MatrixMult.c:323:11
	movq	%rax, 8(%rsp)           # 8-byte Spill
	movq	24(%rbp), %r15
.Ltmp141:
	#DEBUG_VALUE: matrix:height <- %R15
	#DEBUG_VALUE: mat_mult:_13 <- %R15
	#DEBUG_VALUE: mat_mult:height <- %R15
	.loc	1 329 11                # MatrixMult.c:329:11
	movq	%r15, 16(%rsp)          # 8-byte Spill
	movq	%r15, %r12
	imulq	%rax, %r12
.Ltmp142:
	#DEBUG_VALUE: matrix:data_size <- %R12
	#DEBUG_VALUE: mat_mult:_21_size <- %R12
	#DEBUG_VALUE: mat_mult:_20 <- %R12
	#DEBUG_VALUE: mat_mult:_16_size <- %R12
	#DEBUG_VALUE: mat_mult:_15 <- %R12
	#DEBUG_VALUE: mat_mult:b_t_size <- %R12
	#DEBUG_VALUE: mat_mult:data_size <- %R12
	.loc	1 332 2                 # MatrixMult.c:332:2
	movq	%r12, 24(%rsp)          # 8-byte Spill
.Ltmp143:
	#DEBUG_VALUE: matrix:width <- [%RSP+8]
	#DEBUG_VALUE: mat_mult:_12 <- [%RSP+8]
	#DEBUG_VALUE: mat_mult:width <- [%RSP+8]
	xorl	%edi, %edi
	movl	%r12d, %esi
	callq	gen1DArray
.Ltmp144:
	movq	%rax, %rbx
.Ltmp145:
	#DEBUG_VALUE: mat_mult:data <- %RBX
	#DEBUG_VALUE: mat_mult:_16 <- %RBX
	#DEBUG_VALUE: matrix:data <- %RBX
	#DEBUG_VALUE: mat_mult:data_has_ownership <- 1
	.loc	1 341 2                 # MatrixMult.c:341:2
	movq	(%rbp), %rdi
	movq	8(%rbp), %rsi
.Ltmp146:
	#DEBUG_VALUE: mat_mult:a <- [%RSP+104]
	callq	copy
.Ltmp147:
	movq	%rax, 80(%rsp)          # 8-byte Spill
.Ltmp148:
	#DEBUG_VALUE: mat_mult:a_data <- [%RSP+80]
	#DEBUG_VALUE: mat_mult:_17 <- [%RSP+80]
	#DEBUG_VALUE: mat_mult:a_data_has_ownership <- 1
	.loc	1 350 2                 # MatrixMult.c:350:2
	movq	(%r14), %rdi
	movq	8(%r14), %rsi
.Ltmp149:
	#DEBUG_VALUE: mat_mult:b <- [%RSP+112]
	callq	copy
.Ltmp150:
	movq	%rax, 72(%rsp)          # 8-byte Spill
.Ltmp151:
	#DEBUG_VALUE: mat_mult:b_data <- [%RSP+72]
	#DEBUG_VALUE: mat_mult:_18 <- [%RSP+72]
	#DEBUG_VALUE: mat_mult:b_data_has_ownership <- 1
	.loc	1 363 2                 # MatrixMult.c:363:2
	xorl	%edi, %edi
	movl	%r12d, %esi
.Ltmp152:
	#DEBUG_VALUE: matrix:data_size <- [%RSP+24]
	#DEBUG_VALUE: mat_mult:_21_size <- [%RSP+24]
	#DEBUG_VALUE: mat_mult:_20 <- [%RSP+24]
	#DEBUG_VALUE: mat_mult:_16_size <- [%RSP+24]
	#DEBUG_VALUE: mat_mult:_15 <- [%RSP+24]
	#DEBUG_VALUE: mat_mult:b_t_size <- [%RSP+24]
	#DEBUG_VALUE: mat_mult:data_size <- [%RSP+24]
	callq	gen1DArray
.Ltmp153:
	movq	%rax, 32(%rsp)          # 8-byte Spill
.Ltmp154:
	#DEBUG_VALUE: mat_mult:b_t <- [%RSP+32]
	#DEBUG_VALUE: mat_mult:_21 <- [%RSP+32]
	#DEBUG_VALUE: mat_mult:b_t_has_ownership <- 1
	.loc	1 389 6                 # MatrixMult.c:389:6
	testq	%r15, %r15
.Ltmp155:
	#DEBUG_VALUE: matrix:height <- [%RSP+16]
	#DEBUG_VALUE: mat_mult:_13 <- [%RSP+16]
	#DEBUG_VALUE: mat_mult:height <- [%RSP+16]
	jle	.LBB6_11
.Ltmp156:
# BB#1:                                 # %polly.split_new_and_old342
	#DEBUG_VALUE: mat_mult:height <- [%RSP+16]
	#DEBUG_VALUE: mat_mult:_13 <- [%RSP+16]
	#DEBUG_VALUE: matrix:height <- [%RSP+16]
	#DEBUG_VALUE: mat_mult:_21 <- [%RSP+32]
	#DEBUG_VALUE: mat_mult:b_t <- [%RSP+32]
	#DEBUG_VALUE: matrix:data <- %RBX
	#DEBUG_VALUE: mat_mult:_16 <- %RBX
	#DEBUG_VALUE: mat_mult:data <- %RBX
	movq	72(%rsp), %rdx          # 8-byte Reload
	movq	24(%rsp), %rax          # 8-byte Reload
	leaq	(%rdx,%rax,8), %rax
	movq	32(%rsp), %rsi          # 8-byte Reload
	cmpq	%rsi, %rax
	setbe	%al
	movq	8(%rsp), %rdi           # 8-byte Reload
	leaq	-1(%rdi), %rcx
	movq	%rcx, 40(%rsp)          # 8-byte Spill
	imulq	%rdi, %rcx
	movq	16(%rsp), %rbp          # 8-byte Reload
	addq	%rbp, %rcx
	leaq	(%rsi,%rcx,8), %rcx
	cmpq	%rdx, %rcx
	setbe	%cl
	cmpq	%rbp, %rdi
	jl	.LBB6_3
.Ltmp157:
# BB#2:                                 # %polly.split_new_and_old342
	#DEBUG_VALUE: mat_mult:data <- %RBX
	#DEBUG_VALUE: mat_mult:_16 <- %RBX
	#DEBUG_VALUE: matrix:data <- %RBX
	#DEBUG_VALUE: mat_mult:b_t <- [%RSP+32]
	#DEBUG_VALUE: mat_mult:_21 <- [%RSP+32]
	#DEBUG_VALUE: matrix:height <- [%RSP+16]
	#DEBUG_VALUE: mat_mult:_13 <- [%RSP+16]
	#DEBUG_VALUE: mat_mult:height <- [%RSP+16]
	orb	%cl, %al
	je	.LBB6_3
.Ltmp158:
# BB#47:                                # %polly.start344
	#DEBUG_VALUE: mat_mult:height <- [%RSP+16]
	#DEBUG_VALUE: mat_mult:_13 <- [%RSP+16]
	#DEBUG_VALUE: matrix:height <- [%RSP+16]
	#DEBUG_VALUE: mat_mult:_21 <- [%RSP+32]
	#DEBUG_VALUE: mat_mult:b_t <- [%RSP+32]
	#DEBUG_VALUE: matrix:data <- %RBX
	#DEBUG_VALUE: mat_mult:_16 <- %RBX
	#DEBUG_VALUE: mat_mult:data <- %RBX
	movq	16(%rsp), %rax          # 8-byte Reload
	decq	%rax
	sarq	$5, %rax
	movq	%rax, 88(%rsp)          # 8-byte Spill
	js	.LBB6_11
.Ltmp159:
# BB#48:                                # %polly.loop_header357.preheader
	#DEBUG_VALUE: mat_mult:data <- %RBX
	#DEBUG_VALUE: mat_mult:_16 <- %RBX
	#DEBUG_VALUE: matrix:data <- %RBX
	#DEBUG_VALUE: mat_mult:b_t <- [%RSP+32]
	#DEBUG_VALUE: mat_mult:_21 <- [%RSP+32]
	#DEBUG_VALUE: matrix:height <- [%RSP+16]
	#DEBUG_VALUE: mat_mult:_13 <- [%RSP+16]
	#DEBUG_VALUE: mat_mult:height <- [%RSP+16]
	sarq	$5, 40(%rsp)            # 8-byte Folded Spill
	movq	8(%rsp), %rax           # 8-byte Reload
	movq	%rax, %r12
	shlq	$8, %r12
	leaq	(,%rax,8), %rsi
	xorl	%eax, %eax
	movq	%rax, 48(%rsp)          # 8-byte Spill
	movq	72(%rsp), %rax          # 8-byte Reload
	movq	%rax, 56(%rsp)          # 8-byte Spill
	movq	32(%rsp), %rax          # 8-byte Reload
	movq	%rax, 96(%rsp)          # 8-byte Spill
.Ltmp160:
	.p2align	4, 0x90
.LBB6_49:                               # %polly.loop_header357
                                        # =>This Loop Header: Depth=1
                                        #     Child Loop BB6_52 Depth 2
                                        #       Child Loop BB6_54 Depth 3
                                        #         Child Loop BB6_55 Depth 4
	cmpq	$0, 40(%rsp)            # 8-byte Folded Reload
	js	.LBB6_58
# BB#50:                                # %polly.loop_header367.preheader
                                        #   in Loop: Header=BB6_49 Depth=1
	movq	48(%rsp), %rax          # 8-byte Reload
	shlq	$5, %rax
	movq	16(%rsp), %rbp          # 8-byte Reload
	subq	%rax, %rbp
	decq	%rbp
	cmpq	$31, %rbp
	movl	$31, %eax
	cmovgq	%rax, %rbp
	testq	%rbp, %rbp
	js	.LBB6_58
# BB#51:                                #   in Loop: Header=BB6_49 Depth=1
	decq	%rbp
	movq	56(%rsp), %r13          # 8-byte Reload
	movq	96(%rsp), %r11          # 8-byte Reload
	xorl	%edi, %edi
	.p2align	4, 0x90
.LBB6_52:                               # %polly.loop_header367.us
                                        #   Parent Loop BB6_49 Depth=1
                                        # =>  This Loop Header: Depth=2
                                        #       Child Loop BB6_54 Depth 3
                                        #         Child Loop BB6_55 Depth 4
	movq	%rdi, %rax
	shlq	$5, %rax
	movq	8(%rsp), %rcx           # 8-byte Reload
	subq	%rax, %rcx
	decq	%rcx
	cmpq	$31, %rcx
	movl	$31, %edx
	cmovleq	%rcx, %rdx
	testq	%rdx, %rdx
	js	.LBB6_57
# BB#53:                                #   in Loop: Header=BB6_52 Depth=2
	decq	%rdx
	movq	%r13, %r14
	movq	%r11, %r15
	xorl	%r9d, %r9d
	.p2align	4, 0x90
.LBB6_54:                               # %polly.loop_header376.us.us
                                        #   Parent Loop BB6_49 Depth=1
                                        #     Parent Loop BB6_52 Depth=2
                                        # =>    This Loop Header: Depth=3
                                        #         Child Loop BB6_55 Depth 4
	movq	$-1, %r10
	movq	%r14, %rax
	movq	%r15, %r8
	.p2align	4, 0x90
.LBB6_55:                               # %polly.loop_header385.us.us
                                        #   Parent Loop BB6_49 Depth=1
                                        #     Parent Loop BB6_52 Depth=2
                                        #       Parent Loop BB6_54 Depth=3
                                        # =>      This Inner Loop Header: Depth=4
	movq	(%rax), %rcx
	movq	%rcx, (%r8)
	incq	%r10
	addq	%rsi, %r8
	addq	$8, %rax
	cmpq	%rdx, %r10
	jle	.LBB6_55
# BB#56:                                # %polly.loop_exit387.loopexit.us.us
                                        #   in Loop: Header=BB6_54 Depth=3
	addq	$8, %r15
	addq	%rsi, %r14
	cmpq	%rbp, %r9
	leaq	1(%r9), %r9
	jle	.LBB6_54
.LBB6_57:                               # %polly.loop_exit378.loopexit.us
                                        #   in Loop: Header=BB6_52 Depth=2
	addq	%r12, %r11
	addq	$256, %r13              # imm = 0x100
	cmpq	40(%rsp), %rdi          # 8-byte Folded Reload
	leaq	1(%rdi), %rdi
	jne	.LBB6_52
.LBB6_58:                               # %polly.loop_exit369
                                        #   in Loop: Header=BB6_49 Depth=1
	addq	$256, 96(%rsp)          # 8-byte Folded Spill
                                        # imm = 0x100
	addq	%r12, 56(%rsp)          # 8-byte Folded Spill
	movq	48(%rsp), %rax          # 8-byte Reload
	cmpq	88(%rsp), %rax          # 8-byte Folded Reload
	leaq	1(%rax), %rax
	movq	%rax, 48(%rsp)          # 8-byte Spill
	jne	.LBB6_49
	jmp	.LBB6_11
.LBB6_3:                                # %while.cond41.preheader.preheader
.Ltmp161:
	#DEBUG_VALUE: mat_mult:data <- %RBX
	#DEBUG_VALUE: mat_mult:_16 <- %RBX
	#DEBUG_VALUE: matrix:data <- %RBX
	#DEBUG_VALUE: mat_mult:b_t <- [%RSP+32]
	#DEBUG_VALUE: mat_mult:_21 <- [%RSP+32]
	#DEBUG_VALUE: matrix:height <- [%RSP+16]
	#DEBUG_VALUE: mat_mult:_13 <- [%RSP+16]
	#DEBUG_VALUE: mat_mult:height <- [%RSP+16]
	.loc	1 397 7                 # MatrixMult.c:397:7
	testq	%rdi, %rdi
	jle	.LBB6_11
.Ltmp162:
# BB#4:                                 # %while.cond41.preheader.us.preheader
	#DEBUG_VALUE: mat_mult:height <- [%RSP+16]
	#DEBUG_VALUE: mat_mult:_13 <- [%RSP+16]
	#DEBUG_VALUE: matrix:height <- [%RSP+16]
	#DEBUG_VALUE: mat_mult:_21 <- [%RSP+32]
	#DEBUG_VALUE: mat_mult:b_t <- [%RSP+32]
	#DEBUG_VALUE: matrix:data <- %RBX
	#DEBUG_VALUE: mat_mult:_16 <- %RBX
	#DEBUG_VALUE: mat_mult:data <- %RBX
	movq	8(%rsp), %rax           # 8-byte Reload
	.loc	1 399 9                 # MatrixMult.c:399:9
	movl	%eax, %r15d
	andl	$3, %r15d
	leaq	(,%rax,8), %r12
	movq	%rax, %r14
	shlq	$5, %r14
	xorl	%eax, %eax
	movq	%rax, 56(%rsp)          # 8-byte Spill
	movq	72(%rsp), %rbp          # 8-byte Reload
	movq	32(%rsp), %r10          # 8-byte Reload
	xorl	%eax, %eax
	movq	8(%rsp), %r9            # 8-byte Reload
.Ltmp163:
	.p2align	4, 0x90
.LBB6_5:                                # %while.cond41.preheader.us
                                        # =>This Loop Header: Depth=1
                                        #     Child Loop BB6_6 Depth 2
                                        #     Child Loop BB6_9 Depth 2
	movq	%rax, 48(%rsp)          # 8-byte Spill
	testq	%r15, %r15
	movq	%rbp, %rax
	movq	%r10, %rcx
	movl	$0, %edi
	je	.LBB6_7
	.p2align	4, 0x90
.LBB6_6:                                # %if.end46.us.prol
                                        #   Parent Loop BB6_5 Depth=1
                                        # =>  This Inner Loop Header: Depth=2
	.loc	1 403 8                 # MatrixMult.c:403:8
	movq	(%rax), %rdx
.Ltmp164:
	#DEBUG_VALUE: mat_mult:_32 <- 1
	#DEBUG_VALUE: mat_mult:_29 <- %RDX
	.loc	1 409 13                # MatrixMult.c:409:13
	movq	%rdx, (%rcx)
	.loc	1 413 9                 # MatrixMult.c:413:9
	incq	%rdi
.Ltmp165:
	#DEBUG_VALUE: mat_mult:_33 <- %RDI
	#DEBUG_VALUE: mat_mult:j <- %RDI
	.loc	1 397 7                 # MatrixMult.c:397:7
	addq	%r12, %rcx
	addq	$8, %rax
	cmpq	%rdi, %r15
	jne	.LBB6_6
.Ltmp166:
.LBB6_7:                                # %while.cond41.preheader.us.split
                                        #   in Loop: Header=BB6_5 Depth=1
	cmpq	$3, 40(%rsp)            # 8-byte Folded Reload
	jb	.LBB6_10
# BB#8:                                 # %while.cond41.preheader.us.split.split
                                        #   in Loop: Header=BB6_5 Depth=1
	.loc	1 399 9                 # MatrixMult.c:399:9
	leaq	3(%rdi), %rax
	imulq	%r9, %rax
	movq	32(%rsp), %rdx          # 8-byte Reload
	leaq	(%rdx,%rax,8), %r13
	leaq	2(%rdi), %rax
	imulq	%r9, %rax
	leaq	(%rdx,%rax,8), %r8
	leaq	1(%rdi), %rax
	imulq	%r9, %rax
	leaq	(%rdx,%rax,8), %rcx
	movq	%r9, %rax
	imulq	%rdi, %rax
	leaq	(%rdx,%rax,8), %rdx
	movq	56(%rsp), %rax          # 8-byte Reload
	.p2align	4, 0x90
.LBB6_9:                                # %if.end46.us
                                        #   Parent Loop BB6_5 Depth=1
                                        # =>  This Inner Loop Header: Depth=2
	.loc	1 403 8                 # MatrixMult.c:403:8
	movq	(%rbp,%rdi,8), %r11
.Ltmp167:
	#DEBUG_VALUE: mat_mult:_29 <- %R11
	.loc	1 409 13                # MatrixMult.c:409:13
	movq	%r11, (%rdx,%rax)
	#DEBUG_VALUE: mat_mult:_32 <- 1
	.loc	1 403 8                 # MatrixMult.c:403:8
	movq	8(%rbp,%rdi,8), %rsi
	.loc	1 409 13                # MatrixMult.c:409:13
	movq	%rsi, (%rcx,%rax)
	.loc	1 403 8                 # MatrixMult.c:403:8
	movq	16(%rbp,%rdi,8), %rsi
	.loc	1 409 13                # MatrixMult.c:409:13
	movq	%rsi, (%r8,%rax)
	.loc	1 403 8                 # MatrixMult.c:403:8
	movq	24(%rbp,%rdi,8), %rsi
	.loc	1 409 13                # MatrixMult.c:409:13
	movq	%rsi, (%r13,%rax)
	.loc	1 413 9                 # MatrixMult.c:413:9
	addq	$4, %rdi
	.loc	1 397 7                 # MatrixMult.c:397:7
	addq	%r14, %rax
	cmpq	%rdi, %r9
	jne	.LBB6_9
.Ltmp168:
.LBB6_10:                               # %blklab15.loopexit.us
                                        #   in Loop: Header=BB6_5 Depth=1
	#DEBUG_VALUE: mat_mult:_34 <- 1
	movq	48(%rsp), %rax          # 8-byte Reload
	.loc	1 424 8                 # MatrixMult.c:424:8
	incq	%rax
.Ltmp169:
	#DEBUG_VALUE: mat_mult:_35 <- %RAX
	#DEBUG_VALUE: mat_mult:i <- %RAX
	.loc	1 389 6                 # MatrixMult.c:389:6
	addq	$8, %r10
	addq	%r12, %rbp
	addq	$8, 56(%rsp)            # 8-byte Folded Spill
	cmpq	16(%rsp), %rax          # 8-byte Folded Reload
	jne	.LBB6_5
.Ltmp170:
.LBB6_11:                               # %polly.split_new_and_old
	#DEBUG_VALUE: mat_mult:a_has_ownership [bit_piece offset=0 size=1] <-  [complex expression]
	movq	80(%rsp), %rdx          # 8-byte Reload
	movq	24(%rsp), %rdi          # 8-byte Reload
	leaq	(%rdx,%rdi,8), %rax
	cmpq	%rbx, %rax
	setbe	%al
	leaq	(%rbx,%rdi,8), %rcx
	cmpq	%rdx, %rcx
	setbe	%dl
	orb	%al, %dl
	movq	32(%rsp), %rsi          # 8-byte Reload
	leaq	(%rsi,%rdi,8), %rax
	cmpq	%rbx, %rax
	setbe	%al
	cmpq	%rsi, %rcx
	setbe	%cl
	movzbl	%dl, %edx
	cmpl	$1, %edx
	jne	.LBB6_13
.Ltmp171:
# BB#12:                                # %polly.split_new_and_old
	#DEBUG_VALUE: mat_mult:a_has_ownership [bit_piece offset=0 size=1] <-  [complex expression]
	orb	%al, %cl
	je	.LBB6_13
.Ltmp172:
# BB#30:                                # %polly.start
	#DEBUG_VALUE: mat_mult:a_has_ownership [bit_piece offset=0 size=1] <-  [complex expression]
	movq	16(%rsp), %rax          # 8-byte Reload
	decq	%rax
	sarq	$5, %rax
	movq	%rax, 176(%rsp)         # 8-byte Spill
	movq	8(%rsp), %r12           # 8-byte Reload
	js	.LBB6_25
.Ltmp173:
# BB#31:                                # %polly.loop_header.preheader
	#DEBUG_VALUE: mat_mult:a_has_ownership [bit_piece offset=0 size=1] <-  [complex expression]
	leaq	-1(%r12), %rax
	movq	%rax, %rcx
	sarq	$5, %rcx
	movq	%rcx, 144(%rsp)         # 8-byte Spill
	shrq	$5, %rax
	movq	%rax, 200(%rsp)         # 8-byte Spill
	movq	%r12, %rax
	shlq	$8, %rax
	movq	%rax, 168(%rsp)         # 8-byte Spill
	leaq	(,%r12,8), %rbp
	xorl	%eax, %eax
	movq	%rax, 120(%rsp)         # 8-byte Spill
	movq	80(%rsp), %rax          # 8-byte Reload
	movq	%rax, 136(%rsp)         # 8-byte Spill
	movq	32(%rsp), %rax          # 8-byte Reload
	movq	%rax, 128(%rsp)         # 8-byte Spill
.Ltmp174:
	.p2align	4, 0x90
.LBB6_32:                               # %polly.loop_header
                                        # =>This Loop Header: Depth=1
                                        #     Child Loop BB6_34 Depth 2
                                        #       Child Loop BB6_35 Depth 3
                                        #         Child Loop BB6_38 Depth 4
                                        #           Child Loop BB6_40 Depth 5
                                        #             Child Loop BB6_41 Depth 6
	cmpq	$0, 144(%rsp)           # 8-byte Folded Reload
	js	.LBB6_46
# BB#33:                                # %polly.loop_header296.preheader
                                        #   in Loop: Header=BB6_32 Depth=1
	movq	120(%rsp), %rax         # 8-byte Reload
	shlq	$5, %rax
	movq	%rax, 96(%rsp)          # 8-byte Spill
	movq	16(%rsp), %rcx          # 8-byte Reload
	subq	%rax, %rcx
	decq	%rcx
	cmpq	$31, %rcx
	movl	$31, %eax
	cmovgq	%rax, %rcx
	movq	%rcx, 208(%rsp)         # 8-byte Spill
	leaq	-1(%rcx), %rax
	movq	%rax, 48(%rsp)          # 8-byte Spill
	xorl	%eax, %eax
	.p2align	4, 0x90
.LBB6_34:                               # %polly.loop_header296
                                        #   Parent Loop BB6_32 Depth=1
                                        # =>  This Loop Header: Depth=2
                                        #       Child Loop BB6_35 Depth 3
                                        #         Child Loop BB6_38 Depth 4
                                        #           Child Loop BB6_40 Depth 5
                                        #             Child Loop BB6_41 Depth 6
	movq	%rax, 184(%rsp)         # 8-byte Spill
	movq	%rax, %rcx
	shlq	$5, %rcx
	movq	%rcx, 56(%rsp)          # 8-byte Spill
	subq	%rcx, %r12
	decq	%r12
	cmpq	$31, %r12
	movl	$31, %ecx
	cmovleq	%r12, %rcx
	movq	%rcx, 192(%rsp)         # 8-byte Spill
	leaq	-1(%rcx), %r11
	movq	136(%rsp), %rax         # 8-byte Reload
	movq	%rax, 160(%rsp)         # 8-byte Spill
	movq	128(%rsp), %rax         # 8-byte Reload
	movq	%rax, 152(%rsp)         # 8-byte Spill
	xorl	%eax, %eax
	movq	%rax, 88(%rsp)          # 8-byte Spill
	.p2align	4, 0x90
.LBB6_35:                               # %polly.loop_header304
                                        #   Parent Loop BB6_32 Depth=1
                                        #     Parent Loop BB6_34 Depth=2
                                        # =>    This Loop Header: Depth=3
                                        #         Child Loop BB6_38 Depth 4
                                        #           Child Loop BB6_40 Depth 5
                                        #             Child Loop BB6_41 Depth 6
	cmpq	$0, 208(%rsp)           # 8-byte Folded Reload
	js	.LBB6_44
# BB#36:                                # %polly.loop_header312.preheader
                                        #   in Loop: Header=BB6_35 Depth=3
	movq	88(%rsp), %rax          # 8-byte Reload
	shlq	$5, %rax
	movq	8(%rsp), %rcx           # 8-byte Reload
	subq	%rax, %rcx
	decq	%rcx
	cmpq	$31, %rcx
	movl	$31, %eax
	cmovleq	%rcx, %rax
	movq	%rax, 40(%rsp)          # 8-byte Spill
	cmpq	$0, 192(%rsp)           # 8-byte Folded Reload
	js	.LBB6_44
# BB#37:                                #   in Loop: Header=BB6_35 Depth=3
	movq	40(%rsp), %rax          # 8-byte Reload
	leaq	-1(%rax), %r10
	movq	160(%rsp), %rsi         # 8-byte Reload
	movq	152(%rsp), %r9          # 8-byte Reload
	xorl	%edx, %edx
	.p2align	4, 0x90
.LBB6_38:                               # %polly.loop_header312.us
                                        #   Parent Loop BB6_32 Depth=1
                                        #     Parent Loop BB6_34 Depth=2
                                        #       Parent Loop BB6_35 Depth=3
                                        # =>      This Loop Header: Depth=4
                                        #           Child Loop BB6_40 Depth 5
                                        #             Child Loop BB6_41 Depth 6
	cmpq	$0, 40(%rsp)            # 8-byte Folded Reload
	js	.LBB6_43
# BB#39:                                #   in Loop: Header=BB6_38 Depth=4
	movq	96(%rsp), %rax          # 8-byte Reload
	leaq	(%rdx,%rax), %r13
	imulq	8(%rsp), %r13           # 8-byte Folded Reload
	addq	56(%rsp), %r13          # 8-byte Folded Reload
	xorl	%eax, %eax
	.p2align	4, 0x90
.LBB6_40:                               # %polly.loop_header321.us.us
                                        #   Parent Loop BB6_32 Depth=1
                                        #     Parent Loop BB6_34 Depth=2
                                        #       Parent Loop BB6_35 Depth=3
                                        #         Parent Loop BB6_38 Depth=4
                                        # =>        This Loop Header: Depth=5
                                        #             Child Loop BB6_41 Depth 6
	leaq	(%r13,%rax), %r15
	movq	(%rbx,%r15,8), %r14
	movq	$-1, %r8
	movq	%rsi, %rcx
	movq	%r9, %r12
	.p2align	4, 0x90
.LBB6_41:                               # %polly.loop_header330.us.us
                                        #   Parent Loop BB6_32 Depth=1
                                        #     Parent Loop BB6_34 Depth=2
                                        #       Parent Loop BB6_35 Depth=3
                                        #         Parent Loop BB6_38 Depth=4
                                        #           Parent Loop BB6_40 Depth=5
                                        # =>          This Inner Loop Header: Depth=6
	movq	(%r12), %rdi
.Ltmp175:
	.loc	1 475 12                # MatrixMult.c:475:12
	imulq	(%rcx), %rdi
	.loc	1 477 12                # MatrixMult.c:477:12
	addq	%rdi, %r14
	incq	%r8
	addq	$8, %r12
	addq	$8, %rcx
	cmpq	%r10, %r8
	jle	.LBB6_41
.Ltmp176:
# BB#42:                                # %polly.loop_exit332.loopexit.us.us
                                        #   in Loop: Header=BB6_40 Depth=5
	movq	%r14, (%rbx,%r15,8)
	cmpq	%r11, %rax
	leaq	1(%rax), %rax
	jle	.LBB6_40
.LBB6_43:                               # %polly.loop_exit323.loopexit.us
                                        #   in Loop: Header=BB6_38 Depth=4
	addq	%rbp, %r9
	addq	%rbp, %rsi
	cmpq	48(%rsp), %rdx          # 8-byte Folded Reload
	leaq	1(%rdx), %rdx
	jle	.LBB6_38
.LBB6_44:                               # %polly.loop_exit314
                                        #   in Loop: Header=BB6_35 Depth=3
	addq	$256, 152(%rsp)         # 8-byte Folded Spill
                                        # imm = 0x100
	addq	$256, 160(%rsp)         # 8-byte Folded Spill
                                        # imm = 0x100
	movq	88(%rsp), %rax          # 8-byte Reload
	cmpq	200(%rsp), %rax         # 8-byte Folded Reload
	leaq	1(%rax), %rax
	movq	%rax, 88(%rsp)          # 8-byte Spill
	jne	.LBB6_35
# BB#45:                                # %polly.loop_exit306
                                        #   in Loop: Header=BB6_34 Depth=2
	movq	184(%rsp), %rax         # 8-byte Reload
	cmpq	144(%rsp), %rax         # 8-byte Folded Reload
	leaq	1(%rax), %rax
	movq	8(%rsp), %r12           # 8-byte Reload
	jne	.LBB6_34
.LBB6_46:                               # %polly.loop_exit298
                                        #   in Loop: Header=BB6_32 Depth=1
	movq	168(%rsp), %rax         # 8-byte Reload
	addq	%rax, 128(%rsp)         # 8-byte Folded Spill
	addq	%rax, 136(%rsp)         # 8-byte Folded Spill
	movq	120(%rsp), %rax         # 8-byte Reload
	cmpq	176(%rsp), %rax         # 8-byte Folded Reload
	leaq	1(%rax), %rax
	movq	%rax, 120(%rsp)         # 8-byte Spill
	jne	.LBB6_32
	jmp	.LBB6_25
.LBB6_13:                               # %while.cond53.preheader
.Ltmp177:
	#DEBUG_VALUE: mat_mult:a_has_ownership [bit_piece offset=0 size=1] <-  [complex expression]
	.loc	1 439 6                 # MatrixMult.c:439:6
	cmpq	$0, 16(%rsp)            # 8-byte Folded Reload
	movq	8(%rsp), %r12           # 8-byte Reload
	jle	.LBB6_25
.Ltmp178:
# BB#14:                                # %while.cond53.preheader
	#DEBUG_VALUE: mat_mult:a_has_ownership [bit_piece offset=0 size=1] <-  [complex expression]
	testq	%r12, %r12
	jle	.LBB6_25
.Ltmp179:
# BB#15:                                # %while.cond59.preheader.us.preheader
	#DEBUG_VALUE: mat_mult:a_has_ownership [bit_piece offset=0 size=1] <-  [complex expression]
	.loc	1 457 10                # MatrixMult.c:457:10
	movl	%r12d, %r11d
	andl	$1, %r11d
	xorl	%eax, %eax
	movq	%rax, 40(%rsp)          # 8-byte Spill
	movl	$1, %r10d
	xorl	%eax, %eax
	movq	80(%rsp), %r9           # 8-byte Reload
	movq	32(%rsp), %r13          # 8-byte Reload
.Ltmp180:
	.p2align	4, 0x90
.LBB6_16:                               # %while.cond59.preheader.us
                                        # =>This Loop Header: Depth=1
                                        #     Child Loop BB6_17 Depth 2
                                        #       Child Loop BB6_22 Depth 3
	movq	%rax, 48(%rsp)          # 8-byte Spill
	movq	%rax, %r14
	imulq	%r12, %r14
.Ltmp181:
	#DEBUG_VALUE: mat_mult:_50 <- %R14
	#DEBUG_VALUE: mat_mult:_46 <- %R14
	#DEBUG_VALUE: mat_mult:_45 <- %R14
	#DEBUG_VALUE: mat_mult:_43 <- %R14
	#DEBUG_VALUE: mat_mult:_42 <- %R14
	#DEBUG_VALUE: mat_mult:_39 <- %R14
	xorl	%r15d, %r15d
.Ltmp182:
	.p2align	4, 0x90
.LBB6_17:                               # %while.cond65.preheader.us.us
                                        #   Parent Loop BB6_16 Depth=1
                                        # =>  This Loop Header: Depth=2
                                        #       Child Loop BB6_22 Depth 3
	.loc	1 459 12                # MatrixMult.c:459:12
	leaq	(%r15,%r14), %rsi
.Ltmp183:
	#DEBUG_VALUE: mat_mult:_51 <- %RSI
	#DEBUG_VALUE: mat_mult:_40 <- %RSI
	testq	%r11, %r11
	.loc	1 461 9                 # MatrixMult.c:461:9
	movq	(%rbx,%rsi,8), %rcx
.Ltmp184:
	#DEBUG_VALUE: mat_mult:_41 <- %RCX
	jne	.LBB6_19
.Ltmp185:
# BB#18:                                #   in Loop: Header=BB6_17 Depth=2
	#DEBUG_VALUE: mat_mult:_41 <- %RCX
	#DEBUG_VALUE: mat_mult:_40 <- %RSI
	#DEBUG_VALUE: mat_mult:_51 <- %RSI
	xorl	%edi, %edi
	jmp	.LBB6_20
.Ltmp186:
	.p2align	4, 0x90
.LBB6_19:                               # %if.end70.us.us.prol
                                        #   in Loop: Header=BB6_17 Depth=2
	#DEBUG_VALUE: mat_mult:_41 <- %RCX
	#DEBUG_VALUE: mat_mult:_40 <- %RSI
	#DEBUG_VALUE: mat_mult:_51 <- %RSI
	.loc	1 473 9                 # MatrixMult.c:473:9
	movq	(%r13,%r14,8), %rax
.Ltmp187:
	#DEBUG_VALUE: mat_mult:_47 <- %RCX
	.loc	1 475 12                # MatrixMult.c:475:12
	imulq	(%r9,%r14,8), %rax
.Ltmp188:
	#DEBUG_VALUE: mat_mult:_48 <- %RCX
	.loc	1 477 12                # MatrixMult.c:477:12
	addq	%rax, %rcx
.Ltmp189:
	#DEBUG_VALUE: mat_mult:_49 <- %RCX
	.loc	1 483 15                # MatrixMult.c:483:15
	movq	%rcx, (%rbx,%rsi,8)
.Ltmp190:
	#DEBUG_VALUE: mat_mult:_53 <- 1
	#DEBUG_VALUE: mat_mult:_52 <- 1
	#DEBUG_VALUE: mat_mult:k <- 1
	movl	$1, %edi
.Ltmp191:
.LBB6_20:                               # %while.cond65.preheader.us.us.split
                                        #   in Loop: Header=BB6_17 Depth=2
	#DEBUG_VALUE: mat_mult:_51 <- %RSI
	#DEBUG_VALUE: mat_mult:_40 <- %RSI
	cmpq	$1, %r12
	je	.LBB6_23
.Ltmp192:
# BB#21:                                # %while.cond65.preheader.us.us.split.split
                                        #   in Loop: Header=BB6_17 Depth=2
	#DEBUG_VALUE: mat_mult:_40 <- %RSI
	#DEBUG_VALUE: mat_mult:_51 <- %RSI
	.loc	1 457 10                # MatrixMult.c:457:10
	movq	%r12, %rdx
	subq	%rdi, %rdx
	movq	40(%rsp), %rax          # 8-byte Reload
	leaq	(%rax,%rdi), %rax
	leaq	(%r13,%rax,8), %rax
	addq	%r10, %rdi
	leaq	(%r9,%rdi,8), %rdi
.Ltmp193:
	.p2align	4, 0x90
.LBB6_22:                               # %if.end70.us.us
                                        #   Parent Loop BB6_16 Depth=1
                                        #     Parent Loop BB6_17 Depth=2
                                        # =>    This Inner Loop Header: Depth=3
	.loc	1 473 9                 # MatrixMult.c:473:9
	movq	(%rax), %rbp
.Ltmp194:
	#DEBUG_VALUE: mat_mult:_47 <- %RBP
	.loc	1 475 12                # MatrixMult.c:475:12
	imulq	-8(%rdi), %rbp
.Ltmp195:
	#DEBUG_VALUE: mat_mult:_48 <- %RBP
	.loc	1 477 12                # MatrixMult.c:477:12
	addq	%rcx, %rbp
.Ltmp196:
	#DEBUG_VALUE: mat_mult:_49 <- %RBP
	.loc	1 483 15                # MatrixMult.c:483:15
	movq	%rbp, (%rbx,%rsi,8)
	.loc	1 473 9                 # MatrixMult.c:473:9
	movq	8(%rax), %rcx
	.loc	1 475 12                # MatrixMult.c:475:12
	imulq	(%rdi), %rcx
	.loc	1 477 12                # MatrixMult.c:477:12
	addq	%rbp, %rcx
	.loc	1 483 15                # MatrixMult.c:483:15
	movq	%rcx, (%rbx,%rsi,8)
	.loc	1 455 8                 # MatrixMult.c:455:8
	addq	$16, %rax
	addq	$16, %rdi
	addq	$-2, %rdx
	#DEBUG_VALUE: mat_mult:_52 <- 1
.Ltmp197:
	#DEBUG_VALUE: mat_mult:_41 <- %RCX
	jne	.LBB6_22
.Ltmp198:
.LBB6_23:                               # %blklab21.loopexit.us.us
                                        #   in Loop: Header=BB6_17 Depth=2
	#DEBUG_VALUE: mat_mult:_54 <- 1
	.loc	1 498 9                 # MatrixMult.c:498:9
	incq	%r15
.Ltmp199:
	#DEBUG_VALUE: mat_mult:_55 <- %R15
	#DEBUG_VALUE: mat_mult:j <- %R15
	.loc	1 447 7                 # MatrixMult.c:447:7
	cmpq	%r12, %r15
	jne	.LBB6_17
.Ltmp200:
# BB#24:                                # %blklab19.loopexit.us-lcssa.us.us
                                        #   in Loop: Header=BB6_16 Depth=1
	#DEBUG_VALUE: mat_mult:j <- %R15
	#DEBUG_VALUE: mat_mult:_55 <- %R15
	#DEBUG_VALUE: mat_mult:_56 <- 1
	movq	48(%rsp), %rax          # 8-byte Reload
	.loc	1 509 8                 # MatrixMult.c:509:8
	incq	%rax
.Ltmp201:
	#DEBUG_VALUE: mat_mult:_57 <- %RAX
	#DEBUG_VALUE: mat_mult:i <- %RAX
	.loc	1 439 6                 # MatrixMult.c:439:6
	addq	%r12, 40(%rsp)          # 8-byte Folded Spill
	addq	%r12, %r10
	cmpq	16(%rsp), %rax          # 8-byte Folded Reload
	jne	.LBB6_16
.Ltmp202:
.LBB6_25:                               # %if.end90
	#DEBUG_VALUE: mat_mult:b_has_ownership [bit_piece offset=0 size=1] <-  [complex expression]
	#DEBUG_VALUE: mat_mult:data_has_ownership <- 1
	#DEBUG_VALUE: matrix:data_has_ownership [bit_piece offset=0 size=1] <- 0
	#DEBUG_VALUE: matrix:r_has_ownership <- 0
	#DEBUG_VALUE: matrix:_4_has_ownership <- 0
	.loc	1 30 7                  # MatrixMult.c:30:7
	movl	$32, %edi
	callq	malloc
.Ltmp203:
	movq	%rax, %r14
	movq	24(%rsp), %rsi          # 8-byte Reload
	.loc	1 31 2                  # MatrixMult.c:31:2
	movq	%rsi, 8(%r14)
	movq	%rbx, %rdi
	callq	copy
	movq	%rax, (%r14)
	.loc	1 32 13                 # MatrixMult.c:32:13
	movq	16(%rsp), %rax          # 8-byte Reload
	movq	%rax, 24(%r14)
.Ltmp204:
	#DEBUG_VALUE: matrix:_4_has_ownership <- 1
	#DEBUG_VALUE: mat_mult:_58_has_ownership <- 1
	.loc	1 33 12                 # MatrixMult.c:33:12
	movq	%r12, 16(%r14)
.Ltmp205:
	.loc	1 523 2                 # MatrixMult.c:523:2
	movl	64(%rsp), %eax          # 4-byte Reload
	testb	%al, %al
	je	.LBB6_27
# BB#26:                                # %if.then93
.Ltmp206:
	#DEBUG_VALUE: free_Matrix:matrix <- [%RSP+104]
	movq	104(%rsp), %rbp         # 8-byte Reload
.Ltmp207:
	#DEBUG_VALUE: free_Matrix:matrix <- %RBP
	.loc	1 10 15                 # MatrixMult.c:10:15
	movq	(%rbp), %rdi
	.loc	1 10 2 is_stmt 0        # MatrixMult.c:10:2
	callq	free
	.loc	1 11 2 is_stmt 1        # MatrixMult.c:11:2
	movq	%rbp, %rdi
	callq	free
.Ltmp208:
	#DEBUG_VALUE: mat_mult:a_has_ownership <- 0
.LBB6_27:                               # %if.end94
	.loc	1 524 2                 # MatrixMult.c:524:2
	movl	68(%rsp), %eax          # 4-byte Reload
	testb	%al, %al
	movq	80(%rsp), %r15          # 8-byte Reload
	movq	32(%rsp), %r12          # 8-byte Reload
	je	.LBB6_29
# BB#28:                                # %if.then96
.Ltmp209:
	#DEBUG_VALUE: free_Matrix:matrix <- [%RSP+112]
	movq	112(%rsp), %rbp         # 8-byte Reload
.Ltmp210:
	#DEBUG_VALUE: free_Matrix:matrix <- %RBP
	.loc	1 10 15                 # MatrixMult.c:10:15
	movq	(%rbp), %rdi
	.loc	1 10 2 is_stmt 0        # MatrixMult.c:10:2
	callq	free
	.loc	1 11 2 is_stmt 1        # MatrixMult.c:11:2
	movq	%rbp, %rdi
	callq	free
.Ltmp211:
	#DEBUG_VALUE: mat_mult:b_has_ownership <- 0
.LBB6_29:                               # %if.then102
	.loc	1 526 2 discriminator 1 # MatrixMult.c:526:2
	movq	%rbx, %rdi
	callq	free
.Ltmp212:
	#DEBUG_VALUE: mat_mult:data_has_ownership <- 0
	.loc	1 527 2 discriminator 1 # MatrixMult.c:527:2
	movq	%r15, %rdi
	callq	free
.Ltmp213:
	#DEBUG_VALUE: mat_mult:a_data_has_ownership <- 0
	.loc	1 528 2 discriminator 1 # MatrixMult.c:528:2
	movq	72(%rsp), %rdi          # 8-byte Reload
	callq	free
.Ltmp214:
	#DEBUG_VALUE: mat_mult:b_data_has_ownership <- 0
	.loc	1 529 2 discriminator 1 # MatrixMult.c:529:2
	movq	%r12, %rdi
	callq	free
.Ltmp215:
	#DEBUG_VALUE: mat_mult:b_t_has_ownership <- 0
	.loc	1 534 2                 # MatrixMult.c:534:2
	movq	%r14, %rax
	addq	$216, %rsp
	popq	%rbx
	popq	%r12
	popq	%r13
	popq	%r14
	popq	%r15
	popq	%rbp
	retq
.Ltmp216:
.Lfunc_end6:
	.size	mat_mult, .Lfunc_end6-mat_mult
	.cfi_endproc

	.section	.rodata.cst16,"aM",@progbits,16
	.p2align	4
.LCPI7_0:
	.quad	115                     # 0x73
	.quad	105                     # 0x69
.LCPI7_1:
	.quad	122                     # 0x7a
	.quad	101                     # 0x65
.LCPI7_2:
	.quad	32                      # 0x20
	.quad	61                      # 0x3d
.LCPI7_3:
	.quad	77                      # 0x4d
	.quad	97                      # 0x61
.LCPI7_4:
	.quad	116                     # 0x74
	.quad	114                     # 0x72
.LCPI7_5:
	.quad	105                     # 0x69
	.quad	120                     # 0x78
.LCPI7_6:
	.quad	32                      # 0x20
	.quad	67                      # 0x43
.LCPI7_7:
	.quad	91                      # 0x5b
	.quad	115                     # 0x73
.LCPI7_8:
	.quad	105                     # 0x69
	.quad	122                     # 0x7a
.LCPI7_9:
	.quad	101                     # 0x65
	.quad	45                      # 0x2d
.LCPI7_10:
	.quad	49                      # 0x31
	.quad	93                      # 0x5d
.LCPI7_11:
	.quad	80                      # 0x50
	.quad	97                      # 0x61
.LCPI7_12:
	.quad	115                     # 0x73
	.quad	115                     # 0x73
.LCPI7_13:
	.quad	32                      # 0x20
	.quad	77                      # 0x4d
.LCPI7_14:
	.quad	97                      # 0x61
	.quad	116                     # 0x74
.LCPI7_15:
	.quad	114                     # 0x72
	.quad	105                     # 0x69
.LCPI7_16:
	.quad	120                     # 0x78
	.quad	77                      # 0x4d
.LCPI7_17:
	.quad	117                     # 0x75
	.quad	108                     # 0x6c
.LCPI7_18:
	.quad	116                     # 0x74
	.quad	32                      # 0x20
.LCPI7_19:
	.quad	116                     # 0x74
	.quad	101                     # 0x65
.LCPI7_20:
	.quad	115                     # 0x73
	.quad	116                     # 0x74
.LCPI7_21:
	.quad	32                      # 0x20
	.quad	99                      # 0x63
.LCPI7_22:
	.quad	97                      # 0x61
	.quad	115                     # 0x73
	.text
	.globl	main
	.p2align	4, 0x90
	.type	main,@function
main:                                   # @main
.Lfunc_begin7:
	.loc	1 538 0                 # MatrixMult.c:538:0
	.cfi_startproc
# BB#0:                                 # %entry
	pushq	%rbp
.Ltmp217:
	.cfi_def_cfa_offset 16
	pushq	%r15
.Ltmp218:
	.cfi_def_cfa_offset 24
	pushq	%r14
.Ltmp219:
	.cfi_def_cfa_offset 32
	pushq	%r13
.Ltmp220:
	.cfi_def_cfa_offset 40
	pushq	%r12
.Ltmp221:
	.cfi_def_cfa_offset 48
	pushq	%rbx
.Ltmp222:
	.cfi_def_cfa_offset 56
	subq	$72, %rsp
.Ltmp223:
	.cfi_def_cfa_offset 128
.Ltmp224:
	.cfi_offset %rbx, -56
.Ltmp225:
	.cfi_offset %r12, -48
.Ltmp226:
	.cfi_offset %r13, -40
.Ltmp227:
	.cfi_offset %r14, -32
.Ltmp228:
	.cfi_offset %r15, -24
.Ltmp229:
	.cfi_offset %rbp, -16
	#DEBUG_VALUE: main:argc <- %EDI
	#DEBUG_VALUE: main:args <- %RSI
	movl	%edi, %ebx
.Ltmp230:
	#DEBUG_VALUE: main:_63_has_ownership <- 0
	#DEBUG_VALUE: main:_63_size <- 0
	#DEBUG_VALUE: main:_60 <- 0
	#DEBUG_VALUE: main:_59 <- 0
	#DEBUG_VALUE: main:_58 <- 0
	#DEBUG_VALUE: main:_57 <- 0
	#DEBUG_VALUE: main:_56 <- 0
	#DEBUG_VALUE: main:_55 <- 0
	#DEBUG_VALUE: main:_54 <- 0
	#DEBUG_VALUE: main:_53_has_ownership <- 0
	#DEBUG_VALUE: main:_53_size <- 0
	#DEBUG_VALUE: main:_50_has_ownership <- 0
	#DEBUG_VALUE: main:_50_size <- 0
	#DEBUG_VALUE: main:_47 <- 0
	#DEBUG_VALUE: main:_46 <- 0
	#DEBUG_VALUE: main:_45 <- 0
	#DEBUG_VALUE: main:_44 <- 0
	#DEBUG_VALUE: main:_43 <- 0
	#DEBUG_VALUE: main:_42 <- 0
	#DEBUG_VALUE: main:_41 <- 0
	#DEBUG_VALUE: main:_40 <- 0
	#DEBUG_VALUE: main:_39_has_ownership <- 0
	#DEBUG_VALUE: main:_39_size <- 0
	#DEBUG_VALUE: main:_38 <- 0
	#DEBUG_VALUE: main:_37 <- 0
	#DEBUG_VALUE: main:_36 <- 0
	#DEBUG_VALUE: main:_35 <- 0
	#DEBUG_VALUE: main:_34 <- 0
	#DEBUG_VALUE: main:_33 <- 0
	#DEBUG_VALUE: main:_32 <- 0
	#DEBUG_VALUE: main:_31 <- 0
	#DEBUG_VALUE: main:_30 <- 0
	#DEBUG_VALUE: main:_29 <- 0
	#DEBUG_VALUE: main:_28_has_ownership <- 0
	#DEBUG_VALUE: main:_28_size <- 0
	#DEBUG_VALUE: main:_27 <- 0
	#DEBUG_VALUE: main:_26 <- 0
	#DEBUG_VALUE: main:_25 <- 0
	#DEBUG_VALUE: main:_24 <- 0
	#DEBUG_VALUE: main:_23 <- 0
	#DEBUG_VALUE: main:_22 <- 0
	#DEBUG_VALUE: main:_21 <- 0
	#DEBUG_VALUE: main:_20 <- 0
	#DEBUG_VALUE: main:_19 <- 0
	#DEBUG_VALUE: main:_18_has_ownership <- 0
	#DEBUG_VALUE: main:_18_size <- 0
	#DEBUG_VALUE: main:_17_has_ownership <- 0
	#DEBUG_VALUE: main:_16_has_ownership <- 0
	#DEBUG_VALUE: main:_15_has_ownership <- 0
	#DEBUG_VALUE: main:_12_has_ownership <- 0
	#DEBUG_VALUE: main:_12_size <- 0
	#DEBUG_VALUE: main:_9_has_ownership <- 0
	#DEBUG_VALUE: main:_9_size <- 0
	#DEBUG_VALUE: main:_8 <- 0
	#DEBUG_VALUE: main:_7_has_ownership <- 0
	#DEBUG_VALUE: main:_7_size_size <- 0
	#DEBUG_VALUE: main:_7_size <- 0
	#DEBUG_VALUE: main:C_has_ownership <- 0
	#DEBUG_VALUE: main:B_has_ownership <- 0
	#DEBUG_VALUE: main:A_has_ownership <- 0
	#DEBUG_VALUE: main:size <- 0
	#DEBUG_VALUE: main:argc <- %EBX
	.loc	1 613 2 prologue_end    # MatrixMult.c:613:2
	callq	convertArgsToIntArray
.Ltmp231:
	movq	%rax, %rbp
.Ltmp232:
	#DEBUG_VALUE: main:_7 <- %RBP
	decl	%ebx
.Ltmp233:
	movslq	%ebx, %rbx
.Ltmp234:
	#DEBUG_VALUE: main:_7_has_ownership <- 1
	#DEBUG_VALUE: main:_7_size <- %EBX
	.loc	1 618 5                 # MatrixMult.c:618:5
	movq	(%rbp), %rdi
.Ltmp235:
	#DEBUG_VALUE: main:_9 <- %RDI
	.loc	1 620 2                 # MatrixMult.c:620:2
	callq	parseStringToInt
.Ltmp236:
	#DEBUG_VALUE: main:max <- %RAX
	#DEBUG_VALUE: main:_6 <- %RAX
	.loc	1 624 9                 # MatrixMult.c:624:9
	testq	%rax, %rax
	jne	.LBB7_1
.Ltmp237:
# BB#12:                                # %if.end196
	#DEBUG_VALUE: main:_6 <- %RAX
	#DEBUG_VALUE: main:max <- %RAX
	#DEBUG_VALUE: main:_7_size <- %EBX
	#DEBUG_VALUE: main:_7 <- %RBP
	.loc	1 818 2 discriminator 1 # MatrixMult.c:818:2
	movq	%rbp, %rdi
	movq	%rbx, %rsi
	callq	free2DArray
.Ltmp238:
	#DEBUG_VALUE: main:_7_has_ownership <- 0
	.loc	1 830 2                 # MatrixMult.c:830:2
	xorl	%edi, %edi
	callq	exit
.Ltmp239:
.LBB7_1:                                # %if.end
	#DEBUG_VALUE: main:_6 <- %RAX
	#DEBUG_VALUE: main:max <- %RAX
	#DEBUG_VALUE: main:_7_size <- %EBX
	#DEBUG_VALUE: main:_7 <- %RBP
	movq	%rbp, 56(%rsp)          # 8-byte Spill
	movq	%rbx, 64(%rsp)          # 8-byte Spill
	.loc	1 626 9                 # MatrixMult.c:626:9
	movq	(%rax), %rbp
.Ltmp240:
	#DEBUG_VALUE: main:_12_size <- 7
	#DEBUG_VALUE: main:size <- %RBP
	.loc	1 631 2                 # MatrixMult.c:631:2
	movl	$56, %edi
	callq	malloc
.Ltmp241:
	movq	%rax, %r14
.Ltmp242:
	#DEBUG_VALUE: main:_12 <- %R14
	.loc	1 632 9                 # MatrixMult.c:632:9
	movaps	.LCPI7_0(%rip), %xmm0   # xmm0 = [115,105]
	movups	%xmm0, (%r14)
	.loc	1 632 37 is_stmt 0      # MatrixMult.c:632:37
	movaps	.LCPI7_1(%rip), %xmm0   # xmm0 = [122,101]
	movups	%xmm0, 16(%r14)
	.loc	1 632 65                # MatrixMult.c:632:65
	movaps	.LCPI7_2(%rip), %xmm0   # xmm0 = [32,61]
	movups	%xmm0, 32(%r14)
	.loc	1 632 91                # MatrixMult.c:632:91
	movq	$32, 48(%r14)
.Ltmp243:
	#DEBUG_VALUE: main:_12_has_ownership <- 1
	.loc	1 635 2 is_stmt 1       # MatrixMult.c:635:2
	movl	$7, %esi
	movq	%r14, %rdi
	callq	printf_s
	.loc	1 639 2                 # MatrixMult.c:639:2
	movl	$.L.str.6, %edi
	xorl	%eax, %eax
	movq	%rbp, %rsi
	callq	printf
	.loc	1 642 8                 # MatrixMult.c:642:8
	movq	%rbp, %rdi
	movq	%rbp, %rsi
	callq	init
	movq	%rax, %r12
.Ltmp244:
	#DEBUG_VALUE: main:A <- %R12
	#DEBUG_VALUE: main:_15 <- %R12
	#DEBUG_VALUE: main:_15_has_ownership <- 0
	#DEBUG_VALUE: main:A_has_ownership <- 1
	.loc	1 651 8                 # MatrixMult.c:651:8
	movq	%rbp, %rdi
	movq	%rbp, %rsi
	callq	init
	movq	%rax, %r15
.Ltmp245:
	#DEBUG_VALUE: main:B <- %R15
	#DEBUG_VALUE: main:_16 <- %R15
	#DEBUG_VALUE: main:_16_has_ownership <- 0
	#DEBUG_VALUE: main:B_has_ownership <- 1
	.loc	1 662 8                 # MatrixMult.c:662:8
	xorl	%esi, %esi
	xorl	%ecx, %ecx
	movq	%r12, %rdi
	movq	%r15, %rdx
	callq	mat_mult
	movq	%rax, %r13
.Ltmp246:
	#DEBUG_VALUE: main:C <- %R13
	#DEBUG_VALUE: main:_17 <- %R13
	#DEBUG_VALUE: main:_17_has_ownership <- 0
	#DEBUG_VALUE: main:C_has_ownership <- 1
	.loc	1 673 3                 # MatrixMult.c:673:3
	movq	(%r12), %rdi
	movq	8(%r12), %rsi
	callq	copy
.Ltmp247:
	#DEBUG_VALUE: main:_18 <- %RAX
	#DEBUG_VALUE: main:_19 <- 1
	#DEBUG_VALUE: main:_18_has_ownership <- 1
	.loc	1 678 11                # MatrixMult.c:678:11
	leaq	-1(%rbp), %rbx
.Ltmp248:
	#DEBUG_VALUE: main:_55 <- %RBX
	#DEBUG_VALUE: main:_41 <- %RBX
	#DEBUG_VALUE: main:_37 <- %RBX
	#DEBUG_VALUE: main:_30 <- %RBX
	#DEBUG_VALUE: main:_27 <- %RBX
	#DEBUG_VALUE: main:_20 <- %RBX
	.loc	1 682 10                # MatrixMult.c:682:10
	movq	%rbp, %rcx
	imulq	%rcx, %rcx
.Ltmp249:
	#DEBUG_VALUE: main:_57 <- %RCX
	#DEBUG_VALUE: main:_43 <- %RCX
	#DEBUG_VALUE: main:_32 <- %RCX
	#DEBUG_VALUE: main:_26 <- 1
	#DEBUG_VALUE: main:_23 <- 1
	#DEBUG_VALUE: main:_22 <- %RCX
	.loc	1 694 9                 # MatrixMult.c:694:9
	cmpq	%rbx, -8(%rax,%rcx,8)
	jne	.LBB7_11
.Ltmp250:
# BB#2:                                 # %if.end51
	#DEBUG_VALUE: main:_22 <- %RCX
	#DEBUG_VALUE: main:_32 <- %RCX
	#DEBUG_VALUE: main:_43 <- %RCX
	#DEBUG_VALUE: main:_57 <- %RCX
	#DEBUG_VALUE: main:_20 <- %RBX
	#DEBUG_VALUE: main:_27 <- %RBX
	#DEBUG_VALUE: main:_30 <- %RBX
	#DEBUG_VALUE: main:_37 <- %RBX
	#DEBUG_VALUE: main:_41 <- %RBX
	#DEBUG_VALUE: main:_55 <- %RBX
	#DEBUG_VALUE: main:_18 <- %RAX
	#DEBUG_VALUE: main:_17 <- %R13
	#DEBUG_VALUE: main:C <- %R13
	#DEBUG_VALUE: main:_16 <- %R15
	#DEBUG_VALUE: main:B <- %R15
	#DEBUG_VALUE: main:_15 <- %R12
	#DEBUG_VALUE: main:A <- %R12
	#DEBUG_VALUE: main:_12 <- %R14
	#DEBUG_VALUE: main:size <- %RBP
	movq	%r12, 32(%rsp)          # 8-byte Spill
	movq	%r14, 40(%rsp)          # 8-byte Spill
	movq	%rax, 48(%rsp)          # 8-byte Spill
.Ltmp251:
	.loc	1 706 3                 # MatrixMult.c:706:3
	movq	(%r15), %rdi
	movq	8(%r15), %rsi
	movq	%rcx, %r14
.Ltmp252:
	callq	copy
.Ltmp253:
	movq	%r14, %rcx
	movq	%rax, %r14
.Ltmp254:
	#DEBUG_VALUE: main:_28 <- %R14
	#DEBUG_VALUE: main:_36 <- 1
	#DEBUG_VALUE: main:_33 <- 1
	#DEBUG_VALUE: main:_29 <- 1
	#DEBUG_VALUE: main:_28_has_ownership <- 1
	.loc	1 727 9                 # MatrixMult.c:727:9
	cmpq	%rbx, -8(%r14,%rcx,8)
	jne	.LBB7_11
.Ltmp255:
# BB#3:                                 # %blklab25
	#DEBUG_VALUE: main:size <- %RBP
	#DEBUG_VALUE: main:A <- %R12
	#DEBUG_VALUE: main:_15 <- %R12
	#DEBUG_VALUE: main:B <- %R15
	#DEBUG_VALUE: main:_16 <- %R15
	#DEBUG_VALUE: main:C <- %R13
	#DEBUG_VALUE: main:_17 <- %R13
	#DEBUG_VALUE: main:_55 <- %RBX
	#DEBUG_VALUE: main:_41 <- %RBX
	#DEBUG_VALUE: main:_37 <- %RBX
	#DEBUG_VALUE: main:_30 <- %RBX
	#DEBUG_VALUE: main:_27 <- %RBX
	#DEBUG_VALUE: main:_20 <- %RBX
	#DEBUG_VALUE: main:_28 <- %R14
	#DEBUG_VALUE: main:_38 <- 2000
	movq	%r15, 24(%rsp)          # 8-byte Spill
.Ltmp256:
	.loc	1 738 9                 # MatrixMult.c:738:9
	cmpq	$2000, %rbp             # imm = 0x7D0
	jne	.LBB7_4
.Ltmp257:
# BB#5:                                 # %if.end73
	#DEBUG_VALUE: main:_28 <- %R14
	#DEBUG_VALUE: main:_20 <- %RBX
	#DEBUG_VALUE: main:_27 <- %RBX
	#DEBUG_VALUE: main:_30 <- %RBX
	#DEBUG_VALUE: main:_37 <- %RBX
	#DEBUG_VALUE: main:_41 <- %RBX
	#DEBUG_VALUE: main:_55 <- %RBX
	#DEBUG_VALUE: main:_17 <- %R13
	#DEBUG_VALUE: main:C <- %R13
	#DEBUG_VALUE: main:_16 <- %R15
	#DEBUG_VALUE: main:B <- %R15
	#DEBUG_VALUE: main:_15 <- %R12
	#DEBUG_VALUE: main:A <- %R12
	#DEBUG_VALUE: main:size <- %RBP
	.loc	1 743 3                 # MatrixMult.c:743:3
	movq	(%r13), %rdi
	movq	8(%r13), %rbp
.Ltmp258:
	movq	%rdi, %r12
.Ltmp259:
	movq	%rbp, %rsi
	movq	%rcx, %rbx
.Ltmp260:
	callq	copy
.Ltmp261:
	#DEBUG_VALUE: main:_39 <- %RAX
	#DEBUG_VALUE: main:_47 <- 3996001000
	#DEBUG_VALUE: main:_44 <- 1
	#DEBUG_VALUE: main:_40 <- 1
	#DEBUG_VALUE: main:_39_has_ownership <- 1
	.loc	1 762 9                 # MatrixMult.c:762:9
	movl	$3996001000, %ecx       # imm = 0xEE2E22E8
	cmpq	%rcx, -8(%rax,%rbx,8)
	jne	.LBB7_11
.Ltmp262:
# BB#6:
	#DEBUG_VALUE: main:B <- %R15
	#DEBUG_VALUE: main:_16 <- %R15
	#DEBUG_VALUE: main:C <- %R13
	#DEBUG_VALUE: main:_17 <- %R13
	#DEBUG_VALUE: main:_28 <- %R14
	#DEBUG_VALUE: main:_39 <- %RAX
	movq	%rbx, %r15
.Ltmp263:
	movq	%r14, 16(%rsp)          # 8-byte Spill
	movq	%r13, %rbx
	movl	$0, 4(%rsp)             # 4-byte Folded Spill
	movq	%rax, 8(%rsp)           # 8-byte Spill
	movq	%r12, %r14
.Ltmp264:
	jmp	.LBB7_7
.Ltmp265:
.LBB7_11:                               # %if.end47
	#DEBUG_VALUE: main:_17 <- %R13
	#DEBUG_VALUE: main:C <- %R13
	#DEBUG_VALUE: main:_16 <- %R15
	#DEBUG_VALUE: main:B <- %R15
	.loc	1 696 11                # MatrixMult.c:696:11
	movq	stderr(%rip), %rcx
	.loc	1 696 3 is_stmt 0       # MatrixMult.c:696:3
	movl	$.L.str.7, %edi
	movl	$4, %esi
	movl	$1, %edx
	callq	fwrite
	.loc	1 697 3 is_stmt 1       # MatrixMult.c:697:3
	movl	$-1, %edi
	callq	exit
.Ltmp266:
.LBB7_4:                                # %blklab25.if.end193_crit_edge
	#DEBUG_VALUE: main:_28 <- %R14
	#DEBUG_VALUE: main:_20 <- %RBX
	#DEBUG_VALUE: main:_27 <- %RBX
	#DEBUG_VALUE: main:_30 <- %RBX
	#DEBUG_VALUE: main:_37 <- %RBX
	#DEBUG_VALUE: main:_41 <- %RBX
	#DEBUG_VALUE: main:_55 <- %RBX
	#DEBUG_VALUE: main:_17 <- %R13
	#DEBUG_VALUE: main:C <- %R13
	#DEBUG_VALUE: main:_16 <- %R15
	#DEBUG_VALUE: main:B <- %R15
	#DEBUG_VALUE: main:_15 <- %R12
	#DEBUG_VALUE: main:A <- %R12
	#DEBUG_VALUE: main:size <- %RBP
	movq	%rcx, %r15
.Ltmp267:
	movq	%r14, 16(%rsp)          # 8-byte Spill
	movq	%r13, %rbx
.Ltmp268:
	.loc	1 785 2                 # MatrixMult.c:785:2
	movq	(%rbx), %r14
.Ltmp269:
	movq	8(%rbx), %rbp
.Ltmp270:
	movb	$1, %al
	movl	%eax, 4(%rsp)           # 4-byte Spill
	xorl	%eax, %eax
	.loc	1 738 5                 # MatrixMult.c:738:5
	movq	%rax, 8(%rsp)           # 8-byte Spill
.Ltmp271:
.LBB7_7:                                # %if.end193
	#DEBUG_VALUE: main:C <- %R13
	#DEBUG_VALUE: main:_17 <- %R13
	#DEBUG_VALUE: main:_50_size <- 27
	.loc	1 776 2                 # MatrixMult.c:776:2
	movl	$216, %edi
	callq	malloc
	movq	%rax, %r12
.Ltmp272:
	#DEBUG_VALUE: main:_50 <- %R12
	.loc	1 777 9                 # MatrixMult.c:777:9
	movaps	.LCPI7_3(%rip), %xmm0   # xmm0 = [77,97]
	movups	%xmm0, (%r12)
	.loc	1 777 35 is_stmt 0      # MatrixMult.c:777:35
	movaps	.LCPI7_4(%rip), %xmm0   # xmm0 = [116,114]
	movups	%xmm0, 16(%r12)
	.loc	1 777 63                # MatrixMult.c:777:63
	movaps	.LCPI7_5(%rip), %xmm0   # xmm0 = [105,120]
	movups	%xmm0, 32(%r12)
	.loc	1 777 91                # MatrixMult.c:777:91
	movaps	.LCPI7_6(%rip), %xmm0   # xmm0 = [32,67]
	movups	%xmm0, 48(%r12)
	.loc	1 777 117               # MatrixMult.c:777:117
	movaps	.LCPI7_7(%rip), %xmm0   # xmm0 = [91,115]
	movups	%xmm0, 64(%r12)
	.loc	1 777 145               # MatrixMult.c:777:145
	movaps	.LCPI7_8(%rip), %xmm1   # xmm1 = [105,122]
	movups	%xmm1, 80(%r12)
	.loc	1 777 175               # MatrixMult.c:777:175
	movaps	.LCPI7_9(%rip), %xmm2   # xmm2 = [101,45]
	movups	%xmm2, 96(%r12)
	.loc	1 777 204               # MatrixMult.c:777:204
	movaps	.LCPI7_10(%rip), %xmm3  # xmm3 = [49,93]
	movups	%xmm3, 112(%r12)
	.loc	1 777 232               # MatrixMult.c:777:232
	movups	%xmm0, 128(%r12)
	.loc	1 777 261               # MatrixMult.c:777:261
	movups	%xmm1, 144(%r12)
	.loc	1 777 291               # MatrixMult.c:777:291
	movups	%xmm2, 160(%r12)
	.loc	1 777 320               # MatrixMult.c:777:320
	movups	%xmm3, 176(%r12)
	.loc	1 632 65 is_stmt 1      # MatrixMult.c:632:65
	movaps	.LCPI7_2(%rip), %xmm0   # xmm0 = [32,61]
	.loc	1 777 348               # MatrixMult.c:777:348
	movups	%xmm0, 192(%r12)
	.loc	1 777 376 is_stmt 0     # MatrixMult.c:777:376
	movq	$32, 208(%r12)
.Ltmp273:
	#DEBUG_VALUE: main:_50_has_ownership <- 1
	.loc	1 780 2 is_stmt 1       # MatrixMult.c:780:2
	movl	$27, %esi
	movq	%r12, %rdi
	callq	printf_s
	.loc	1 785 2                 # MatrixMult.c:785:2
	movq	%r14, %rdi
	movq	%rbp, %rsi
	callq	copy
	movq	%rax, %r13
.Ltmp274:
	#DEBUG_VALUE: main:_53 <- %R13
	#DEBUG_VALUE: main:_58 <- 1
	#DEBUG_VALUE: main:_54 <- 1
	#DEBUG_VALUE: main:_53_has_ownership <- 1
	.loc	1 800 6                 # MatrixMult.c:800:6
	movq	-8(%r13,%r15,8), %rsi
.Ltmp275:
	#DEBUG_VALUE: main:_60 <- %RSI
	.loc	1 802 2                 # MatrixMult.c:802:2
	movl	$.L.str.6, %edi
	xorl	%eax, %eax
	callq	printf
.Ltmp276:
	#DEBUG_VALUE: main:_63_size <- 25
	.loc	1 807 2                 # MatrixMult.c:807:2
	movl	$200, %edi
	callq	malloc
	movq	%rax, %r14
.Ltmp277:
	#DEBUG_VALUE: main:_63 <- %R14
	.loc	1 808 9                 # MatrixMult.c:808:9
	movaps	.LCPI7_11(%rip), %xmm0  # xmm0 = [80,97]
	movups	%xmm0, (%r14)
	.loc	1 808 35 is_stmt 0      # MatrixMult.c:808:35
	movaps	.LCPI7_12(%rip), %xmm0  # xmm0 = [115,115]
	movups	%xmm0, 16(%r14)
	.loc	1 808 63                # MatrixMult.c:808:63
	movaps	.LCPI7_13(%rip), %xmm0  # xmm0 = [32,77]
	movups	%xmm0, 32(%r14)
	.loc	1 808 89                # MatrixMult.c:808:89
	movaps	.LCPI7_14(%rip), %xmm0  # xmm0 = [97,116]
	movups	%xmm0, 48(%r14)
	.loc	1 808 116               # MatrixMult.c:808:116
	movaps	.LCPI7_15(%rip), %xmm0  # xmm0 = [114,105]
	movups	%xmm0, 64(%r14)
	.loc	1 808 145               # MatrixMult.c:808:145
	movaps	.LCPI7_16(%rip), %xmm0  # xmm0 = [120,77]
	movups	%xmm0, 80(%r14)
	.loc	1 808 174               # MatrixMult.c:808:174
	movaps	.LCPI7_17(%rip), %xmm0  # xmm0 = [117,108]
	movups	%xmm0, 96(%r14)
	.loc	1 808 204               # MatrixMult.c:808:204
	movaps	.LCPI7_18(%rip), %xmm0  # xmm0 = [116,32]
	movups	%xmm0, 112(%r14)
	.loc	1 808 233               # MatrixMult.c:808:233
	movaps	.LCPI7_19(%rip), %xmm0  # xmm0 = [116,101]
	movups	%xmm0, 128(%r14)
	.loc	1 808 263               # MatrixMult.c:808:263
	movaps	.LCPI7_20(%rip), %xmm0  # xmm0 = [115,116]
	movups	%xmm0, 144(%r14)
	.loc	1 808 293               # MatrixMult.c:808:293
	movaps	.LCPI7_21(%rip), %xmm0  # xmm0 = [32,99]
	movups	%xmm0, 160(%r14)
	.loc	1 808 321               # MatrixMult.c:808:321
	movaps	.LCPI7_22(%rip), %xmm0  # xmm0 = [97,115]
	movups	%xmm0, 176(%r14)
	.loc	1 808 350               # MatrixMult.c:808:350
	movq	$101, 192(%r14)
.Ltmp278:
	#DEBUG_VALUE: main:_63_has_ownership <- 1
	.loc	1 811 2 is_stmt 1       # MatrixMult.c:811:2
	movl	$25, %esi
	movq	%r14, %rdi
	callq	println_s
	movq	32(%rsp), %rbp          # 8-byte Reload
.Ltmp279:
	.loc	1 10 15                 # MatrixMult.c:10:15
	movq	(%rbp), %rdi
	.loc	1 10 2 is_stmt 0        # MatrixMult.c:10:2
	callq	free
	.loc	1 11 2 is_stmt 1        # MatrixMult.c:11:2
	movq	%rbp, %rdi
	callq	free
.Ltmp280:
	#DEBUG_VALUE: main:A_has_ownership <- 0
	movq	24(%rsp), %rbp          # 8-byte Reload
.Ltmp281:
	.loc	1 10 15                 # MatrixMult.c:10:15
	movq	(%rbp), %rdi
	.loc	1 10 2 is_stmt 0        # MatrixMult.c:10:2
	callq	free
	.loc	1 11 2 is_stmt 1        # MatrixMult.c:11:2
	movq	%rbp, %rdi
	callq	free
.Ltmp282:
	#DEBUG_VALUE: main:B_has_ownership <- 0
	.loc	1 10 15                 # MatrixMult.c:10:15
	movq	(%rbx), %rdi
	.loc	1 10 2 is_stmt 0        # MatrixMult.c:10:2
	callq	free
	.loc	1 11 2 is_stmt 1        # MatrixMult.c:11:2
	movq	%rbx, %rdi
	callq	free
.Ltmp283:
	#DEBUG_VALUE: main:C_has_ownership <- 0
	.loc	1 818 2 discriminator 1 # MatrixMult.c:818:2
	movq	56(%rsp), %rdi          # 8-byte Reload
	movq	64(%rsp), %rsi          # 8-byte Reload
	callq	free2DArray
.Ltmp284:
	#DEBUG_VALUE: main:_7_has_ownership <- 0
	.loc	1 820 2 discriminator 1 # MatrixMult.c:820:2
	movq	40(%rsp), %rdi          # 8-byte Reload
	callq	free
.Ltmp285:
	#DEBUG_VALUE: main:_12_has_ownership <- 0
	.loc	1 824 2 discriminator 1 # MatrixMult.c:824:2
	movq	48(%rsp), %rdi          # 8-byte Reload
	callq	free
.Ltmp286:
	#DEBUG_VALUE: main:_18_has_ownership <- 0
	.loc	1 825 2 discriminator 1 # MatrixMult.c:825:2
	movq	16(%rsp), %rdi          # 8-byte Reload
	callq	free
.Ltmp287:
	#DEBUG_VALUE: main:_28_has_ownership <- 0
	.loc	1 826 2                 # MatrixMult.c:826:2
	movl	4(%rsp), %eax           # 4-byte Reload
	testb	%al, %al
	jne	.LBB7_9
.Ltmp288:
# BB#8:                                 # %if.then195
	#DEBUG_VALUE: main:_63 <- %R14
	#DEBUG_VALUE: main:_53 <- %R13
	#DEBUG_VALUE: main:_50 <- %R12
	.loc	1 826 2 is_stmt 0 discriminator 1 # MatrixMult.c:826:2
	movq	8(%rsp), %rdi           # 8-byte Reload
	callq	free
.Ltmp289:
	#DEBUG_VALUE: main:_39_has_ownership <- 0
.LBB7_9:                                # %if.then198
	#DEBUG_VALUE: main:_63 <- %R14
	#DEBUG_VALUE: main:_53 <- %R13
	#DEBUG_VALUE: main:_50 <- %R12
	.loc	1 827 2 is_stmt 1 discriminator 1 # MatrixMult.c:827:2
	movq	%r12, %rdi
	callq	free
.Ltmp290:
	#DEBUG_VALUE: main:_50_has_ownership <- 0
	.loc	1 828 2 discriminator 1 # MatrixMult.c:828:2
	movq	%r13, %rdi
	callq	free
.Ltmp291:
	#DEBUG_VALUE: main:_53_has_ownership <- 0
	.loc	1 829 2 discriminator 1 # MatrixMult.c:829:2
	movq	%r14, %rdi
	callq	free
.Ltmp292:
	#DEBUG_VALUE: main:_63_has_ownership <- 0
	.loc	1 830 2                 # MatrixMult.c:830:2
	xorl	%edi, %edi
	callq	exit
.Ltmp293:
.Lfunc_end7:
	.size	main, .Lfunc_end7-main
	.cfi_endproc

	.type	.L.str.1,@object        # @.str.1
	.section	.rodata.str1.1,"aMS",@progbits,1
.L.str.1:
	.asciz	" data:"
	.size	.L.str.1, 7

	.type	.L.str.2,@object        # @.str.2
.L.str.2:
	.asciz	" width:"
	.size	.L.str.2, 8

	.type	.L.str.3,@object        # @.str.3
.L.str.3:
	.asciz	"%lld"
	.size	.L.str.3, 5

	.type	.L.str.4,@object        # @.str.4
.L.str.4:
	.asciz	" height:"
	.size	.L.str.4, 9

	.type	.L.str.6,@object        # @.str.6
.L.str.6:
	.asciz	"%lld\n"
	.size	.L.str.6, 6

	.type	.L.str.7,@object        # @.str.7
.L.str.7:
	.asciz	"fail"
	.size	.L.str.7, 5

	.file	3 "/usr/include/libio.h"
	.file	4 "/usr/include/x86_64-linux-gnu/bits/types.h"
	.file	5 "/home/sam/polly/llvm_build/bin/../lib/clang/3.9.0/include/stddef.h"
	.file	6 "/usr/include/stdio.h"
	.section	".note.GNU-stack","",@progbits