	.text
	.file	"llvm/GCD.openmp.enablevc.ll"
	.globl	gcd
	.p2align	4, 0x90
	.type	gcd,@function
gcd:                                    # @gcd
.Lfunc_begin0:
	.file	1 "GCD.c"
	.loc	1 2 0                   # GCD.c:2:0
	.cfi_startproc
# BB#0:                                 # %entry
	#DEBUG_VALUE: gcd:a <- %RDI
	#DEBUG_VALUE: gcd:b <- %RSI
	#DEBUG_VALUE: gcd:_2 <- 0
	#DEBUG_VALUE: gcd:_3 <- 0
	#DEBUG_VALUE: gcd:_4 <- 0
	#DEBUG_VALUE: gcd:_5 <- 0
	#DEBUG_VALUE: gcd:_6 <- 0
	#DEBUG_VALUE: gcd:_7 <- 0
	.loc	1 12 6 prologue_end     # GCD.c:12:6
	testq	%rdi, %rdi
	je	.LBB0_1
.Ltmp0:
# BB#2:                                 # %while.cond.preheader
	#DEBUG_VALUE: gcd:b <- %RSI
	#DEBUG_VALUE: gcd:a <- %RDI
	#DEBUG_VALUE: gcd:_4 <- 0
	js	.LBB0_6
.Ltmp1:
# BB#3:                                 # %blklab4.lr.ph.preheader
	#DEBUG_VALUE: gcd:a <- %RDI
	#DEBUG_VALUE: gcd:b <- %RSI
	.loc	1 35 7                  # GCD.c:35:7
	testq	%rsi, %rsi
	je	.LBB0_8
.Ltmp2:
	.p2align	4, 0x90
.LBB0_4:                                # %blklab4
                                        # =>This Inner Loop Header: Depth=1
	#DEBUG_VALUE: gcd:_5 <- 0
	.loc	1 37 6                  # GCD.c:37:6
	movq	%rdi, %rax
	subq	%rsi, %rax
	jle	.LBB0_7
# BB#5:                                 # %if.end9
                                        #   in Loop: Header=BB0_4 Depth=1
	#DEBUG_VALUE: gcd:_4 <- 0
	movq	%rax, %rdi
	jns	.LBB0_4
	jmp	.LBB0_6
.LBB0_7:                                # %blklab5
                                        #   in Loop: Header=BB0_4 Depth=1
	#DEBUG_VALUE: gcd:_4 <- 0
	.loc	1 35 6                  # GCD.c:35:6
	subq	%rdi, %rsi
	jne	.LBB0_4
.Ltmp3:
.LBB0_8:                                # %cleanup
	.loc	1 60 1                  # GCD.c:60:1
	movq	%rdi, %rax
	retq
.LBB0_1:
.Ltmp4:
	#DEBUG_VALUE: gcd:b <- %RSI
	#DEBUG_VALUE: gcd:a <- %RDI
	movq	%rsi, %rdi
.Ltmp5:
	movq	%rdi, %rax
	retq
.Ltmp6:
.LBB0_6:                                # %if.end3
	.loc	1 26 12                 # GCD.c:26:12
	pushq	%rax
.Ltmp7:
	.cfi_def_cfa_offset 16
	movq	stderr(%rip), %rcx
	.loc	1 26 4 is_stmt 0        # GCD.c:26:4
	movl	$.L.str, %edi
	movl	$4, %esi
	movl	$1, %edx
	callq	fwrite
	.loc	1 27 4 is_stmt 1        # GCD.c:27:4
	movl	$-1, %edi
	callq	exit
.Ltmp8:
.Lfunc_end0:
	.size	gcd, .Lfunc_end0-gcd
	.cfi_endproc

	.section	.rodata.cst16,"aM",@progbits,16
	.p2align	4
.LCPI1_0:
	.quad	78                      # 0x4e
	.quad	32                      # 0x20
.LCPI1_1:
	.quad	61                      # 0x3d
	.quad	32                      # 0x20
.LCPI1_2:
	.quad	83                      # 0x53
	.quad	117                     # 0x75
.LCPI1_3:
	.quad	109                     # 0x6d
	.quad	58                      # 0x3a
.LCPI1_4:
	.quad	80                      # 0x50
	.quad	97                      # 0x61
.LCPI1_5:
	.quad	115                     # 0x73
	.quad	115                     # 0x73
.LCPI1_6:
	.quad	32                      # 0x20
	.quad	69                      # 0x45
.LCPI1_7:
	.quad	117                     # 0x75
	.quad	99                      # 0x63
.LCPI1_8:
	.quad	108                     # 0x6c
	.quad	105                     # 0x69
.LCPI1_9:
	.quad	100                     # 0x64
	.quad	32                      # 0x20
.LCPI1_10:
	.quad	71                      # 0x47
	.quad	67                      # 0x43
.LCPI1_11:
	.quad	68                      # 0x44
	.quad	32                      # 0x20
.LCPI1_12:
	.quad	116                     # 0x74
	.quad	101                     # 0x65
.LCPI1_13:
	.quad	115                     # 0x73
	.quad	116                     # 0x74
.LCPI1_14:
	.quad	32                      # 0x20
	.quad	99                      # 0x63
.LCPI1_15:
	.quad	97                      # 0x61
	.quad	115                     # 0x73
	.text
	.globl	main
	.p2align	4, 0x90
	.type	main,@function
main:                                   # @main
.Lfunc_begin1:
	.loc	1 62 0                  # GCD.c:62:0
	.cfi_startproc
# BB#0:                                 # %entry
	.loc	1 90 2 prologue_end     # GCD.c:90:2
	pushq	%r14
.Ltmp9:
	.cfi_def_cfa_offset 16
	pushq	%rbx
.Ltmp10:
	.cfi_def_cfa_offset 24
	pushq	%rax
.Ltmp11:
	.cfi_def_cfa_offset 32
.Ltmp12:
	.cfi_offset %rbx, -24
.Ltmp13:
	.cfi_offset %r14, -16
	#DEBUG_VALUE: main:argc <- %EDI
	#DEBUG_VALUE: main:args <- %RSI
.Ltmp14:
	#DEBUG_VALUE: main:n <- 0
	#DEBUG_VALUE: main:sum <- 0
	#DEBUG_VALUE: main:i <- 0
	#DEBUG_VALUE: main:j <- 0
	#DEBUG_VALUE: main:_7_size <- 0
	#DEBUG_VALUE: main:_7_size_size <- 0
	#DEBUG_VALUE: main:_8 <- 0
	#DEBUG_VALUE: main:_9_size <- 0
	#DEBUG_VALUE: main:_12_size <- 0
	#DEBUG_VALUE: main:_15 <- 0
	#DEBUG_VALUE: main:_16 <- 0
	#DEBUG_VALUE: main:_17 <- 0
	#DEBUG_VALUE: main:_18 <- 0
	#DEBUG_VALUE: main:_19 <- 0
	#DEBUG_VALUE: main:_20 <- 0
	#DEBUG_VALUE: main:_21 <- 0
	#DEBUG_VALUE: main:_22 <- 0
	#DEBUG_VALUE: main:_23 <- 0
	#DEBUG_VALUE: main:_26_size <- 0
	#DEBUG_VALUE: main:_31_size <- 0
	callq	convertArgsToIntArray
.Ltmp15:
	#DEBUG_VALUE: main:_7 <- %RAX
	.loc	1 94 5                  # GCD.c:94:5
	movq	(%rax), %rdi
.Ltmp16:
	#DEBUG_VALUE: main:_9 <- %RDI
	.loc	1 96 2                  # GCD.c:96:2
	callq	parseStringToInt
.Ltmp17:
	#DEBUG_VALUE: main:max <- %RAX
	#DEBUG_VALUE: main:_6 <- %RAX
	.loc	1 100 9                 # GCD.c:100:9
	testq	%rax, %rax
	je	.LBB1_12
.Ltmp18:
# BB#1:                                 # %if.end
	#DEBUG_VALUE: main:_6 <- %RAX
	#DEBUG_VALUE: main:max <- %RAX
	.loc	1 102 6                 # GCD.c:102:6
	movq	(%rax), %r14
.Ltmp19:
	#DEBUG_VALUE: main:_12_size <- 4
	#DEBUG_VALUE: main:n <- %R14
	.loc	1 106 2                 # GCD.c:106:2
	movl	$32, %edi
	callq	malloc
.Ltmp20:
	#DEBUG_VALUE: main:_12 <- %RAX
	.loc	1 107 9                 # GCD.c:107:9
	movaps	.LCPI1_0(%rip), %xmm0   # xmm0 = [78,32]
	movups	%xmm0, (%rax)
	.loc	1 107 35 is_stmt 0      # GCD.c:107:35
	movaps	.LCPI1_1(%rip), %xmm0   # xmm0 = [61,32]
	movups	%xmm0, 16(%rax)
	.loc	1 109 2 is_stmt 1       # GCD.c:109:2
	movl	$4, %esi
	movq	%rax, %rdi
	callq	printf_s
.Ltmp21:
	.loc	1 113 2                 # GCD.c:113:2
	xorl	%ebx, %ebx
	movl	$.L.str.1, %edi
	xorl	%eax, %eax
	movq	%r14, %rsi
	callq	printf
	#DEBUG_VALUE: main:_16 <- 0
	#DEBUG_VALUE: main:_15 <- 0
	#DEBUG_VALUE: main:i <- 0
	#DEBUG_VALUE: main:sum <- 0
.Ltmp22:
	.loc	1 125 6                 # GCD.c:125:6
	testq	%r14, %r14
	jle	.LBB1_11
.Ltmp23:
# BB#2:                                 # %while.cond13.preheader.us.preheader
	#DEBUG_VALUE: main:n <- %R14
	.loc	1 12 6                  # GCD.c:12:6
	leaq	-1(%r14), %rax
	leaq	-2(%r14), %rcx
	mulq	%rcx
	shldq	$63, %rax, %rdx
.Ltmp24:
	.loc	1 2 25                  # GCD.c:2:25
	leaq	-1(%r14,%rdx), %r8
	xorl	%ebx, %ebx
	xorl	%ecx, %ecx
.Ltmp25:
	.p2align	4, 0x90
.LBB1_3:                                # %while.cond13.preheader.us
                                        # =>This Loop Header: Depth=1
                                        #     Child Loop BB1_5 Depth 2
                                        #       Child Loop BB1_7 Depth 3
	#DEBUG_VALUE: gcd:a <- %RCX
	.loc	1 12 6                  # GCD.c:12:6
	testq	%rcx, %rcx
.Ltmp26:
	.loc	1 12 5 is_stmt 0        # GCD.c:12:5
	je	.LBB1_13
.Ltmp27:
# BB#4:                                 # %if.end18.us113.preheader
                                        #   in Loop: Header=BB1_3 Depth=1
	#DEBUG_VALUE: gcd:a <- %RCX
	xorl	%edx, %edx
.Ltmp28:
	.p2align	4, 0x90
.LBB1_5:                                # %if.end18.us113
                                        #   Parent Loop BB1_3 Depth=1
                                        # =>  This Loop Header: Depth=2
                                        #       Child Loop BB1_7 Depth 3
	#DEBUG_VALUE: gcd:_2 <- 0
	#DEBUG_VALUE: gcd:_3 <- 0
	#DEBUG_VALUE: gcd:_4 <- 0
	#DEBUG_VALUE: gcd:_5 <- 0
	#DEBUG_VALUE: gcd:_6 <- 0
	#DEBUG_VALUE: gcd:_7 <- 0
	#DEBUG_VALUE: gcd:b <- %RDX
	.loc	1 35 7 is_stmt 1        # GCD.c:35:7
	testq	%rdx, %rdx
	movq	%rdx, %rdi
	movq	%rcx, %rax
	je	.LBB1_9
.Ltmp29:
	.p2align	4, 0x90
.LBB1_7:                                # %blklab4.i.us117
                                        #   Parent Loop BB1_3 Depth=1
                                        #     Parent Loop BB1_5 Depth=2
                                        # =>    This Inner Loop Header: Depth=3
	#DEBUG_VALUE: gcd:_5 <- 0
	.loc	1 37 7                  # GCD.c:37:7
	movq	%rax, %rsi
	subq	%rdi, %rsi
	jle	.LBB1_8
.Ltmp30:
# BB#6:                                 # %if.end9.i.us124
                                        #   in Loop: Header=BB1_7 Depth=3
	#DEBUG_VALUE: gcd:_4 <- 0
	.loc	1 135 10                # GCD.c:135:10
	movq	%rsi, %rax
	jns	.LBB1_7
	jmp	.LBB1_14
.LBB1_8:                                # %blklab5.i.us120
                                        #   in Loop: Header=BB1_7 Depth=3
	#DEBUG_VALUE: gcd:_4 <- 0
.Ltmp31:
	.loc	1 35 7                  # GCD.c:35:7
	subq	%rax, %rdi
	jne	.LBB1_7
.Ltmp32:
.LBB1_9:                                # %gcd.exit.loopexit.us137
                                        #   in Loop: Header=BB1_5 Depth=2
	#DEBUG_VALUE: main:_18 <- %RBX
	.loc	1 137 11                # GCD.c:137:11
	addq	%rax, %rbx
.Ltmp33:
	#DEBUG_VALUE: main:_20 <- 1
	#DEBUG_VALUE: main:_19 <- %RBX
	#DEBUG_VALUE: main:sum <- %RBX
	.loc	1 143 9                 # GCD.c:143:9
	incq	%rdx
.Ltmp34:
	#DEBUG_VALUE: main:_21 <- %RDX
	#DEBUG_VALUE: main:j <- %RDX
	.loc	1 133 7                 # GCD.c:133:7
	cmpq	%r14, %rdx
	jne	.LBB1_5
	jmp	.LBB1_10
.Ltmp35:
	.p2align	4, 0x90
.LBB1_13:                               # %if.end18.us.us.us.preheader
                                        #   in Loop: Header=BB1_3 Depth=1
	#DEBUG_VALUE: gcd:a <- %RCX
	.loc	1 2 25                  # GCD.c:2:25
	addq	%r8, %rbx
.Ltmp36:
.LBB1_10:                               # %blklab10.loopexit.us
                                        #   in Loop: Header=BB1_3 Depth=1
	#DEBUG_VALUE: main:_22 <- 1
	.loc	1 154 8                 # GCD.c:154:8
	incq	%rcx
.Ltmp37:
	#DEBUG_VALUE: main:_23 <- %RCX
	#DEBUG_VALUE: main:i <- %RCX
	.loc	1 125 6                 # GCD.c:125:6
	cmpq	%r14, %rcx
	jne	.LBB1_3
.Ltmp38:
.LBB1_11:                               # %blklab8
	#DEBUG_VALUE: main:_26_size <- 5
	.loc	1 165 2                 # GCD.c:165:2
	movl	$40, %edi
	callq	malloc
.Ltmp39:
	#DEBUG_VALUE: main:_26 <- %RAX
	.loc	1 166 9                 # GCD.c:166:9
	movaps	.LCPI1_2(%rip), %xmm0   # xmm0 = [83,117]
	movups	%xmm0, (%rax)
	.loc	1 166 36 is_stmt 0      # GCD.c:166:36
	movaps	.LCPI1_3(%rip), %xmm0   # xmm0 = [109,58]
	movups	%xmm0, 16(%rax)
	.loc	1 166 63                # GCD.c:166:63
	movq	$32, 32(%rax)
	.loc	1 168 2 is_stmt 1       # GCD.c:168:2
	movl	$5, %esi
	movq	%rax, %rdi
	callq	printf_s
.Ltmp40:
	.loc	1 172 2                 # GCD.c:172:2
	movl	$.L.str.1, %edi
	xorl	%eax, %eax
	movq	%rbx, %rsi
	callq	printf
.Ltmp41:
	#DEBUG_VALUE: main:_31_size <- 25
	.loc	1 176 2                 # GCD.c:176:2
	movl	$200, %edi
	callq	malloc
.Ltmp42:
	#DEBUG_VALUE: main:_31 <- %RAX
	.loc	1 177 9                 # GCD.c:177:9
	movaps	.LCPI1_4(%rip), %xmm0   # xmm0 = [80,97]
	movups	%xmm0, (%rax)
	.loc	1 177 35 is_stmt 0      # GCD.c:177:35
	movaps	.LCPI1_5(%rip), %xmm0   # xmm0 = [115,115]
	movups	%xmm0, 16(%rax)
	.loc	1 177 63                # GCD.c:177:63
	movaps	.LCPI1_6(%rip), %xmm0   # xmm0 = [32,69]
	movups	%xmm0, 32(%rax)
	.loc	1 177 89                # GCD.c:177:89
	movaps	.LCPI1_7(%rip), %xmm0   # xmm0 = [117,99]
	movups	%xmm0, 48(%rax)
	.loc	1 177 116               # GCD.c:177:116
	movaps	.LCPI1_8(%rip), %xmm0   # xmm0 = [108,105]
	movups	%xmm0, 64(%rax)
	.loc	1 177 145               # GCD.c:177:145
	movaps	.LCPI1_9(%rip), %xmm0   # xmm0 = [100,32]
	movups	%xmm0, 80(%rax)
	.loc	1 177 174               # GCD.c:177:174
	movaps	.LCPI1_10(%rip), %xmm0  # xmm0 = [71,67]
	movups	%xmm0, 96(%rax)
	.loc	1 177 202               # GCD.c:177:202
	movaps	.LCPI1_11(%rip), %xmm0  # xmm0 = [68,32]
	movups	%xmm0, 112(%rax)
	.loc	1 177 230               # GCD.c:177:230
	movaps	.LCPI1_12(%rip), %xmm0  # xmm0 = [116,101]
	movups	%xmm0, 128(%rax)
	.loc	1 177 260               # GCD.c:177:260
	movaps	.LCPI1_13(%rip), %xmm0  # xmm0 = [115,116]
	movups	%xmm0, 144(%rax)
	.loc	1 177 290               # GCD.c:177:290
	movaps	.LCPI1_14(%rip), %xmm0  # xmm0 = [32,99]
	movups	%xmm0, 160(%rax)
	.loc	1 177 318               # GCD.c:177:318
	movaps	.LCPI1_15(%rip), %xmm0  # xmm0 = [97,115]
	movups	%xmm0, 176(%rax)
	.loc	1 177 347               # GCD.c:177:347
	movq	$101, 192(%rax)
	.loc	1 179 2 is_stmt 1       # GCD.c:179:2
	movl	$25, %esi
	movq	%rax, %rdi
	callq	println_s
.Ltmp43:
.LBB1_12:                               # %blklab7
	.loc	1 183 2                 # GCD.c:183:2
	xorl	%edi, %edi
	callq	exit
.LBB1_14:                               # %if.end3.i
.Ltmp44:
	.loc	1 26 12                 # GCD.c:26:12
	movq	stderr(%rip), %rcx
	.loc	1 26 4 is_stmt 0        # GCD.c:26:4
	movl	$.L.str, %edi
	movl	$4, %esi
	movl	$1, %edx
	callq	fwrite
	.loc	1 27 4 is_stmt 1        # GCD.c:27:4
	movl	$-1, %edi
	callq	exit
.Ltmp45:
.Lfunc_end1:
	.size	main, .Lfunc_end1-main
	.cfi_endproc

	.type	.L.str,@object          # @.str
	.section	.rodata.str1.1,"aMS",@progbits,1
.L.str:
	.asciz	"fail"
	.size	.L.str, 5

	.type	.L.str.1,@object        # @.str.1
.L.str.1:
	.asciz	"%lld\n"
	.size	.L.str.1, 6

	.section	".note.GNU-stack","",@progbits