	.text
	.file	"llvm/CoinGame.openmp.disablevc.ll"
	.file	1 "CoinGame.c"
	.section	.rodata.cst16,"aM",@progbits,16
	.p2align	4
.LCPI0_0:
	.long	0                       # 0x0
	.long	1                       # 0x1
	.long	2                       # 0x2
	.long	3                       # 0x3
	.text
	.globl	init
	.p2align	4, 0x90
	.type	init,@function
init:                                   # @init
.Lfunc_begin0:
	.loc	1 25 0                  # CoinGame.c:25:0
	.cfi_startproc
# BB#0:                                 # %entry
	.loc	1 28 2 prologue_end     # CoinGame.c:28:2
	pushq	%rax
.Ltmp0:
	.cfi_def_cfa_offset 16
	movl	$.L.str, %edi
	movl	$6, %esi
	xorl	%eax, %eax
	callq	printf
.Ltmp1:
	#DEBUG_VALUE: init:i <- 0
	.loc	1 30 8                  # CoinGame.c:30:8
	movaps	.LCPI0_0(%rip), %xmm0   # xmm0 = [0,1,2,3]
	movaps	%xmm0, V(%rip)
	movabsq	$21474836484, %rax      # imm = 0x500000004
	movq	%rax, V+16(%rip)
.Ltmp2:
	.loc	1 32 1                  # CoinGame.c:32:1
	popq	%rax
	retq
.Ltmp3:
.Lfunc_end0:
	.size	init, .Lfunc_end0-init
	.cfi_endproc

	.globl	sumMoves
	.p2align	4, 0x90
	.type	sumMoves,@function
sumMoves:                               # @sumMoves
.Lfunc_begin1:
	.loc	1 34 0                  # CoinGame.c:34:0
	.cfi_startproc
# BB#0:                                 # %entry
	#DEBUG_VALUE: sumMoves:i <- 0
	#DEBUG_VALUE: sumMoves:j <- 5
	movl	$1, %r8d
	movl	$5, %edx
.Ltmp4:
	#DEBUG_VALUE: sumMoves:alice <- 1
	xorl	%edi, %edi
	.p2align	4, 0x90
.LBB1_1:                                # %while.body
                                        # =>This Inner Loop Header: Depth=1
.Ltmp5:
	.loc	1 38 12 prologue_end    # CoinGame.c:38:12
	movslq	%edx, %rsi
	.loc	1 38 16 is_stmt 0       # CoinGame.c:38:16
	leal	1(%rdi), %edx
	.loc	1 38 12                 # CoinGame.c:38:12
	movslq	%edx, %r10
	leaq	(,%rsi,4), %rax
	leaq	(%r10,%r10,2), %rdx
	movl	M(%rax,%rdx,8), %r9d
.Ltmp6:
	#DEBUG_VALUE: P1 <- %R9D
	.loc	1 39 19 is_stmt 1       # CoinGame.c:39:19
	leal	-1(%rsi), %edx
	.loc	1 39 12 is_stmt 0       # CoinGame.c:39:12
	movslq	%edi, %rcx
	leaq	(%rcx,%rcx,2), %rdi
.Ltmp7:
	.loc	1 41 10 is_stmt 1       # CoinGame.c:41:10
	cmpl	M-4(%rax,%rdi,8), %r9d
.Ltmp8:
	.loc	1 41 7 is_stmt 0        # CoinGame.c:41:7
	cmovlel	%esi, %edx
	movl	%ecx, %edi
	cmovlel	%r10d, %edi
	cmovgq	%rsi, %rcx
.Ltmp9:
	.loc	1 43 11 is_stmt 1       # CoinGame.c:43:11
	movl	V(,%rcx,4), %esi
.Ltmp10:
	.loc	1 50 7                  # CoinGame.c:50:7
	testl	%r8d, %r8d
.Ltmp11:
	.loc	1 50 7 is_stmt 0        # CoinGame.c:50:7
	je	.LBB1_3
.Ltmp12:
# BB#2:                                 # %if.then12
                                        #   in Loop: Header=BB1_1 Depth=1
	#DEBUG_VALUE: P1 <- %R9D
	.loc	1 51 14 is_stmt 1       # CoinGame.c:51:14
	addl	%esi, sum_alice(%rip)
.Ltmp13:
	#DEBUG_VALUE: sumMoves:alice <- 0
	xorl	%r8d, %r8d
	jmp	.LBB1_4
.Ltmp14:
	.p2align	4, 0x90
.LBB1_3:                                # %if.else14
                                        #   in Loop: Header=BB1_1 Depth=1
	#DEBUG_VALUE: P1 <- %R9D
	.loc	1 54 12                 # CoinGame.c:54:12
	addl	%esi, sum_bob(%rip)
.Ltmp15:
	#DEBUG_VALUE: sumMoves:alice <- 1
	movl	$1, %r8d
.Ltmp16:
.LBB1_4:                                # %while.cond.backedge
                                        #   in Loop: Header=BB1_1 Depth=1
	#DEBUG_VALUE: P1 <- %R9D
	.loc	1 37 2 discriminator 1  # CoinGame.c:37:2
	cmpl	%edx, %edi
	jle	.LBB1_1
.Ltmp17:
# BB#5:                                 # %while.end
	#DEBUG_VALUE: P1 <- %R9D
	.loc	1 59 1                  # CoinGame.c:59:1
	retq
.Ltmp18:
.Lfunc_end1:
	.size	sumMoves, .Lfunc_end1-sumMoves
	.cfi_endproc

	.globl	printMoves
	.p2align	4, 0x90
	.type	printMoves,@function
printMoves:                             # @printMoves
.Lfunc_begin2:
	.loc	1 62 0                  # CoinGame.c:62:0
	.cfi_startproc
# BB#0:                                 # %entry
	pushq	%rbp
.Ltmp19:
	.cfi_def_cfa_offset 16
	pushq	%r15
.Ltmp20:
	.cfi_def_cfa_offset 24
	pushq	%r14
.Ltmp21:
	.cfi_def_cfa_offset 32
	pushq	%r13
.Ltmp22:
	.cfi_def_cfa_offset 40
	pushq	%r12
.Ltmp23:
	.cfi_def_cfa_offset 48
	pushq	%rbx
.Ltmp24:
	.cfi_def_cfa_offset 56
	subq	$24, %rsp
.Ltmp25:
	.cfi_def_cfa_offset 80
.Ltmp26:
	.cfi_offset %rbx, -56
.Ltmp27:
	.cfi_offset %r12, -48
.Ltmp28:
	.cfi_offset %r13, -40
.Ltmp29:
	.cfi_offset %r14, -32
.Ltmp30:
	.cfi_offset %r15, -24
.Ltmp31:
	.cfi_offset %rbp, -16
.Ltmp32:
	#DEBUG_VALUE: printMoves:i <- 0
	#DEBUG_VALUE: printMoves:j <- 5
	movb	$1, %r12b
	movl	$5, %r14d
.Ltmp33:
	#DEBUG_VALUE: printMoves:alice <- 1
	xorl	%ebx, %ebx
	.p2align	4, 0x90
.LBB2_1:                                # %while.body
                                        # =>This Inner Loop Header: Depth=1
.Ltmp34:
	.loc	1 66 12 prologue_end    # CoinGame.c:66:12
	movq	%rbx, 16(%rsp)          # 8-byte Spill
	movl	%r14d, 12(%rsp)         # 4-byte Spill
	movslq	%r14d, %rbp
	.loc	1 66 16 is_stmt 0       # CoinGame.c:66:16
	leal	1(%rbx), %r13d
	.loc	1 66 12                 # CoinGame.c:66:12
	movslq	%r13d, %rax
	leaq	(,%rbp,4), %rcx
	leaq	(%rax,%rax,2), %rax
	movl	M(%rcx,%rax,8), %r15d
.Ltmp35:
	#DEBUG_VALUE: P1 <- %R15D
	.loc	1 67 12 is_stmt 1       # CoinGame.c:67:12
	movslq	%ebx, %r14
	leaq	(%r14,%r14,2), %rax
	movl	M-4(%rcx,%rax,8), %ebx
.Ltmp36:
	#DEBUG_VALUE: P2 <- %EBX
	.loc	1 68 7                  # CoinGame.c:68:7
	testb	%r12b, %r12b
	je	.LBB2_3
.Ltmp37:
# BB#2:                                 # %if.then
                                        #   in Loop: Header=BB2_1 Depth=1
	#DEBUG_VALUE: P2 <- %EBX
	#DEBUG_VALUE: P1 <- %R15D
	.loc	1 69 4                  # CoinGame.c:69:4
	movl	$.L.str.1, %edi
	jmp	.LBB2_4
.Ltmp38:
	.p2align	4, 0x90
.LBB2_3:                                # %if.else
                                        #   in Loop: Header=BB2_1 Depth=1
	#DEBUG_VALUE: P2 <- %EBX
	#DEBUG_VALUE: P1 <- %R15D
	.loc	1 71 4                  # CoinGame.c:71:4
	movl	$.L.str.2, %edi
.Ltmp39:
.LBB2_4:                                # %if.end
                                        #   in Loop: Header=BB2_1 Depth=1
	#DEBUG_VALUE: P1 <- %R15D
	#DEBUG_VALUE: P2 <- %EBX
	xorl	%eax, %eax
	callq	printf
.Ltmp40:
	.loc	1 74 10                 # CoinGame.c:74:10
	cmpl	%ebx, %r15d
	jle	.LBB2_5
.Ltmp41:
# BB#6:                                 # %if.else14
                                        #   in Loop: Header=BB2_1 Depth=1
	#DEBUG_VALUE: P2 <- %EBX
	#DEBUG_VALUE: P1 <- %R15D
	.loc	1 67 19                 # CoinGame.c:67:19
	leal	-1(%rbp), %r14d
.Ltmp42:
	.loc	1 78 26                 # CoinGame.c:78:26
	leal	1(%rbp), %esi
	.loc	1 78 31 is_stmt 0       # CoinGame.c:78:31
	movl	V(,%rbp,4), %edx
	.loc	1 78 4                  # CoinGame.c:78:4
	movl	$.L.str.3, %edi
	xorl	%eax, %eax
	callq	printf
	movq	16(%rsp), %rbx          # 8-byte Reload
.Ltmp43:
	jmp	.LBB2_7
.Ltmp44:
	.p2align	4, 0x90
.LBB2_5:                                # %if.then9
                                        #   in Loop: Header=BB2_1 Depth=1
	#DEBUG_VALUE: P2 <- %EBX
	#DEBUG_VALUE: P1 <- %R15D
	.loc	1 75 31 is_stmt 1       # CoinGame.c:75:31
	movl	V(,%r14,4), %edx
	.loc	1 75 4 is_stmt 0        # CoinGame.c:75:4
	movl	$.L.str.3, %edi
	xorl	%eax, %eax
	movl	%r13d, %esi
	callq	printf
	movl	%r13d, %ebx
.Ltmp45:
	movl	12(%rsp), %r14d         # 4-byte Reload
.Ltmp46:
.LBB2_7:                                # %if.end19
                                        #   in Loop: Header=BB2_1 Depth=1
	#DEBUG_VALUE: P1 <- %R15D
	.loc	1 81 7 is_stmt 1        # CoinGame.c:81:7
	testb	%r12b, %r12b
	je	.LBB2_9
.Ltmp47:
# BB#8:                                 # %if.then21
                                        #   in Loop: Header=BB2_1 Depth=1
	#DEBUG_VALUE: P1 <- %R15D
	.loc	1 82 4                  # CoinGame.c:82:4
	movl	$.L.str.4, %edi
	xorl	%eax, %eax
	callq	printf
	jmp	.LBB2_10
.Ltmp48:
	.p2align	4, 0x90
.LBB2_9:                                # %if.else23
                                        #   in Loop: Header=BB2_1 Depth=1
	#DEBUG_VALUE: P1 <- %R15D
	.loc	1 84 4                  # CoinGame.c:84:4
	movl	$.Lstr, %edi
	callq	puts
.Ltmp49:
.LBB2_10:                               # %if.end25
                                        #   in Loop: Header=BB2_1 Depth=1
	#DEBUG_VALUE: P1 <- %R15D
	.loc	1 86 9                  # CoinGame.c:86:9
	testb	%r12b, %r12b
	sete	%r12b
.Ltmp50:
	.loc	1 65 2 discriminator 1  # CoinGame.c:65:2
	cmpl	%r14d, %ebx
	jle	.LBB2_1
.Ltmp51:
# BB#11:                                # %while.end
	#DEBUG_VALUE: P1 <- %R15D
	.loc	1 89 1                  # CoinGame.c:89:1
	addq	$24, %rsp
	popq	%rbx
	popq	%r12
	popq	%r13
	popq	%r14
	popq	%r15
.Ltmp52:
	popq	%rbp
	retq
.Ltmp53:
.Lfunc_end2:
	.size	printMoves, .Lfunc_end2-printMoves
	.cfi_endproc

	.globl	maxMoney
	.p2align	4, 0x90
	.type	maxMoney,@function
maxMoney:                               # @maxMoney
.Lfunc_begin3:
	.loc	1 91 0                  # CoinGame.c:91:0
	.cfi_startproc
# BB#0:                                 # %entry
	pushq	%rbp
.Ltmp54:
	.cfi_def_cfa_offset 16
	pushq	%r15
.Ltmp55:
	.cfi_def_cfa_offset 24
	pushq	%r14
.Ltmp56:
	.cfi_def_cfa_offset 32
	pushq	%r13
.Ltmp57:
	.cfi_def_cfa_offset 40
	pushq	%r12
.Ltmp58:
	.cfi_def_cfa_offset 48
	pushq	%rbx
.Ltmp59:
	.cfi_def_cfa_offset 56
	subq	$56, %rsp
.Ltmp60:
	.cfi_def_cfa_offset 112
.Ltmp61:
	.cfi_offset %rbx, -56
.Ltmp62:
	.cfi_offset %r12, -48
.Ltmp63:
	.cfi_offset %r13, -40
.Ltmp64:
	.cfi_offset %r14, -32
.Ltmp65:
	.cfi_offset %r15, -24
.Ltmp66:
	.cfi_offset %rbp, -16
.Ltmp67:
	#DEBUG_VALUE: maxMoney:s <- 0
	leaq	8(%rsp), %rsi
	movl	$maxMoney_polly_subfn, %edi
	xorl	%edx, %edx
	xorl	%ecx, %ecx
	movl	$6, %r8d
	movl	$1, %r9d
	callq	GOMP_parallel_loop_runtime_start
	leaq	24(%rsp), %rdi
	leaq	16(%rsp), %rsi
	callq	GOMP_loop_runtime_next
	testb	%al, %al
	je	.LBB3_8
# BB#1:
	leaq	24(%rsp), %r14
	leaq	16(%rsp), %r15
	.p2align	4, 0x90
.LBB3_3:                                # %polly.par.loadIVBounds.i
                                        # =>This Loop Header: Depth=1
                                        #     Child Loop BB3_4 Depth 2
                                        #       Child Loop BB3_7 Depth 3
	movq	16(%rsp), %rax
	movq	24(%rsp), %rcx
	addq	$-2, %rax
	leaq	X(,%rcx,4), %rbx
	.p2align	4, 0x90
.LBB3_4:                                # %polly.loop_header.i
                                        #   Parent Loop BB3_3 Depth=1
                                        # =>  This Loop Header: Depth=2
                                        #       Child Loop BB3_7 Depth 3
	movl	$5, %esi
	subq	%rcx, %rsi
	js	.LBB3_5
# BB#6:                                 # %polly.loop_preheader3.i
                                        #   in Loop: Header=BB3_4 Depth=2
	decq	%rsi
	movq	$-1, %rdi
	movq	%rbx, %rdx
	.p2align	4, 0x90
.LBB3_7:                                # %polly.loop_header2.i
                                        #   Parent Loop BB3_3 Depth=1
                                        #     Parent Loop BB3_4 Depth=2
                                        # =>    This Inner Loop Header: Depth=3
	movl	$0, (%rdx)
	incq	%rdi
	addq	$28, %rdx
	cmpq	%rsi, %rdi
	jle	.LBB3_7
.LBB3_5:                                # %polly.loop_exit4.i
                                        #   in Loop: Header=BB3_4 Depth=2
	addq	$4, %rbx
	cmpq	%rax, %rcx
	leaq	1(%rcx), %rcx
	jle	.LBB3_4
# BB#2:                                 # %polly.par.checkNext.loopexit.i
                                        #   in Loop: Header=BB3_3 Depth=1
	movq	%r14, %rdi
	movq	%r15, %rsi
	callq	GOMP_loop_runtime_next
	testb	%al, %al
	jne	.LBB3_3
.LBB3_8:                                # %maxMoney_polly_subfn.exit
	callq	GOMP_loop_end_nowait
	callq	GOMP_parallel_end
	leaq	8(%rsp), %rsi
	movl	$maxMoney_polly_subfn_10, %edi
	xorl	%edx, %edx
	xorl	%ecx, %ecx
	movl	$6, %r8d
	movl	$1, %r9d
	callq	GOMP_parallel_loop_runtime_start
	leaq	24(%rsp), %rdi
	leaq	16(%rsp), %rsi
	callq	GOMP_loop_runtime_next
	testb	%al, %al
	je	.LBB3_16
# BB#9:
	leaq	24(%rsp), %r14
	leaq	16(%rsp), %r15
	.p2align	4, 0x90
.LBB3_11:                               # %polly.par.loadIVBounds.i304
                                        # =>This Loop Header: Depth=1
                                        #     Child Loop BB3_12 Depth 2
                                        #       Child Loop BB3_15 Depth 3
	movq	16(%rsp), %rax
	movq	24(%rsp), %rcx
	addq	$-2, %rax
	leaq	Y(,%rcx,4), %rbx
	.p2align	4, 0x90
.LBB3_12:                               # %polly.loop_header.i307
                                        #   Parent Loop BB3_11 Depth=1
                                        # =>  This Loop Header: Depth=2
                                        #       Child Loop BB3_15 Depth 3
	movl	$5, %esi
	subq	%rcx, %rsi
	js	.LBB3_13
# BB#14:                                # %polly.loop_preheader3.i318
                                        #   in Loop: Header=BB3_12 Depth=2
	decq	%rsi
	movq	$-1, %rdi
	movq	%rbx, %rdx
	.p2align	4, 0x90
.LBB3_15:                               # %polly.loop_header2.i315
                                        #   Parent Loop BB3_11 Depth=1
                                        #     Parent Loop BB3_12 Depth=2
                                        # =>    This Inner Loop Header: Depth=3
	movl	$0, (%rdx)
	incq	%rdi
	addq	$28, %rdx
	cmpq	%rsi, %rdi
	jle	.LBB3_15
.LBB3_13:                               # %polly.loop_exit4.i310
                                        #   in Loop: Header=BB3_12 Depth=2
	addq	$4, %rbx
	cmpq	%rax, %rcx
	leaq	1(%rcx), %rcx
	jle	.LBB3_12
# BB#10:                                # %polly.par.checkNext.loopexit.i300
                                        #   in Loop: Header=BB3_11 Depth=1
	movq	%r14, %rdi
	movq	%r15, %rsi
	callq	GOMP_loop_runtime_next
	testb	%al, %al
	jne	.LBB3_11
.LBB3_16:                               # %maxMoney_polly_subfn_10.exit
	callq	GOMP_loop_end_nowait
	callq	GOMP_parallel_end
	leaq	8(%rsp), %rsi
	movl	$maxMoney_polly_subfn_11, %edi
	xorl	%edx, %edx
	xorl	%ecx, %ecx
	movl	$6, %r8d
	movl	$1, %r9d
	callq	GOMP_parallel_loop_runtime_start
	leaq	24(%rsp), %rdi
	leaq	16(%rsp), %rsi
	callq	GOMP_loop_runtime_next
	testb	%al, %al
	je	.LBB3_24
# BB#17:
	leaq	24(%rsp), %r14
	leaq	16(%rsp), %r15
	.p2align	4, 0x90
.LBB3_19:                               # %polly.par.loadIVBounds.i325
                                        # =>This Loop Header: Depth=1
                                        #     Child Loop BB3_20 Depth 2
                                        #       Child Loop BB3_23 Depth 3
	movq	16(%rsp), %rax
	movq	24(%rsp), %rcx
	addq	$-2, %rax
	leaq	Z(,%rcx,4), %rbx
	.p2align	4, 0x90
.LBB3_20:                               # %polly.loop_header.i328
                                        #   Parent Loop BB3_19 Depth=1
                                        # =>  This Loop Header: Depth=2
                                        #       Child Loop BB3_23 Depth 3
	movl	$5, %esi
	subq	%rcx, %rsi
	js	.LBB3_21
# BB#22:                                # %polly.loop_preheader3.i339
                                        #   in Loop: Header=BB3_20 Depth=2
	decq	%rsi
	movq	$-1, %rdi
	movq	%rbx, %rdx
	.p2align	4, 0x90
.LBB3_23:                               # %polly.loop_header2.i336
                                        #   Parent Loop BB3_19 Depth=1
                                        #     Parent Loop BB3_20 Depth=2
                                        # =>    This Inner Loop Header: Depth=3
	movl	$0, (%rdx)
	incq	%rdi
	addq	$28, %rdx
	cmpq	%rsi, %rdi
	jle	.LBB3_23
.LBB3_21:                               # %polly.loop_exit4.i331
                                        #   in Loop: Header=BB3_20 Depth=2
	addq	$4, %rbx
	cmpq	%rax, %rcx
	leaq	1(%rcx), %rcx
	jle	.LBB3_20
# BB#18:                                # %polly.par.checkNext.loopexit.i321
                                        #   in Loop: Header=BB3_19 Depth=1
	movq	%r14, %rdi
	movq	%r15, %rsi
	callq	GOMP_loop_runtime_next
	testb	%al, %al
	jne	.LBB3_19
.LBB3_24:                               # %maxMoney_polly_subfn_11.exit
	callq	GOMP_loop_end_nowait
	callq	GOMP_parallel_end
	movl	$1, %eax
	xorl	%r12d, %r12d
	movl	$2, %ecx
	movl	V(%rip), %edx
	movl	%edx, 36(%rsp)          # 4-byte Spill
	xorl	%r13d, %r13d
	.p2align	4, 0x90
.LBB3_25:                               # %polly.loop_header
                                        # =>This Loop Header: Depth=1
                                        #     Child Loop BB3_37 Depth 2
                                        #     Child Loop BB3_39 Depth 2
                                        #     Child Loop BB3_41 Depth 2
                                        #     Child Loop BB3_30 Depth 2
	movq	%rcx, 40(%rsp)          # 8-byte Spill
	movq	%rax, 48(%rsp)          # 8-byte Spill
	testq	%rcx, %rcx
	movl	$0, %r14d
	cmovnsq	%rcx, %r14
	testq	%rax, %rax
	movl	$0, %ebx
	cmovnsq	%rax, %rbx
	testq	%r13, %r13
	jle	.LBB3_26
# BB#33:                                # %polly.then
                                        #   in Loop: Header=BB3_25 Depth=1
	movl	$7, %eax
	subl	%r13d, %eax
	testb	$1, %al
	movl	$0, %ecx
	je	.LBB3_35
# BB#34:                                # %polly.loop_header239.prol
                                        #   in Loop: Header=BB3_25 Depth=1
	movl	X-4(,%r13,4), %eax
.Ltmp68:
	.loc	1 127 13 prologue_end   # CoinGame.c:127:13
	addl	36(%rsp), %eax          # 4-byte Folded Reload
	movl	Z-4(,%r13,4), %ecx
	.loc	1 127 30 is_stmt 0      # CoinGame.c:127:30
	addl	V-4(,%r13,4), %ecx
	.loc	1 127 23                # CoinGame.c:127:23
	cmpl	%ecx, %eax
.Ltmp69:
	.loc	1 127 8                 # CoinGame.c:127:8
	cmovgel	%eax, %ecx
	movl	%ecx, M-4(,%r13,4)
	movl	$1, %ecx
.LBB3_35:                               # %polly.then.split
                                        #   in Loop: Header=BB3_25 Depth=1
	cmpq	$6, %r13
	je	.LBB3_26
# BB#36:                                # %polly.then.split.split
                                        #   in Loop: Header=BB3_25 Depth=1
	movl	$7, %eax
	subq	%rcx, %rax
	leaq	V(,%rcx,4), %r11
	imulq	$28, %rcx, %r15
	xorl	%ecx, %ecx
	xorl	%esi, %esi
	.p2align	4, 0x90
.LBB3_37:                               # %polly.loop_header239
                                        #   Parent Loop BB3_25 Depth=1
                                        # =>  This Inner Loop Header: Depth=2
	leaq	(%r11,%rsi), %rbp
	leaq	(%r15,%rcx), %r8
	movl	X-4(%r8,%r13,4), %r9d
.Ltmp70:
	.loc	1 127 13                # CoinGame.c:127:13
	addl	(%r11,%rsi), %r9d
	movl	Z-4(%r8,%r13,4), %r10d
	.loc	1 127 30                # CoinGame.c:127:30
	addl	-4(%rbp,%r13,4), %r10d
	.loc	1 127 23                # CoinGame.c:127:23
	cmpl	%r10d, %r9d
.Ltmp71:
	.loc	1 127 8                 # CoinGame.c:127:8
	cmovgel	%r9d, %r10d
	movl	%r10d, M-4(%r8,%r13,4)
	movl	X+24(%r8,%r13,4), %edx
.Ltmp72:
	.loc	1 127 13                # CoinGame.c:127:13
	addl	4(%r11,%rsi), %edx
	movl	Z+24(%r8,%r13,4), %edi
	.loc	1 127 30                # CoinGame.c:127:30
	addl	(%rbp,%r13,4), %edi
	.loc	1 127 23                # CoinGame.c:127:23
	cmpl	%edi, %edx
.Ltmp73:
	.loc	1 127 8                 # CoinGame.c:127:8
	cmovgel	%edx, %edi
	movl	%edi, M+24(%r8,%r13,4)
	addq	$-2, %rax
	addq	$8, %rsi
	addq	$56, %rcx
	cmpq	%r13, %rax
	jne	.LBB3_37
.Ltmp74:
.LBB3_26:                               # %polly.merge
                                        #   in Loop: Header=BB3_25 Depth=1
	movl	$1, %eax
	subq	%r13, %rax
	movl	$0, %edx
	cmovnsq	%rax, %rdx
	movl	$5, %eax
	subq	%r13, %rax
	cmpq	$4, %rax
	movq	%rax, %rcx
	movl	$4, %esi
	cmovgq	%rsi, %rcx
	cmpq	%rcx, %rdx
	jg	.LBB3_27
# BB#38:                                # %polly.loop_preheader253
                                        #   in Loop: Header=BB3_25 Depth=1
	imulq	$28, %rbx, %rdx
	decq	%rbx
	addq	%r12, %rdx
	decq	%rcx
	xorl	%esi, %esi
	.p2align	4, 0x90
.LBB3_39:                               # %polly.loop_header252
                                        #   Parent Loop BB3_25 Depth=1
                                        # =>  This Inner Loop Header: Depth=2
	movl	M+20(%rdx,%rsi), %edi
	movl	%edi, Y(%rdx,%rsi)
	incq	%rbx
	addq	$28, %rsi
	cmpq	%rcx, %rbx
	jle	.LBB3_39
.LBB3_27:                               # %polly.loop_exit254
                                        #   in Loop: Header=BB3_25 Depth=1
	cmpq	$3, %rax
	movq	%rax, %rcx
	movl	$3, %edx
	cmovgq	%rdx, %rcx
	testq	%rcx, %rcx
	js	.LBB3_28
# BB#40:                                # %polly.loop_preheader266
                                        #   in Loop: Header=BB3_25 Depth=1
	decq	%rcx
	movq	$-1, %rdx
	movq	%r12, %rsi
	.p2align	4, 0x90
.LBB3_41:                               # %polly.loop_header265
                                        #   Parent Loop BB3_25 Depth=1
                                        # =>  This Inner Loop Header: Depth=2
	movl	M+48(%rsi), %edi
	movl	Y(%rsi), %ebp
.Ltmp75:
	.loc	1 107 17 is_stmt 1      # CoinGame.c:107:17
	cmpl	%ebp, %edi
.Ltmp76:
	.loc	1 107 9 is_stmt 0       # CoinGame.c:107:9
	cmovgl	%ebp, %edi
	movl	%edi, X(%rsi)
	incq	%rdx
	addq	$28, %rsi
	cmpq	%rcx, %rdx
	jle	.LBB3_41
.Ltmp77:
.LBB3_28:                               # %polly.loop_exit267
                                        #   in Loop: Header=BB3_25 Depth=1
	movl	$2, %ecx
	subq	%r13, %rcx
	movl	$0, %edx
	cmovnsq	%rcx, %rdx
	cmpq	%rax, %rdx
	jg	.LBB3_31
# BB#29:                                #   in Loop: Header=BB3_25 Depth=1
	imulq	$28, %r14, %rcx
	decq	%r14
	.p2align	4, 0x90
.LBB3_30:                               # %polly.loop_header282
                                        #   Parent Loop BB3_25 Depth=1
                                        # =>  This Inner Loop Header: Depth=2
	movl	M-8(%rcx,%r12), %edx
	movl	Y(%rcx,%r12), %esi
.Ltmp78:
	.loc	1 115 17 is_stmt 1      # CoinGame.c:115:17
	cmpl	%esi, %edx
.Ltmp79:
	.loc	1 115 9 is_stmt 0       # CoinGame.c:115:9
	cmovgl	%esi, %edx
	movl	%edx, Z(%rcx,%r12)
	incq	%r14
	addq	$28, %rcx
	cmpq	%rax, %r14
	jl	.LBB3_30
.Ltmp80:
.LBB3_31:                               # %polly.loop_exit284
                                        #   in Loop: Header=BB3_25 Depth=1
	incq	%r13
	movq	48(%rsp), %rax          # 8-byte Reload
	decq	%rax
	addq	$4, %r12
	movq	40(%rsp), %rcx          # 8-byte Reload
	decq	%rcx
	cmpq	$7, %r13
	jne	.LBB3_25
# BB#32:                                # %polly.exiting
	.loc	1 140 9 is_stmt 1       # CoinGame.c:140:9
	movl	M+20(%rip), %eax
	.loc	1 140 2 is_stmt 0       # CoinGame.c:140:2
	addq	$56, %rsp
	popq	%rbx
	popq	%r12
	popq	%r13
	popq	%r14
	popq	%r15
	popq	%rbp
	retq
.Ltmp81:
.Lfunc_end3:
	.size	maxMoney, .Lfunc_end3-maxMoney
	.cfi_endproc

	.globl	main
	.p2align	4, 0x90
	.type	main,@function
main:                                   # @main
.Lfunc_begin4:
	.loc	1 142 0 is_stmt 1       # CoinGame.c:142:0
	.cfi_startproc
# BB#0:                                 # %entry
	.loc	1 144 2 prologue_end    # CoinGame.c:144:2
	pushq	%rax
.Ltmp82:
	.cfi_def_cfa_offset 16
	callq	maxMoney
.Ltmp83:
	#DEBUG_VALUE: sumMoves:j <- 5
	#DEBUG_VALUE: sumMoves:i <- 0
	movl	$1, %r8d
	movl	$5, %edx
.Ltmp84:
	#DEBUG_VALUE: sumMoves:alice <- 1
	xorl	%edi, %edi
	.p2align	4, 0x90
.LBB4_1:                                # %while.body.i
                                        # =>This Inner Loop Header: Depth=1
.Ltmp85:
	.loc	1 38 12                 # CoinGame.c:38:12
	movslq	%edx, %rsi
	.loc	1 38 16 is_stmt 0       # CoinGame.c:38:16
	leal	1(%rdi), %edx
	.loc	1 38 12                 # CoinGame.c:38:12
	movslq	%edx, %r10
	leaq	(,%rsi,4), %rax
	leaq	(%r10,%r10,2), %rdx
	movl	M(%rax,%rdx,8), %r9d
.Ltmp86:
	#DEBUG_VALUE: P1 <- %R9D
	.loc	1 39 19 is_stmt 1       # CoinGame.c:39:19
	leal	-1(%rsi), %edx
	.loc	1 39 12 is_stmt 0       # CoinGame.c:39:12
	movslq	%edi, %rcx
	leaq	(%rcx,%rcx,2), %rdi
.Ltmp87:
	.loc	1 41 10 is_stmt 1       # CoinGame.c:41:10
	cmpl	M-4(%rax,%rdi,8), %r9d
.Ltmp88:
	.loc	1 41 7 is_stmt 0        # CoinGame.c:41:7
	cmovlel	%esi, %edx
	movl	%ecx, %edi
	cmovlel	%r10d, %edi
	cmovgq	%rsi, %rcx
.Ltmp89:
	.loc	1 43 11 is_stmt 1       # CoinGame.c:43:11
	movl	V(,%rcx,4), %esi
.Ltmp90:
	.loc	1 50 7                  # CoinGame.c:50:7
	testl	%r8d, %r8d
.Ltmp91:
	.loc	1 50 7 is_stmt 0        # CoinGame.c:50:7
	je	.LBB4_3
.Ltmp92:
# BB#2:                                 # %if.then12.i
                                        #   in Loop: Header=BB4_1 Depth=1
	#DEBUG_VALUE: P1 <- %R9D
	.loc	1 51 14 is_stmt 1       # CoinGame.c:51:14
	addl	%esi, sum_alice(%rip)
.Ltmp93:
	#DEBUG_VALUE: sumMoves:alice <- 0
	xorl	%r8d, %r8d
	jmp	.LBB4_4
.Ltmp94:
	.p2align	4, 0x90
.LBB4_3:                                # %if.else14.i
                                        #   in Loop: Header=BB4_1 Depth=1
	#DEBUG_VALUE: P1 <- %R9D
	.loc	1 54 12                 # CoinGame.c:54:12
	addl	%esi, sum_bob(%rip)
.Ltmp95:
	#DEBUG_VALUE: sumMoves:alice <- 1
	movl	$1, %r8d
.Ltmp96:
.LBB4_4:                                # %while.cond.backedge.i
                                        #   in Loop: Header=BB4_1 Depth=1
	#DEBUG_VALUE: P1 <- %R9D
	.loc	1 37 2 discriminator 1  # CoinGame.c:37:2
	cmpl	%edx, %edi
	jle	.LBB4_1
.Ltmp97:
# BB#5:                                 # %sumMoves.exit
	#DEBUG_VALUE: P1 <- %R9D
	.loc	1 148 6                 # CoinGame.c:148:6
	movl	sum_alice(%rip), %esi
	.loc	1 148 16 is_stmt 0      # CoinGame.c:148:16
	cmpl	M+20(%rip), %esi
	jne	.LBB4_6
.Ltmp98:
# BB#8:                                 # %if.end
	#DEBUG_VALUE: P1 <- %R9D
	.loc	1 153 6 is_stmt 1       # CoinGame.c:153:6
	cmpl	sum_bob(%rip), %esi
	jl	.LBB4_9
.Ltmp99:
# BB#10:                                # %if.end5
	#DEBUG_VALUE: P1 <- %R9D
	.loc	1 158 2                 # CoinGame.c:158:2
	movl	$.L.str.8, %edi
	xorl	%eax, %eax
	callq	printf
.Ltmp100:
	.loc	1 159 65                # CoinGame.c:159:65
	movl	sum_bob(%rip), %esi
	.loc	1 159 2 is_stmt 0       # CoinGame.c:159:2
	movl	$.L.str.9, %edi
	xorl	%eax, %eax
	callq	printf
	.loc	1 160 1 is_stmt 1       # CoinGame.c:160:1
	xorl	%eax, %eax
	popq	%rcx
	retq
.LBB4_6:                                # %if.then
.Ltmp101:
	#DEBUG_VALUE: P1 <- %R9D
	.loc	1 149 3                 # CoinGame.c:149:3
	movl	$.L.str.6, %edi
	jmp	.LBB4_7
.Ltmp102:
.LBB4_9:                                # %if.then3
	#DEBUG_VALUE: P1 <- %R9D
	.loc	1 154 3                 # CoinGame.c:154:3
	movl	$.L.str.7, %edi
.Ltmp103:
.LBB4_7:                                # %if.then
	#DEBUG_VALUE: P1 <- %R9D
	.loc	1 149 3                 # CoinGame.c:149:3
	xorl	%eax, %eax
	callq	printf
.Ltmp104:
	.loc	1 150 3                 # CoinGame.c:150:3
	movl	$-1, %edi
	callq	exit
.Ltmp105:
.Lfunc_end4:
	.size	main, .Lfunc_end4-main
	.cfi_endproc

	.p2align	4, 0x90
	.type	maxMoney_polly_subfn,@function
maxMoney_polly_subfn:                   # @maxMoney_polly_subfn
.Lfunc_begin5:
	.cfi_startproc
# BB#0:                                 # %polly.par.setup
	pushq	%r15
.Ltmp106:
	.cfi_def_cfa_offset 16
	pushq	%r14
.Ltmp107:
	.cfi_def_cfa_offset 24
	pushq	%rbx
.Ltmp108:
	.cfi_def_cfa_offset 32
	subq	$16, %rsp
.Ltmp109:
	.cfi_def_cfa_offset 48
.Ltmp110:
	.cfi_offset %rbx, -32
.Ltmp111:
	.cfi_offset %r14, -24
.Ltmp112:
	.cfi_offset %r15, -16
	leaq	8(%rsp), %rdi
	leaq	(%rsp), %rsi
	callq	GOMP_loop_runtime_next
	testb	%al, %al
	je	.LBB5_2
# BB#1:
	leaq	8(%rsp), %r14
	leaq	(%rsp), %r15
	.p2align	4, 0x90
.LBB5_4:                                # %polly.par.loadIVBounds
                                        # =>This Loop Header: Depth=1
                                        #     Child Loop BB5_5 Depth 2
                                        #       Child Loop BB5_8 Depth 3
	movq	(%rsp), %rax
	movq	8(%rsp), %rcx
	addq	$-2, %rax
	leaq	X(,%rcx,4), %rbx
	.p2align	4, 0x90
.LBB5_5:                                # %polly.loop_header
                                        #   Parent Loop BB5_4 Depth=1
                                        # =>  This Loop Header: Depth=2
                                        #       Child Loop BB5_8 Depth 3
	movl	$5, %esi
	subq	%rcx, %rsi
	js	.LBB5_6
# BB#7:                                 # %polly.loop_preheader3
                                        #   in Loop: Header=BB5_5 Depth=2
	decq	%rsi
	movq	$-1, %rdi
	movq	%rbx, %rdx
	.p2align	4, 0x90
.LBB5_8:                                # %polly.loop_header2
                                        #   Parent Loop BB5_4 Depth=1
                                        #     Parent Loop BB5_5 Depth=2
                                        # =>    This Inner Loop Header: Depth=3
	movl	$0, (%rdx)
	incq	%rdi
	addq	$28, %rdx
	cmpq	%rsi, %rdi
	jle	.LBB5_8
.LBB5_6:                                # %polly.loop_exit4
                                        #   in Loop: Header=BB5_5 Depth=2
	addq	$4, %rbx
	cmpq	%rax, %rcx
	leaq	1(%rcx), %rcx
	jle	.LBB5_5
# BB#3:                                 # %polly.par.checkNext.loopexit
                                        #   in Loop: Header=BB5_4 Depth=1
	movq	%r14, %rdi
	movq	%r15, %rsi
	callq	GOMP_loop_runtime_next
	testb	%al, %al
	jne	.LBB5_4
.LBB5_2:                                # %polly.par.exit
	callq	GOMP_loop_end_nowait
	addq	$16, %rsp
	popq	%rbx
	popq	%r14
	popq	%r15
	retq
.Lfunc_end5:
	.size	maxMoney_polly_subfn, .Lfunc_end5-maxMoney_polly_subfn
	.cfi_endproc

	.p2align	4, 0x90
	.type	maxMoney_polly_subfn_10,@function
maxMoney_polly_subfn_10:                # @maxMoney_polly_subfn_10
.Lfunc_begin6:
	.cfi_startproc
# BB#0:                                 # %polly.par.setup
	pushq	%r15
.Ltmp113:
	.cfi_def_cfa_offset 16
	pushq	%r14
.Ltmp114:
	.cfi_def_cfa_offset 24
	pushq	%rbx
.Ltmp115:
	.cfi_def_cfa_offset 32
	subq	$16, %rsp
.Ltmp116:
	.cfi_def_cfa_offset 48
.Ltmp117:
	.cfi_offset %rbx, -32
.Ltmp118:
	.cfi_offset %r14, -24
.Ltmp119:
	.cfi_offset %r15, -16
	leaq	8(%rsp), %rdi
	leaq	(%rsp), %rsi
	callq	GOMP_loop_runtime_next
	testb	%al, %al
	je	.LBB6_2
# BB#1:
	leaq	8(%rsp), %r14
	leaq	(%rsp), %r15
	.p2align	4, 0x90
.LBB6_4:                                # %polly.par.loadIVBounds
                                        # =>This Loop Header: Depth=1
                                        #     Child Loop BB6_5 Depth 2
                                        #       Child Loop BB6_8 Depth 3
	movq	(%rsp), %rax
	movq	8(%rsp), %rcx
	addq	$-2, %rax
	leaq	Y(,%rcx,4), %rbx
	.p2align	4, 0x90
.LBB6_5:                                # %polly.loop_header
                                        #   Parent Loop BB6_4 Depth=1
                                        # =>  This Loop Header: Depth=2
                                        #       Child Loop BB6_8 Depth 3
	movl	$5, %esi
	subq	%rcx, %rsi
	js	.LBB6_6
# BB#7:                                 # %polly.loop_preheader3
                                        #   in Loop: Header=BB6_5 Depth=2
	decq	%rsi
	movq	$-1, %rdi
	movq	%rbx, %rdx
	.p2align	4, 0x90
.LBB6_8:                                # %polly.loop_header2
                                        #   Parent Loop BB6_4 Depth=1
                                        #     Parent Loop BB6_5 Depth=2
                                        # =>    This Inner Loop Header: Depth=3
	movl	$0, (%rdx)
	incq	%rdi
	addq	$28, %rdx
	cmpq	%rsi, %rdi
	jle	.LBB6_8
.LBB6_6:                                # %polly.loop_exit4
                                        #   in Loop: Header=BB6_5 Depth=2
	addq	$4, %rbx
	cmpq	%rax, %rcx
	leaq	1(%rcx), %rcx
	jle	.LBB6_5
# BB#3:                                 # %polly.par.checkNext.loopexit
                                        #   in Loop: Header=BB6_4 Depth=1
	movq	%r14, %rdi
	movq	%r15, %rsi
	callq	GOMP_loop_runtime_next
	testb	%al, %al
	jne	.LBB6_4
.LBB6_2:                                # %polly.par.exit
	callq	GOMP_loop_end_nowait
	addq	$16, %rsp
	popq	%rbx
	popq	%r14
	popq	%r15
	retq
.Lfunc_end6:
	.size	maxMoney_polly_subfn_10, .Lfunc_end6-maxMoney_polly_subfn_10
	.cfi_endproc

	.p2align	4, 0x90
	.type	maxMoney_polly_subfn_11,@function
maxMoney_polly_subfn_11:                # @maxMoney_polly_subfn_11
.Lfunc_begin7:
	.cfi_startproc
# BB#0:                                 # %polly.par.setup
	pushq	%r15
.Ltmp120:
	.cfi_def_cfa_offset 16
	pushq	%r14
.Ltmp121:
	.cfi_def_cfa_offset 24
	pushq	%rbx
.Ltmp122:
	.cfi_def_cfa_offset 32
	subq	$16, %rsp
.Ltmp123:
	.cfi_def_cfa_offset 48
.Ltmp124:
	.cfi_offset %rbx, -32
.Ltmp125:
	.cfi_offset %r14, -24
.Ltmp126:
	.cfi_offset %r15, -16
	leaq	8(%rsp), %rdi
	leaq	(%rsp), %rsi
	callq	GOMP_loop_runtime_next
	testb	%al, %al
	je	.LBB7_2
# BB#1:
	leaq	8(%rsp), %r14
	leaq	(%rsp), %r15
	.p2align	4, 0x90
.LBB7_4:                                # %polly.par.loadIVBounds
                                        # =>This Loop Header: Depth=1
                                        #     Child Loop BB7_5 Depth 2
                                        #       Child Loop BB7_8 Depth 3
	movq	(%rsp), %rax
	movq	8(%rsp), %rcx
	addq	$-2, %rax
	leaq	Z(,%rcx,4), %rbx
	.p2align	4, 0x90
.LBB7_5:                                # %polly.loop_header
                                        #   Parent Loop BB7_4 Depth=1
                                        # =>  This Loop Header: Depth=2
                                        #       Child Loop BB7_8 Depth 3
	movl	$5, %esi
	subq	%rcx, %rsi
	js	.LBB7_6
# BB#7:                                 # %polly.loop_preheader3
                                        #   in Loop: Header=BB7_5 Depth=2
	decq	%rsi
	movq	$-1, %rdi
	movq	%rbx, %rdx
	.p2align	4, 0x90
.LBB7_8:                                # %polly.loop_header2
                                        #   Parent Loop BB7_4 Depth=1
                                        #     Parent Loop BB7_5 Depth=2
                                        # =>    This Inner Loop Header: Depth=3
	movl	$0, (%rdx)
	incq	%rdi
	addq	$28, %rdx
	cmpq	%rsi, %rdi
	jle	.LBB7_8
.LBB7_6:                                # %polly.loop_exit4
                                        #   in Loop: Header=BB7_5 Depth=2
	addq	$4, %rbx
	cmpq	%rax, %rcx
	leaq	1(%rcx), %rcx
	jle	.LBB7_5
# BB#3:                                 # %polly.par.checkNext.loopexit
                                        #   in Loop: Header=BB7_4 Depth=1
	movq	%r14, %rdi
	movq	%r15, %rsi
	callq	GOMP_loop_runtime_next
	testb	%al, %al
	jne	.LBB7_4
.LBB7_2:                                # %polly.par.exit
	callq	GOMP_loop_end_nowait
	addq	$16, %rsp
	popq	%rbx
	popq	%r14
	popq	%r15
	retq
.Lfunc_end7:
	.size	maxMoney_polly_subfn_11, .Lfunc_end7-maxMoney_polly_subfn_11
	.cfi_endproc

	.type	V,@object               # @V
	.data
	.globl	V
	.p2align	4
V:
	.long	6                       # 0x6
	.long	5                       # 0x5
	.long	2                       # 0x2
	.long	7                       # 0x7
	.long	3                       # 0x3
	.long	5                       # 0x5
	.size	V, 24

	.type	sum_alice,@object       # @sum_alice
	.bss
	.globl	sum_alice
	.p2align	2
sum_alice:
	.long	0                       # 0x0
	.size	sum_alice, 4

	.type	sum_bob,@object         # @sum_bob
	.globl	sum_bob
	.p2align	2
sum_bob:
	.long	0                       # 0x0
	.size	sum_bob, 4

	.type	.L.str,@object          # @.str
	.section	.rodata.str1.1,"aMS",@progbits,1
.L.str:
	.asciz	"Number of coins = %d\n"
	.size	.L.str, 22

	.type	M,@object               # @M
	.comm	M,144,16
	.type	.L.str.1,@object        # @.str.1
.L.str.1:
	.asciz	"Alice take coin "
	.size	.L.str.1, 17

	.type	.L.str.2,@object        # @.str.2
.L.str.2:
	.asciz	"Bob take coin "
	.size	.L.str.2, 15

	.type	.L.str.3,@object        # @.str.3
.L.str.3:
	.asciz	"(%d, $%d)"
	.size	.L.str.3, 10

	.type	.L.str.4,@object        # @.str.4
.L.str.4:
	.asciz	", "
	.size	.L.str.4, 3

	.type	Y,@object               # @Y
	.comm	Y,144,16
	.type	X,@object               # @X
	.comm	X,144,16
	.type	Z,@object               # @Z
	.comm	Z,144,16
	.type	.L.str.6,@object        # @.str.6
.L.str.6:
	.asciz	"Alice's sum is Wrong!!!"
	.size	.L.str.6, 24

	.type	.L.str.7,@object        # @.str.7
.L.str.7:
	.asciz	"Alice's sum <= Bob's sum!!!"
	.size	.L.str.7, 28

	.type	.L.str.8,@object        # @.str.8
.L.str.8:
	.asciz	"\nThe total amount of money (maximum) Alice get is %d."
	.size	.L.str.8, 54

	.type	.L.str.9,@object        # @.str.9
.L.str.9:
	.asciz	"\nThe total amount of money (maximum) Bob get is %d."
	.size	.L.str.9, 52

	.type	.Lstr,@object           # @str
.Lstr:
	.asciz	"."
	.size	.Lstr, 2

	.section	".note.GNU-stack","",@progbits