	.text
	.file	"VectorMult.nonevector.ll"
	.section	.rodata.cst16,"aM",@progbits,16
	.p2align	4
.LCPI0_0:
	.long	1                       # 0x1
	.long	1                       # 0x1
	.long	1                       # 0x1
	.long	1                       # 0x1
	.text
	.globl	main
	.p2align	4, 0x90
	.type	main,@function
main:                                   # @main
.Lfunc_begin0:
	.file	1 "VectorMult.c"
	.loc	1 8 0                   # VectorMult.c:8:0
	.cfi_startproc
# BB#0:                                 # %entry
	pushq	%rbp
.Ltmp0:
	.cfi_def_cfa_offset 16
.Ltmp1:
	.cfi_offset %rbp, -16
	movq	%rsp, %rbp
.Ltmp2:
	.cfi_def_cfa_register %rbp
.Ltmp3:
	.loc	1 12 18 prologue_end    # VectorMult.c:12:18
	pushq	%r15
	pushq	%r14
	pushq	%rbx
	pushq	%rax
.Ltmp4:
	.cfi_offset %rbx, -40
.Ltmp5:
	.cfi_offset %r14, -32
.Ltmp6:
	.cfi_offset %r15, -24
	#DEBUG_VALUE: main:argc <- %EDI
	#DEBUG_VALUE: main:args <- %RSI
	movl	$41943040, %edi         # imm = 0x2800000
.Ltmp7:
	callq	malloc
	movq	%rax, %r14
	.loc	1 13 18                 # VectorMult.c:13:18
	movl	$41943040, %edi         # imm = 0x2800000
	callq	malloc
	movq	%rax, %r15
	.loc	1 14 20                 # VectorMult.c:14:20
	movl	$40960, %edi            # imm = 0xA000
	callq	malloc
.Ltmp8:
	#DEBUG_VALUE: main:r <- 0
	.loc	1 17 2 discriminator 1  # VectorMult.c:17:2
	leaq	112(%r15), %r8
	leaq	112(%r14), %rdx
	xorl	%esi, %esi
.Ltmp9:
	.loc	1 20 13                 # VectorMult.c:20:13
	movdqa	.LCPI0_0(%rip), %xmm0   # xmm0 = [1,1,1,1]
.Ltmp10:
	.p2align	4, 0x90
.LBB0_1:                                # %for.cond3.preheader
                                        # =>This Loop Header: Depth=1
                                        #     Child Loop BB0_2 Depth 2
	.loc	1 19 3 discriminator 1  # VectorMult.c:19:3
	movq	%rdx, %rdi
	movq	%r8, %rcx
	movl	$1024, %ebx             # imm = 0x400
	.p2align	4, 0x90
.LBB0_2:                                # %vector.body
                                        #   Parent Loop BB0_1 Depth=1
                                        # =>  This Inner Loop Header: Depth=2
.Ltmp11:
	.loc	1 20 13                 # VectorMult.c:20:13
	movdqu	%xmm0, -112(%rdi)
	movdqu	%xmm0, -96(%rdi)
	.loc	1 21 13                 # VectorMult.c:21:13
	movdqu	%xmm0, -112(%rcx)
	movdqu	%xmm0, -96(%rcx)
	.loc	1 20 13                 # VectorMult.c:20:13
	movdqu	%xmm0, -80(%rdi)
	movdqu	%xmm0, -64(%rdi)
	.loc	1 21 13                 # VectorMult.c:21:13
	movdqu	%xmm0, -80(%rcx)
	movdqu	%xmm0, -64(%rcx)
	.loc	1 20 13                 # VectorMult.c:20:13
	movdqu	%xmm0, -48(%rdi)
	movdqu	%xmm0, -32(%rdi)
	.loc	1 21 13                 # VectorMult.c:21:13
	movdqu	%xmm0, -48(%rcx)
	movdqu	%xmm0, -32(%rcx)
	.loc	1 20 13                 # VectorMult.c:20:13
	movdqu	%xmm0, -16(%rdi)
	movdqu	%xmm0, (%rdi)
	.loc	1 21 13                 # VectorMult.c:21:13
	movdqu	%xmm0, -16(%rcx)
	movdqu	%xmm0, (%rcx)
.Ltmp12:
	.loc	1 19 3 discriminator 1  # VectorMult.c:19:3
	subq	$-128, %rcx
	subq	$-128, %rdi
	addq	$-32, %rbx
	jne	.LBB0_2
.Ltmp13:
# BB#3:                                 # %for.inc10
                                        #   in Loop: Header=BB0_1 Depth=1
	.loc	1 17 15 discriminator 2 # VectorMult.c:17:15
	incq	%rsi
.Ltmp14:
	#DEBUG_VALUE: main:r <- %RSI
	.loc	1 17 2 is_stmt 0 discriminator 1 # VectorMult.c:17:2
	addq	$4096, %r8              # imm = 0x1000
	addq	$4096, %rdx             # imm = 0x1000
	cmpq	$10240, %rsi            # imm = 0x2800
	jne	.LBB0_1
.Ltmp15:
# BB#4:                                 # %for.cond13.preheader
	#DEBUG_VALUE: main:r <- %RSI
	.loc	1 25 2 is_stmt 1 discriminator 1 # VectorMult.c:25:2
	addq	$48, %r15
	addq	$48, %r14
	xorl	%edx, %edx
	movl	$6, %ecx
.Ltmp16:
	.p2align	4, 0x90
.LBB0_5:                                # %for.cond17.preheader
                                        # =>This Loop Header: Depth=1
                                        #     Child Loop BB0_6 Depth 2
	pxor	%xmm0, %xmm0
.Ltmp17:
	.loc	1 27 3 discriminator 1  # VectorMult.c:27:3
	movq	%r14, %rsi
	movq	%r15, %rdi
	movl	$1024, %ebx             # imm = 0x400
	.p2align	4, 0x90
.LBB0_6:                                # %vector.body4
                                        #   Parent Loop BB0_5 Depth=1
                                        # =>  This Inner Loop Header: Depth=2
.Ltmp18:
	.loc	1 29 15                 # VectorMult.c:29:15
	movdqu	-48(%rsi), %xmm4
	movdqu	-32(%rsi), %xmm5
	movdqu	-16(%rsi), %xmm9
	movdqu	(%rsi), %xmm8
	.loc	1 29 24 is_stmt 0       # VectorMult.c:29:24
	movdqu	-48(%rdi), %xmm6
	movdqu	-32(%rdi), %xmm7
	movdqu	-16(%rdi), %xmm1
	movdqu	(%rdi), %xmm2
	.loc	1 29 23                 # VectorMult.c:29:23
	pshufd	$245, %xmm6, %xmm3      # xmm3 = xmm6[1,1,3,3]
	pmuludq	%xmm4, %xmm6
	pshufd	$232, %xmm6, %xmm6      # xmm6 = xmm6[0,2,2,3]
	pshufd	$245, %xmm4, %xmm4      # xmm4 = xmm4[1,1,3,3]
	pmuludq	%xmm3, %xmm4
	pshufd	$232, %xmm4, %xmm3      # xmm3 = xmm4[0,2,2,3]
	punpckldq	%xmm3, %xmm6    # xmm6 = xmm6[0],xmm3[0],xmm6[1],xmm3[1]
	.loc	1 29 13                 # VectorMult.c:29:13
	paddd	%xmm0, %xmm6
	.loc	1 29 23                 # VectorMult.c:29:23
	pshufd	$245, %xmm7, %xmm0      # xmm0 = xmm7[1,1,3,3]
	pmuludq	%xmm5, %xmm7
	pshufd	$232, %xmm7, %xmm3      # xmm3 = xmm7[0,2,2,3]
	pshufd	$245, %xmm5, %xmm4      # xmm4 = xmm5[1,1,3,3]
	pmuludq	%xmm0, %xmm4
	pshufd	$232, %xmm4, %xmm0      # xmm0 = xmm4[0,2,2,3]
	punpckldq	%xmm0, %xmm3    # xmm3 = xmm3[0],xmm0[0],xmm3[1],xmm0[1]
	.loc	1 29 13                 # VectorMult.c:29:13
	paddd	%xmm6, %xmm3
	.loc	1 29 23                 # VectorMult.c:29:23
	pshufd	$245, %xmm1, %xmm0      # xmm0 = xmm1[1,1,3,3]
	pmuludq	%xmm9, %xmm1
	pshufd	$232, %xmm1, %xmm1      # xmm1 = xmm1[0,2,2,3]
	pshufd	$245, %xmm9, %xmm4      # xmm4 = xmm9[1,1,3,3]
	pmuludq	%xmm0, %xmm4
	pshufd	$232, %xmm4, %xmm0      # xmm0 = xmm4[0,2,2,3]
	punpckldq	%xmm0, %xmm1    # xmm1 = xmm1[0],xmm0[0],xmm1[1],xmm0[1]
	.loc	1 29 13                 # VectorMult.c:29:13
	paddd	%xmm3, %xmm1
	.loc	1 29 23                 # VectorMult.c:29:23
	pshufd	$245, %xmm2, %xmm3      # xmm3 = xmm2[1,1,3,3]
	pmuludq	%xmm8, %xmm2
	pshufd	$232, %xmm2, %xmm0      # xmm0 = xmm2[0,2,2,3]
	pshufd	$245, %xmm8, %xmm2      # xmm2 = xmm8[1,1,3,3]
	pmuludq	%xmm3, %xmm2
	pshufd	$232, %xmm2, %xmm2      # xmm2 = xmm2[0,2,2,3]
	punpckldq	%xmm2, %xmm0    # xmm0 = xmm0[0],xmm2[0],xmm0[1],xmm2[1]
	.loc	1 29 13                 # VectorMult.c:29:13
	paddd	%xmm1, %xmm0
.Ltmp19:
	.loc	1 27 3 is_stmt 1 discriminator 1 # VectorMult.c:27:3
	addq	$64, %rdi
	addq	$64, %rsi
	addq	$-16, %rbx
	jne	.LBB0_6
# BB#7:                                 # %middle.block5
                                        #   in Loop: Header=BB0_5 Depth=1
.Ltmp20:
	.loc	1 29 13                 # VectorMult.c:29:13
	pshufd	$78, %xmm0, %xmm1       # xmm1 = xmm0[2,3,0,1]
	paddd	%xmm0, %xmm1
	pshufd	$229, %xmm1, %xmm0      # xmm0 = xmm1[1,1,2,3]
	paddd	%xmm1, %xmm0
.Ltmp21:
	.loc	1 31 10                 # VectorMult.c:31:10
	movd	%xmm0, (%rax,%rdx,4)
.Ltmp22:
	.loc	1 25 15 discriminator 2 # VectorMult.c:25:15
	incq	%rdx
.Ltmp23:
	#DEBUG_VALUE: main:r <- %RDX
	.loc	1 25 2 is_stmt 0 discriminator 1 # VectorMult.c:25:2
	addq	$4096, %r15             # imm = 0x1000
	addq	$4096, %r14             # imm = 0x1000
	cmpq	$10240, %rdx            # imm = 0x2800
	jne	.LBB0_5
.Ltmp24:
# BB#8:
	#DEBUG_VALUE: main:r <- %RDX
	pxor	%xmm1, %xmm1
	pxor	%xmm0, %xmm0
.Ltmp25:
	.p2align	4, 0x90
.LBB0_9:                                # %vector.body21
                                        # =>This Inner Loop Header: Depth=1
	.loc	1 36 19 is_stmt 1       # VectorMult.c:36:19
	movq	-24(%rax,%rcx,4), %xmm2 # xmm2 = mem[0],zero
	movq	-16(%rax,%rcx,4), %xmm3 # xmm3 = mem[0],zero
	movdqa	%xmm2, %xmm4
	psrad	$31, %xmm4
	punpckldq	%xmm4, %xmm2    # xmm2 = xmm2[0],xmm4[0],xmm2[1],xmm4[1]
	movdqa	%xmm3, %xmm4
	psrad	$31, %xmm4
	punpckldq	%xmm4, %xmm3    # xmm3 = xmm3[0],xmm4[0],xmm3[1],xmm4[1]
	.loc	1 36 17 is_stmt 0       # VectorMult.c:36:17
	paddq	%xmm1, %xmm2
	paddq	%xmm0, %xmm3
	.loc	1 36 19                 # VectorMult.c:36:19
	movq	-8(%rax,%rcx,4), %xmm1  # xmm1 = mem[0],zero
	movq	(%rax,%rcx,4), %xmm0    # xmm0 = mem[0],zero
	movdqa	%xmm1, %xmm4
	psrad	$31, %xmm4
	punpckldq	%xmm4, %xmm1    # xmm1 = xmm1[0],xmm4[0],xmm1[1],xmm4[1]
	movdqa	%xmm0, %xmm4
	psrad	$31, %xmm4
	punpckldq	%xmm4, %xmm0    # xmm0 = xmm0[0],xmm4[0],xmm0[1],xmm4[1]
	.loc	1 36 17                 # VectorMult.c:36:17
	paddq	%xmm2, %xmm1
	paddq	%xmm3, %xmm0
.Ltmp26:
	.loc	1 34 12 is_stmt 1       # VectorMult.c:34:12
	addq	$8, %rcx
	cmpq	$10246, %rcx            # imm = 0x2806
	jne	.LBB0_9
# BB#10:                                # %middle.block22
.Ltmp27:
	.loc	1 36 17                 # VectorMult.c:36:17
	paddq	%xmm1, %xmm0
	pshufd	$78, %xmm0, %xmm1       # xmm1 = xmm0[2,3,0,1]
	paddq	%xmm0, %xmm1
	movd	%xmm1, %rax
.Ltmp28:
	.loc	1 40 11                 # VectorMult.c:40:11
	cmpq	$10485760, %rax         # imm = 0xA00000
.Ltmp29:
	.loc	1 40 5 is_stmt 0        # VectorMult.c:40:5
	jne	.LBB0_12
# BB#11:                                # %if.end
	.loc	1 46 2 is_stmt 1        # VectorMult.c:46:2
	movl	$6, %edi
	movl	$.L.str.1, %esi
	callq	setlocale
	.loc	1 47 2                  # VectorMult.c:47:2
	movl	$.L.str.2, %edi
	movl	$10485760, %esi         # imm = 0xA00000
	movl	$1024, %edx             # imm = 0x400
	movl	$10485760, %ecx         # imm = 0xA00000
	xorl	%eax, %eax
	callq	printf
	.loc	1 49 2                  # VectorMult.c:49:2
	xorl	%eax, %eax
	addq	$8, %rsp
	popq	%rbx
	popq	%r14
	popq	%r15
	popq	%rbp
	retq
.LBB0_12:                               # %if.then
.Ltmp30:
	.loc	1 41 3                  # VectorMult.c:41:3
	movl	$.L.str, %edi
	xorl	%eax, %eax
	callq	printf
	.loc	1 42 3                  # VectorMult.c:42:3
	movl	$-2, %edi
	callq	exit
.Ltmp31:
.Lfunc_end0:
	.size	main, .Lfunc_end0-main
	.cfi_endproc

	.type	.L.str,@object          # @.str
	.section	.rodata.str1.1,"aMS",@progbits,1
.L.str:
	.asciz	"fail to multiply two unit vectors"
	.size	.L.str, 34

	.type	.L.str.1,@object        # @.str.1
.L.str.1:
	.zero	1
	.size	.L.str.1, 1

	.type	.L.str.2,@object        # @.str.2
.L.str.2:
	.asciz	"Pass the %'lld vector multiplication test case with local vector size = %d\nThe Dot Product = %'lld\n"
	.size	.L.str.2, 100

	.section	".note.GNU-stack","",@progbits