	.text
	.file	"VectorMult.none.ll"
	.globl	main
	.p2align	4, 0x90
	.type	main,@function
main:                                   # @main
.Lfunc_begin0:
	.file	1 "VectorMult.c"
	.loc	1 8 0                   # VectorMult.c:8:0
	.cfi_startproc
# BB#0:                                 # %entry.split
	pushq	%rbp
.Ltmp0:
	.cfi_def_cfa_offset 16
.Ltmp1:
	.cfi_offset %rbp, -16
	movq	%rsp, %rbp
.Ltmp2:
	.cfi_def_cfa_register %rbp
.Ltmp3:
	.loc	1 12 18 prologue_end    # VectorMult.c:12:18
	pushq	%r15
	pushq	%r14
	pushq	%r12
	pushq	%rbx
.Ltmp4:
	.cfi_offset %rbx, -48
.Ltmp5:
	.cfi_offset %r12, -40
.Ltmp6:
	.cfi_offset %r14, -32
.Ltmp7:
	.cfi_offset %r15, -24
	#DEBUG_VALUE: main:argc <- %EDI
	#DEBUG_VALUE: main:args <- %RSI
	movl	$41943040, %edi         # imm = 0x2800000
.Ltmp8:
	callq	malloc
	movq	%rax, %r14
	.loc	1 13 18                 # VectorMult.c:13:18
	movl	$41943040, %edi         # imm = 0x2800000
	callq	malloc
	movq	%rax, %r12
	.loc	1 14 20                 # VectorMult.c:14:20
	movl	$40960, %edi            # imm = 0xA000
	callq	malloc
	xorl	%r8d, %r8d
.Ltmp9:
	#DEBUG_VALUE: main:r <- 0
	movq	%r14, %rdx
	movq	%r12, %rbx
.Ltmp10:
	.p2align	4, 0x90
.LBB0_1:                                # %for.cond3.preheader
                                        # =>This Loop Header: Depth=1
                                        #     Child Loop BB0_2 Depth 2
	movq	%rdx, %rdi
	movq	%rbx, %rsi
	movl	$1024, %ecx             # imm = 0x400
	.p2align	4, 0x90
.LBB0_2:                                # %for.body5
                                        #   Parent Loop BB0_1 Depth=1
                                        # =>  This Inner Loop Header: Depth=2
.Ltmp11:
	.loc	1 20 13                 # VectorMult.c:20:13
	movl	$1, (%rdi)
	.loc	1 21 13                 # VectorMult.c:21:13
	movl	$1, (%rsi)
.Ltmp12:
	.loc	1 19 3 discriminator 1  # VectorMult.c:19:3
	addq	$4, %rsi
	addq	$4, %rdi
	decq	%rcx
	jne	.LBB0_2
.Ltmp13:
# BB#3:                                 # %for.inc10
                                        #   in Loop: Header=BB0_1 Depth=1
	.loc	1 17 15 discriminator 2 # VectorMult.c:17:15
	incq	%r8
.Ltmp14:
	#DEBUG_VALUE: main:r <- %R8
	.loc	1 17 2 is_stmt 0 discriminator 1 # VectorMult.c:17:2
	addq	$4096, %rbx             # imm = 0x1000
	addq	$4096, %rdx             # imm = 0x1000
	cmpq	$10240, %r8             # imm = 0x2800
	jne	.LBB0_1
.Ltmp15:
# BB#4:                                 # %for.cond13.preheader
	#DEBUG_VALUE: main:r <- %R8
	xorl	%r15d, %r15d
	xorl	%r8d, %r8d
.Ltmp16:
	.p2align	4, 0x90
.LBB0_5:                                # %for.cond17.preheader
                                        # =>This Loop Header: Depth=1
                                        #     Child Loop BB0_6 Depth 2
	movq	%r14, %rdx
	movq	%r12, %rsi
	movl	$1024, %ebx             # imm = 0x400
	xorl	%edi, %edi
	.p2align	4, 0x90
.LBB0_6:                                # %for.inc31
                                        #   Parent Loop BB0_5 Depth=1
                                        # =>  This Inner Loop Header: Depth=2
.Ltmp17:
	.loc	1 29 24 is_stmt 1       # VectorMult.c:29:24
	movl	(%rsi), %ecx
	.loc	1 29 23 is_stmt 0       # VectorMult.c:29:23
	imull	(%rdx), %ecx
	.loc	1 29 13                 # VectorMult.c:29:13
	addl	%ecx, %edi
.Ltmp18:
	#DEBUG_VALUE: tmp <- %EDI
	.loc	1 27 3 is_stmt 1 discriminator 1 # VectorMult.c:27:3
	addq	$4, %rsi
	addq	$4, %rdx
	decq	%rbx
	jne	.LBB0_6
.Ltmp19:
# BB#7:                                 # %for.end33
                                        #   in Loop: Header=BB0_5 Depth=1
	#DEBUG_VALUE: tmp <- %EDI
	.loc	1 31 10                 # VectorMult.c:31:10
	movl	%edi, (%rax,%r8,4)
.Ltmp20:
	.loc	1 25 15 discriminator 2 # VectorMult.c:25:15
	incq	%r8
.Ltmp21:
	#DEBUG_VALUE: main:r <- %R8
	.loc	1 25 2 is_stmt 0 discriminator 1 # VectorMult.c:25:2
	addq	$4096, %r12             # imm = 0x1000
	addq	$4096, %r14             # imm = 0x1000
	cmpq	$10240, %r8             # imm = 0x2800
	jne	.LBB0_5
.Ltmp22:
# BB#8:
	#DEBUG_VALUE: tmp <- %EDI
	#DEBUG_VALUE: main:r <- %R8
	xorl	%ecx, %ecx
.Ltmp23:
	.p2align	4, 0x90
.LBB0_9:                                # %for.inc46
                                        # =>This Inner Loop Header: Depth=1
	.loc	1 36 19 is_stmt 1       # VectorMult.c:36:19
	movslq	(%rax,%rcx,4), %rdx
	.loc	1 36 17 is_stmt 0       # VectorMult.c:36:17
	addq	%rdx, %r15
.Ltmp24:
	#DEBUG_VALUE: main:total <- %R15
	.loc	1 35 15 is_stmt 1 discriminator 2 # VectorMult.c:35:15
	incq	%rcx
.Ltmp25:
	#DEBUG_VALUE: main:r <- %RCX
	.loc	1 35 2 is_stmt 0 discriminator 1 # VectorMult.c:35:2
	cmpq	$10240, %rcx            # imm = 0x2800
	jne	.LBB0_9
.Ltmp26:
# BB#10:                                # %for.end48
	#DEBUG_VALUE: main:r <- %RCX
	#DEBUG_VALUE: main:total <- %R15
	.loc	1 40 11 is_stmt 1       # VectorMult.c:40:11
	cmpq	$10485760, %r15         # imm = 0xA00000
.Ltmp27:
	.loc	1 40 5 is_stmt 0        # VectorMult.c:40:5
	jne	.LBB0_12
.Ltmp28:
# BB#11:                                # %if.end
	#DEBUG_VALUE: main:total <- %R15
	#DEBUG_VALUE: main:r <- %RCX
	.loc	1 46 2 is_stmt 1        # VectorMult.c:46:2
	movl	$6, %edi
	movl	$.L.str.1, %esi
	callq	setlocale
	.loc	1 47 2                  # VectorMult.c:47:2
	movl	$.L.str.2, %edi
	movl	$10485760, %esi         # imm = 0xA00000
	movl	$1024, %edx             # imm = 0x400
	xorl	%eax, %eax
	movq	%r15, %rcx
.Ltmp29:
	callq	printf
	.loc	1 49 2                  # VectorMult.c:49:2
	xorl	%eax, %eax
	popq	%rbx
	popq	%r12
	popq	%r14
	popq	%r15
.Ltmp30:
	popq	%rbp
	retq
.LBB0_12:                               # %if.then
.Ltmp31:
	#DEBUG_VALUE: main:total <- %R15
	#DEBUG_VALUE: main:r <- %RCX
	.loc	1 41 3                  # VectorMult.c:41:3
	movl	$.L.str, %edi
	xorl	%eax, %eax
	callq	printf
	.loc	1 42 3                  # VectorMult.c:42:3
	movl	$-2, %edi
	callq	exit
.Ltmp32:
.Lfunc_end0:
	.size	main, .Lfunc_end0-main
	.cfi_endproc

	.type	.L.str,@object          # @.str
	.section	.rodata.str1.1,"aMS",@progbits,1
.L.str:
	.asciz	"fail to multiply two unit vectors"
	.size	.L.str, 34

	.type	.L.str.1,@object        # @.str.1
.L.str.1:
	.zero	1
	.size	.L.str.1, 1

	.type	.L.str.2,@object        # @.str.2
.L.str.2:
	.asciz	"Pass the %'lld vector multiplication test case with local vector size = %d\nThe Dot Product = %'lld\n"
	.size	.L.str.2, 100

	.section	".note.GNU-stack","",@progbits