	.text
	.file	"VectorMult.vector.ll"
	.globl	main
	.p2align	4, 0x90
	.type	main,@function
main:                                   # @main
.Lfunc_begin0:
	.file	1 "VectorMult.c"
	.loc	1 8 0                   # VectorMult.c:8:0
	.cfi_startproc
# BB#0:                                 # %polly.loop_preheader
	pushq	%rbp
.Ltmp0:
	.cfi_def_cfa_offset 16
.Ltmp1:
	.cfi_offset %rbp, -16
	movq	%rsp, %rbp
.Ltmp2:
	.cfi_def_cfa_register %rbp
.Ltmp3:
	.loc	1 12 18 prologue_end    # VectorMult.c:12:18
	pushq	%r15
	pushq	%r14
	pushq	%r13
	pushq	%r12
	pushq	%rbx
	subq	$40, %rsp
.Ltmp4:
	.cfi_offset %rbx, -56
.Ltmp5:
	.cfi_offset %r12, -48
.Ltmp6:
	.cfi_offset %r13, -40
.Ltmp7:
	.cfi_offset %r14, -32
.Ltmp8:
	.cfi_offset %r15, -24
	#DEBUG_VALUE: main:argc <- %EDI
	#DEBUG_VALUE: main:args <- %RSI
	movl	$41943040, %edi         # imm = 0x2800000
.Ltmp9:
	callq	malloc
	movq	%rax, %rbx
	.loc	1 13 18                 # VectorMult.c:13:18
	movq	%rbx, -64(%rbp)         # 8-byte Spill
	movl	$41943040, %edi         # imm = 0x2800000
	callq	malloc
	movq	%rax, %r15
	.loc	1 14 20                 # VectorMult.c:14:20
	movl	$40960, %edi            # imm = 0xA000
	callq	malloc
.Ltmp10:
	#DEBUG_VALUE: main:r <- 0
	leaq	12(%rbx), %r8
	leaq	12(%r15), %r10
	xorl	%r9d, %r9d
.Ltmp11:
	.p2align	4, 0x90
.LBB0_1:                                # %polly.loop_header
                                        # =>This Loop Header: Depth=1
                                        #     Child Loop BB0_2 Depth 2
                                        #       Child Loop BB0_3 Depth 3
                                        #         Child Loop BB0_4 Depth 4
	movq	%r8, %r11
	movq	%r10, %r12
	xorl	%r13d, %r13d
	.p2align	4, 0x90
.LBB0_2:                                # %polly.loop_header68
                                        #   Parent Loop BB0_1 Depth=1
                                        # =>  This Loop Header: Depth=2
                                        #       Child Loop BB0_3 Depth 3
                                        #         Child Loop BB0_4 Depth 4
	movq	%r11, %rcx
	movq	%r12, %r14
	xorl	%edi, %edi
	.p2align	4, 0x90
.LBB0_3:                                # %polly.loop_header74
                                        #   Parent Loop BB0_1 Depth=1
                                        #     Parent Loop BB0_2 Depth=2
                                        # =>    This Loop Header: Depth=3
                                        #         Child Loop BB0_4 Depth 4
	movq	$-1, %rbx
	movq	%rcx, %rsi
	movq	%r14, %rdx
	.p2align	4, 0x90
.LBB0_4:                                # %polly.stmt.polly.loop_preheader20
                                        #   Parent Loop BB0_1 Depth=1
                                        #     Parent Loop BB0_2 Depth=2
                                        #       Parent Loop BB0_3 Depth=3
                                        # =>      This Inner Loop Header: Depth=4
	movl	$1, -12(%rsi)
	movl	$1, -12(%rdx)
	movl	$1, -8(%rsi)
	movl	$1, -8(%rdx)
	movl	$1, -4(%rsi)
	movl	$1, -4(%rdx)
	movl	$1, (%rsi)
	movl	$1, (%rdx)
	incq	%rbx
	addq	$16, %rdx
	addq	$16, %rsi
	cmpq	$7, %rbx
	jl	.LBB0_4
# BB#5:                                 # %polly.loop_exit82
                                        #   in Loop: Header=BB0_3 Depth=3
	addq	$4096, %r14             # imm = 0x1000
	addq	$4096, %rcx             # imm = 0x1000
	cmpq	$31, %rdi
	leaq	1(%rdi), %rdi
	jl	.LBB0_3
# BB#6:                                 # %polly.loop_exit76
                                        #   in Loop: Header=BB0_2 Depth=2
	subq	$-128, %r12
	subq	$-128, %r11
	cmpq	$31, %r13
	leaq	1(%r13), %r13
	jl	.LBB0_2
# BB#7:                                 # %polly.loop_exit70
                                        #   in Loop: Header=BB0_1 Depth=1
	addq	$131072, %r10           # imm = 0x20000
	addq	$131072, %r8            # imm = 0x20000
	cmpq	$319, %r9               # imm = 0x13F
	leaq	1(%r9), %r9
	jl	.LBB0_1
# BB#8:                                 # %polly.loop_preheader133
	movq	-64(%rbp), %r10         # 8-byte Reload
	addq	$12, %r10
	addq	$12, %r15
	xorl	%r8d, %r8d
	.p2align	4, 0x90
.LBB0_9:                                # %polly.stmt.polly.loop_preheader35
                                        # =>This Loop Header: Depth=1
                                        #     Child Loop BB0_10 Depth 2
	movl	$0, -44(%rbp)
	movq	$-1, %rdx
	movq	%r10, %rsi
	movq	%r15, %rdi
	movl	$1020, %r9d             # imm = 0x3FC
	.p2align	4, 0x90
.LBB0_10:                               # %polly.stmt.polly.stmt.for.inc31
                                        #   Parent Loop BB0_9 Depth=1
                                        # =>  This Inner Loop Header: Depth=2
	movl	-12(%rdi), %ecx
	movl	-8(%rdi), %ebx
.Ltmp12:
	.loc	1 29 23                 # VectorMult.c:29:23
	imull	-12(%rsi), %ecx
	.loc	1 29 13 is_stmt 0       # VectorMult.c:29:13
	addl	-44(%rbp), %ecx
	.loc	1 29 23                 # VectorMult.c:29:23
	imull	-8(%rsi), %ebx
	.loc	1 29 13                 # VectorMult.c:29:13
	addl	%ecx, %ebx
	movl	-4(%rdi), %ecx
	.loc	1 29 23                 # VectorMult.c:29:23
	imull	-4(%rsi), %ecx
	.loc	1 29 13                 # VectorMult.c:29:13
	addl	%ebx, %ecx
	movl	(%rdi), %ebx
	.loc	1 29 23                 # VectorMult.c:29:23
	imull	(%rsi), %ebx
	.loc	1 29 13                 # VectorMult.c:29:13
	addl	%ecx, %ebx
	movl	%ebx, -44(%rbp)
	movl	%ebx, -48(%rbp)
	incq	%rdx
	addq	$-4, %r9
	addq	$16, %rdi
	addq	$16, %rsi
	cmpq	$255, %rdx
	jl	.LBB0_10
.Ltmp13:
# BB#11:                                # %polly.stmt.polly.stmt.for.end33
                                        #   in Loop: Header=BB0_9 Depth=1
	movl	-48(%rbp), %edx
	movl	%edx, (%rax,%r8,4)
	addq	$4096, %r15             # imm = 0x1000
	addq	$4096, %r10             # imm = 0x1000
	cmpq	$10239, %r8             # imm = 0x27FF
	leaq	1(%r8), %r8
	jl	.LBB0_9
# BB#12:                                # %polly.stmt.polly.stmt.for.inc46.preheader
	movq	$0, -56(%rbp)
	movq	$-1, %rcx
	movl	$4, %edx
	.p2align	4, 0x90
.LBB0_13:                               # %polly.stmt.polly.stmt.for.inc46
                                        # =>This Inner Loop Header: Depth=1
.Ltmp14:
	.loc	1 36 19 is_stmt 1       # VectorMult.c:36:19
	movslq	-16(%rax,%rdx,4), %rsi
	.loc	1 36 17 is_stmt 0       # VectorMult.c:36:17
	addq	-56(%rbp), %rsi
	.loc	1 36 19                 # VectorMult.c:36:19
	movslq	-12(%rax,%rdx,4), %rdi
	.loc	1 36 17                 # VectorMult.c:36:17
	addq	%rsi, %rdi
	.loc	1 36 19                 # VectorMult.c:36:19
	movslq	-8(%rax,%rdx,4), %rsi
	.loc	1 36 17                 # VectorMult.c:36:17
	addq	%rdi, %rsi
	.loc	1 36 19                 # VectorMult.c:36:19
	movslq	-4(%rax,%rdx,4), %rdi
	.loc	1 36 17                 # VectorMult.c:36:17
	addq	%rsi, %rdi
	.loc	1 36 19                 # VectorMult.c:36:19
	movslq	(%rax,%rdx,4), %rsi
	.loc	1 36 17                 # VectorMult.c:36:17
	addq	%rdi, %rsi
	movq	%rsi, -56(%rbp)
	movq	%rsi, -72(%rbp)
	incq	%rcx
	addq	$5, %rdx
	cmpq	$2047, %rcx             # imm = 0x7FF
	jl	.LBB0_13
.Ltmp15:
# BB#14:                                # %polly.exiting65
	movq	-72(%rbp), %rax
.Ltmp16:
	.loc	1 40 11 is_stmt 1       # VectorMult.c:40:11
	cmpq	$10485760, %rax         # imm = 0xA00000
.Ltmp17:
	.loc	1 40 5 is_stmt 0        # VectorMult.c:40:5
	jne	.LBB0_16
# BB#15:                                # %if.end
	.loc	1 46 2 is_stmt 1        # VectorMult.c:46:2
	movl	$6, %edi
	movl	$.L.str.1, %esi
	callq	setlocale
	.loc	1 47 2                  # VectorMult.c:47:2
	movl	$.L.str.2, %edi
	movl	$10485760, %esi         # imm = 0xA00000
	movl	$1024, %edx             # imm = 0x400
	movl	$10485760, %ecx         # imm = 0xA00000
	xorl	%eax, %eax
	callq	printf
	.loc	1 49 2                  # VectorMult.c:49:2
	xorl	%eax, %eax
	addq	$40, %rsp
	popq	%rbx
	popq	%r12
	popq	%r13
	popq	%r14
	popq	%r15
	popq	%rbp
	retq
.LBB0_16:                               # %if.then
.Ltmp18:
	.loc	1 41 3                  # VectorMult.c:41:3
	movl	$.L.str, %edi
	xorl	%eax, %eax
	callq	printf
	.loc	1 42 3                  # VectorMult.c:42:3
	movl	$-2, %edi
	callq	exit
.Ltmp19:
.Lfunc_end0:
	.size	main, .Lfunc_end0-main
	.cfi_endproc

	.type	.L.str,@object          # @.str
	.section	.rodata.str1.1,"aMS",@progbits,1
.L.str:
	.asciz	"fail to multiply two unit vectors"
	.size	.L.str, 34

	.type	.L.str.1,@object        # @.str.1
.L.str.1:
	.zero	1
	.size	.L.str.1, 1

	.type	.L.str.2,@object        # @.str.2
.L.str.2:
	.asciz	"Pass the %'lld vector multiplication test case with local vector size = %d\nThe Dot Product = %'lld\n"
	.size	.L.str.2, 100

	.section	".note.GNU-stack","",@progbits