	.text
	.file	"MatrixMult.openmp.enablevc.ll"
	.globl	copy_Matrix
	.p2align	4, 0x90
	.type	copy_Matrix,@function
copy_Matrix:                            # @copy_Matrix
.Lfunc_begin0:
	.file	1 "MatrixMult.c"
	.loc	1 2 0                   # MatrixMult.c:2:0
	.cfi_startproc
# BB#0:                                 # %entry
	pushq	%r14
.Ltmp0:
	.cfi_def_cfa_offset 16
	pushq	%rbx
.Ltmp1:
	.cfi_def_cfa_offset 24
	pushq	%rax
.Ltmp2:
	.cfi_def_cfa_offset 32
.Ltmp3:
	.cfi_offset %rbx, -24
.Ltmp4:
	.cfi_offset %r14, -16
	#DEBUG_VALUE: copy_Matrix:_Matrix <- %RDI
	movq	%rdi, %r14
.Ltmp5:
	#DEBUG_VALUE: copy_Matrix:_Matrix <- %R14
	.loc	1 3 23 prologue_end discriminator 1 # MatrixMult.c:3:23
	movl	$32, %edi
	callq	malloc
	movq	%rax, %rbx
.Ltmp6:
	#DEBUG_VALUE: copy_Matrix:new_Matrix <- %RBX
	.loc	1 4 2                   # MatrixMult.c:4:2
	movq	8(%r14), %rsi
	movq	%rsi, 8(%rbx)
	movq	(%r14), %rdi
	callq	copy
	movq	%rax, (%rbx)
	.loc	1 5 31                  # MatrixMult.c:5:31
	movups	16(%r14), %xmm0
	.loc	1 5 20 is_stmt 0        # MatrixMult.c:5:20
	movups	%xmm0, 16(%rbx)
	.loc	1 7 2 is_stmt 1         # MatrixMult.c:7:2
	movq	%rbx, %rax
	addq	$8, %rsp
	popq	%rbx
.Ltmp7:
	popq	%r14
.Ltmp8:
	retq
.Ltmp9:
.Lfunc_end0:
	.size	copy_Matrix, .Lfunc_end0-copy_Matrix
	.cfi_endproc

	.globl	free_Matrix
	.p2align	4, 0x90
	.type	free_Matrix,@function
free_Matrix:                            # @free_Matrix
.Lfunc_begin1:
	.loc	1 9 0                   # MatrixMult.c:9:0
	.cfi_startproc
# BB#0:                                 # %entry
	pushq	%rbx
.Ltmp10:
	.cfi_def_cfa_offset 16
.Ltmp11:
	.cfi_offset %rbx, -16
	#DEBUG_VALUE: free_Matrix:matrix <- %RDI
	movq	%rdi, %rbx
.Ltmp12:
	#DEBUG_VALUE: free_Matrix:matrix <- %RBX
	.loc	1 10 15 prologue_end    # MatrixMult.c:10:15
	movq	(%rbx), %rdi
	.loc	1 10 2 is_stmt 0        # MatrixMult.c:10:2
	callq	free
	.loc	1 11 2 is_stmt 1        # MatrixMult.c:11:2
	movq	%rbx, %rdi
	popq	%rbx
.Ltmp13:
	jmp	free                    # TAILCALL
.Ltmp14:
.Lfunc_end1:
	.size	free_Matrix, .Lfunc_end1-free_Matrix
	.cfi_endproc

	.globl	printf_Matrix
	.p2align	4, 0x90
	.type	printf_Matrix,@function
printf_Matrix:                          # @printf_Matrix
.Lfunc_begin2:
	.loc	1 13 0                  # MatrixMult.c:13:0
	.cfi_startproc
# BB#0:                                 # %entry
	pushq	%rbx
.Ltmp15:
	.cfi_def_cfa_offset 16
.Ltmp16:
	.cfi_offset %rbx, -16
	#DEBUG_VALUE: printf_Matrix:matrix <- %RDI
	movq	%rdi, %rbx
.Ltmp17:
	#DEBUG_VALUE: printf_Matrix:matrix <- %RBX
	.loc	1 14 2 prologue_end     # MatrixMult.c:14:2
	movl	$123, %edi
	callq	putchar
	.loc	1 15 2                  # MatrixMult.c:15:2
	movl	$.L.str.1, %edi
	xorl	%eax, %eax
	callq	printf
	.loc	1 16 2                  # MatrixMult.c:16:2
	movq	(%rbx), %rdi
	movq	8(%rbx), %rsi
	callq	printf1DArray
	.loc	1 17 2                  # MatrixMult.c:17:2
	movl	$.L.str.2, %edi
	xorl	%eax, %eax
	callq	printf
	.loc	1 18 25                 # MatrixMult.c:18:25
	movq	16(%rbx), %rsi
	.loc	1 18 2 is_stmt 0        # MatrixMult.c:18:2
	movl	$.L.str.3, %edi
	xorl	%eax, %eax
	callq	printf
	.loc	1 19 2 is_stmt 1        # MatrixMult.c:19:2
	movl	$.L.str.4, %edi
	xorl	%eax, %eax
	callq	printf
	.loc	1 20 25                 # MatrixMult.c:20:25
	movq	24(%rbx), %rsi
	.loc	1 20 2 is_stmt 0        # MatrixMult.c:20:2
	movl	$.L.str.3, %edi
	xorl	%eax, %eax
	callq	printf
	.loc	1 21 2 is_stmt 1        # MatrixMult.c:21:2
	movl	$125, %edi
	popq	%rbx
.Ltmp18:
	jmp	putchar                 # TAILCALL
.Ltmp19:
.Lfunc_end2:
	.size	printf_Matrix, .Lfunc_end2-printf_Matrix
	.cfi_endproc

	.globl	matrix
	.p2align	4, 0x90
	.type	matrix,@function
matrix:                                 # @matrix
.Lfunc_begin3:
	.loc	1 23 0                  # MatrixMult.c:23:0
	.cfi_startproc
# BB#0:                                 # %entry
	pushq	%rbp
.Ltmp20:
	.cfi_def_cfa_offset 16
	pushq	%r15
.Ltmp21:
	.cfi_def_cfa_offset 24
	pushq	%r14
.Ltmp22:
	.cfi_def_cfa_offset 32
	pushq	%r13
.Ltmp23:
	.cfi_def_cfa_offset 40
	pushq	%r12
.Ltmp24:
	.cfi_def_cfa_offset 48
	pushq	%rbx
.Ltmp25:
	.cfi_def_cfa_offset 56
	pushq	%rax
.Ltmp26:
	.cfi_def_cfa_offset 64
.Ltmp27:
	.cfi_offset %rbx, -56
.Ltmp28:
	.cfi_offset %r12, -48
.Ltmp29:
	.cfi_offset %r13, -40
.Ltmp30:
	.cfi_offset %r14, -32
.Ltmp31:
	.cfi_offset %r15, -24
.Ltmp32:
	.cfi_offset %rbp, -16
	#DEBUG_VALUE: matrix:width <- %RDI
	#DEBUG_VALUE: matrix:height <- %RSI
	#DEBUG_VALUE: matrix:data <- %RDX
	#DEBUG_VALUE: matrix:data_size <- %RCX
	#DEBUG_VALUE: matrix:data_has_ownership [bit_piece offset=0 size=1] <- %R8D
	movl	%r8d, %r15d
.Ltmp33:
	#DEBUG_VALUE: matrix:data_has_ownership [bit_piece offset=0 size=1] <- %R15D
	movq	%rcx, %rbp
.Ltmp34:
	#DEBUG_VALUE: matrix:data_size <- %RBP
	movq	%rdx, %r14
.Ltmp35:
	#DEBUG_VALUE: matrix:data <- %R14
	movq	%rsi, %r12
.Ltmp36:
	#DEBUG_VALUE: matrix:height <- %R12
	movq	%rdi, %r13
.Ltmp37:
	#DEBUG_VALUE: matrix:_4_has_ownership <- 0
	#DEBUG_VALUE: matrix:r_has_ownership <- 0
	#DEBUG_VALUE: matrix:data_has_ownership [bit_piece offset=0 size=1] <- %R15B
	#DEBUG_VALUE: matrix:width <- %R13
	.loc	1 30 7 prologue_end     # MatrixMult.c:30:7
	movl	$32, %edi
	callq	malloc
	movq	%rax, %rbx
	.loc	1 31 2                  # MatrixMult.c:31:2
	movq	%rbp, 8(%rbx)
	movq	%r14, %rdi
	movq	%rbp, %rsi
	callq	copy
	movq	%rax, (%rbx)
	.loc	1 32 13                 # MatrixMult.c:32:13
	movq	%r12, 24(%rbx)
	.loc	1 33 12                 # MatrixMult.c:33:12
	movq	%r13, 16(%rbx)
.Ltmp38:
	#DEBUG_VALUE: matrix:_4_has_ownership <- 1
	.loc	1 36 2                  # MatrixMult.c:36:2
	testb	%r15b, %r15b
	je	.LBB3_2
.Ltmp39:
# BB#1:                                 # %if.then7
	#DEBUG_VALUE: matrix:width <- %R13
	#DEBUG_VALUE: matrix:data_has_ownership [bit_piece offset=0 size=1] <- %R15B
	#DEBUG_VALUE: matrix:height <- %R12
	#DEBUG_VALUE: matrix:data <- %R14
	#DEBUG_VALUE: matrix:data_size <- %RBP
	.loc	1 36 2 is_stmt 0 discriminator 1 # MatrixMult.c:36:2
	movq	%r14, %rdi
	callq	free
.Ltmp40:
	#DEBUG_VALUE: matrix:data_has_ownership <- 0
.LBB3_2:                                # %if.end11
	#DEBUG_VALUE: matrix:width <- %R13
	#DEBUG_VALUE: matrix:height <- %R12
	#DEBUG_VALUE: matrix:data <- %R14
	#DEBUG_VALUE: matrix:data_size <- %RBP
	.loc	1 38 2 is_stmt 1        # MatrixMult.c:38:2
	movq	%rbx, %rax
	addq	$8, %rsp
	popq	%rbx
	popq	%r12
.Ltmp41:
	popq	%r13
.Ltmp42:
	popq	%r14
.Ltmp43:
	popq	%r15
	popq	%rbp
.Ltmp44:
	retq
.Ltmp45:
.Lfunc_end3:
	.size	matrix, .Lfunc_end3-matrix
	.cfi_endproc

	.globl	init
	.p2align	4, 0x90
	.type	init,@function
init:                                   # @init
.Lfunc_begin4:
	.loc	1 42 0                  # MatrixMult.c:42:0
	.cfi_startproc
# BB#0:                                 # %entry
	pushq	%r15
.Ltmp46:
	.cfi_def_cfa_offset 16
	pushq	%r14
.Ltmp47:
	.cfi_def_cfa_offset 24
	pushq	%r13
.Ltmp48:
	.cfi_def_cfa_offset 32
	pushq	%r12
.Ltmp49:
	.cfi_def_cfa_offset 40
	pushq	%rbx
.Ltmp50:
	.cfi_def_cfa_offset 48
	subq	$32, %rsp
.Ltmp51:
	.cfi_def_cfa_offset 80
.Ltmp52:
	.cfi_offset %rbx, -48
.Ltmp53:
	.cfi_offset %r12, -40
.Ltmp54:
	.cfi_offset %r13, -32
.Ltmp55:
	.cfi_offset %r14, -24
.Ltmp56:
	.cfi_offset %r15, -16
	#DEBUG_VALUE: init:width <- %RDI
	#DEBUG_VALUE: init:height <- %RSI
	movq	%rsi, %r15
.Ltmp57:
	#DEBUG_VALUE: init:height <- %R15
	movq	%rdi, %r14
.Ltmp58:
	#DEBUG_VALUE: init:_21_has_ownership <- 0
	#DEBUG_VALUE: init:_20 <- 0
	#DEBUG_VALUE: init:_19 <- 0
	#DEBUG_VALUE: init:_18 <- 0
	#DEBUG_VALUE: init:_17 <- 0
	#DEBUG_VALUE: init:_16 <- 0
	#DEBUG_VALUE: init:_15 <- 0
	#DEBUG_VALUE: init:_14 <- 0
	#DEBUG_VALUE: init:_13 <- 0
	#DEBUG_VALUE: init:_12 <- 0
	#DEBUG_VALUE: init:_11 <- 0
	#DEBUG_VALUE: init:_10 <- 0
	#DEBUG_VALUE: init:_9 <- 0
	#DEBUG_VALUE: init:_8_has_ownership <- 0
	#DEBUG_VALUE: init:_8_size <- 0
	#DEBUG_VALUE: init:_7 <- 0
	#DEBUG_VALUE: init:_6 <- 0
	#DEBUG_VALUE: init:j <- 0
	#DEBUG_VALUE: init:i <- 0
	#DEBUG_VALUE: init:data_has_ownership <- 0
	#DEBUG_VALUE: init:data_size <- 0
	#DEBUG_VALUE: init:r_has_ownership <- 0
	#DEBUG_VALUE: init:width <- %R14
	.loc	1 70 10 prologue_end    # MatrixMult.c:70:10
	movq	%r15, %r13
	imulq	%r14, %r13
.Ltmp59:
	#DEBUG_VALUE: matrix:data_size <- %R13
	#DEBUG_VALUE: init:_8_size <- %R13
	#DEBUG_VALUE: init:_7 <- %R13
	#DEBUG_VALUE: init:data_size <- %R13
	.loc	1 73 2                  # MatrixMult.c:73:2
	xorl	%edi, %edi
	movl	%r13d, %esi
	callq	gen1DArray
	movq	%rax, %r12
.Ltmp60:
	#DEBUG_VALUE: init:data <- %R12
	#DEBUG_VALUE: init:_8 <- %R12
	#DEBUG_VALUE: matrix:data <- %R12
	#DEBUG_VALUE: init:data_has_ownership <- 1
	.loc	1 87 7                  # MatrixMult.c:87:7
	testq	%r15, %r15
	jle	.LBB4_2
.Ltmp61:
# BB#1:                                 # %polly.parallel.for
	#DEBUG_VALUE: matrix:data <- %R12
	#DEBUG_VALUE: init:_8 <- %R12
	#DEBUG_VALUE: init:data <- %R12
	#DEBUG_VALUE: init:data_size <- %R13
	#DEBUG_VALUE: init:_7 <- %R13
	#DEBUG_VALUE: init:_8_size <- %R13
	#DEBUG_VALUE: matrix:data_size <- %R13
	#DEBUG_VALUE: init:width <- %R14
	#DEBUG_VALUE: init:height <- %R15
	leaq	-1(%r15), %r8
	sarq	$5, %r8
	movq	%r14, 8(%rsp)
	movq	%r15, 16(%rsp)
	movq	%r12, 24(%rsp)
	incq	%r8
	leaq	8(%rsp), %rbx
	movl	$init_polly_subfn, %edi
	xorl	%edx, %edx
	xorl	%ecx, %ecx
	movl	$1, %r9d
	movq	%rbx, %rsi
	callq	GOMP_parallel_loop_runtime_start
	movq	%rbx, %rdi
	callq	init_polly_subfn
	callq	GOMP_parallel_end
.Ltmp62:
.LBB4_2:                                # %if.end23
	#DEBUG_VALUE: matrix:data <- %R12
	#DEBUG_VALUE: init:_8 <- %R12
	#DEBUG_VALUE: init:data <- %R12
	#DEBUG_VALUE: init:data_size <- %R13
	#DEBUG_VALUE: init:_7 <- %R13
	#DEBUG_VALUE: init:_8_size <- %R13
	#DEBUG_VALUE: matrix:data_size <- %R13
	#DEBUG_VALUE: init:width <- %R14
	#DEBUG_VALUE: init:height <- %R15
	#DEBUG_VALUE: init:data_has_ownership <- 1
	#DEBUG_VALUE: matrix:data_has_ownership [bit_piece offset=0 size=1] <- 0
	#DEBUG_VALUE: matrix:r_has_ownership <- 0
	#DEBUG_VALUE: matrix:_4_has_ownership <- 0
	.loc	1 30 7                  # MatrixMult.c:30:7
	movl	$32, %edi
	callq	malloc
	movq	%rax, %rbx
.Ltmp63:
	#DEBUG_VALUE: matrix:_4 <- %RBX
	#DEBUG_VALUE: init:_21 <- %RBX
	.loc	1 31 2                  # MatrixMult.c:31:2
	movq	%r13, 8(%rbx)
	movq	%r12, %rdi
	movq	%r13, %rsi
	callq	copy
	movq	%rax, (%rbx)
	.loc	1 32 13                 # MatrixMult.c:32:13
	movq	%r15, 24(%rbx)
	.loc	1 33 12                 # MatrixMult.c:33:12
	movq	%r14, 16(%rbx)
.Ltmp64:
	.loc	1 139 2 discriminator 1 # MatrixMult.c:139:2
	movq	%r12, %rdi
	callq	free
.Ltmp65:
	.loc	1 141 2                 # MatrixMult.c:141:2
	movq	%rbx, %rax
	addq	$32, %rsp
.Ltmp66:
	#DEBUG_VALUE: matrix:width <- %R14
	#DEBUG_VALUE: matrix:height <- %R15
	#DEBUG_VALUE: matrix:_4_has_ownership <- 1
	#DEBUG_VALUE: init:_21_has_ownership <- 1
	#DEBUG_VALUE: init:data_has_ownership <- 0
	popq	%rbx
.Ltmp67:
	popq	%r12
.Ltmp68:
	popq	%r13
.Ltmp69:
	popq	%r14
.Ltmp70:
	popq	%r15
.Ltmp71:
	retq
.Ltmp72:
.Lfunc_end4:
	.size	init, .Lfunc_end4-init
	.cfi_endproc
	.file	2 "./MatrixMult.h"

	.globl	print_mat
	.p2align	4, 0x90
	.type	print_mat,@function
print_mat:                              # @print_mat
.Lfunc_begin5:
	.loc	1 145 0                 # MatrixMult.c:145:0
	.cfi_startproc
# BB#0:                                 # %entry
	pushq	%rbp
.Ltmp73:
	.cfi_def_cfa_offset 16
	pushq	%r15
.Ltmp74:
	.cfi_def_cfa_offset 24
	pushq	%r14
.Ltmp75:
	.cfi_def_cfa_offset 32
	pushq	%r13
.Ltmp76:
	.cfi_def_cfa_offset 40
	pushq	%r12
.Ltmp77:
	.cfi_def_cfa_offset 48
	pushq	%rbx
.Ltmp78:
	.cfi_def_cfa_offset 56
	subq	$56, %rsp
.Ltmp79:
	.cfi_def_cfa_offset 112
.Ltmp80:
	.cfi_offset %rbx, -56
.Ltmp81:
	.cfi_offset %r12, -48
.Ltmp82:
	.cfi_offset %r13, -40
.Ltmp83:
	.cfi_offset %r14, -32
.Ltmp84:
	.cfi_offset %r15, -24
.Ltmp85:
	.cfi_offset %rbp, -16
	#DEBUG_VALUE: print_mat:sys <- %RDI
	#DEBUG_VALUE: print_mat:a <- %RSI
	#DEBUG_VALUE: print_mat:a_has_ownership [bit_piece offset=0 size=1] <- %EDX
	movq	%rsi, %r15
.Ltmp86:
	#DEBUG_VALUE: print_mat:_25_has_ownership <- 0
	#DEBUG_VALUE: print_mat:_25_size <- 0
	#DEBUG_VALUE: print_mat:_22 <- 0
	#DEBUG_VALUE: print_mat:_21 <- 0
	#DEBUG_VALUE: print_mat:_20 <- 0
	#DEBUG_VALUE: print_mat:_19 <- 0
	#DEBUG_VALUE: print_mat:_18_has_ownership <- 0
	#DEBUG_VALUE: print_mat:_18_size <- 0
	#DEBUG_VALUE: print_mat:_15 <- 0
	#DEBUG_VALUE: print_mat:_14 <- 0
	#DEBUG_VALUE: print_mat:_13 <- 0
	#DEBUG_VALUE: print_mat:_12_has_ownership <- 0
	#DEBUG_VALUE: print_mat:_12_size <- 0
	#DEBUG_VALUE: print_mat:_9 <- 0
	#DEBUG_VALUE: print_mat:_8 <- 0
	#DEBUG_VALUE: print_mat:_7 <- 0
	#DEBUG_VALUE: print_mat:_6 <- 0
	#DEBUG_VALUE: print_mat:j <- 0
	#DEBUG_VALUE: print_mat:height <- 0
	#DEBUG_VALUE: print_mat:width <- 0
	#DEBUG_VALUE: print_mat:i <- 0
	#DEBUG_VALUE: print_mat:a <- %R15
	.loc	1 179 10 prologue_end   # MatrixMult.c:179:10
	movq	24(%r15), %rbp
.Ltmp87:
	#DEBUG_VALUE: print_mat:_8 <- %RBP
	#DEBUG_VALUE: print_mat:height <- %RBP
	.loc	1 185 6                 # MatrixMult.c:185:6
	movq	%rbp, 24(%rsp)          # 8-byte Spill
	testq	%rbp, %rbp
	jle	.LBB5_6
.Ltmp88:
# BB#1:                                 # %while.body4.preheader.preheader
	#DEBUG_VALUE: print_mat:height <- %RBP
	#DEBUG_VALUE: print_mat:_8 <- %RBP
	#DEBUG_VALUE: print_mat:a <- %R15
	#DEBUG_VALUE: print_mat:a_has_ownership [bit_piece offset=0 size=1] <- %EDX
	#DEBUG_VALUE: print_mat:sys <- %RDI
	.loc	1 175 10                # MatrixMult.c:175:10
	movq	16(%r15), %r13
.Ltmp89:
	#DEBUG_VALUE: print_mat:_7 <- %R13
	#DEBUG_VALUE: print_mat:width <- %R13
	movq	%r13, 16(%rsp)          # 8-byte Spill
	xorl	%ebx, %ebx
.Ltmp90:
	#DEBUG_VALUE: print_mat:_25 <- %RBX
	.loc	1 193 7                 # MatrixMult.c:193:7
	testq	%r13, %r13
	jle	.LBB5_2
.Ltmp91:
# BB#7:                                 # %if.end7.preheader.us.preheader
	#DEBUG_VALUE: print_mat:sys <- %RDI
	#DEBUG_VALUE: print_mat:a_has_ownership [bit_piece offset=0 size=1] <- %EDX
	#DEBUG_VALUE: print_mat:a <- %R15
	#DEBUG_VALUE: print_mat:_8 <- %RBP
	#DEBUG_VALUE: print_mat:height <- %RBP
	#DEBUG_VALUE: print_mat:_25 <- %RBX
	#DEBUG_VALUE: print_mat:width <- %R13
	#DEBUG_VALUE: print_mat:_7 <- %R13
	.loc	1 201 9                 # MatrixMult.c:201:9
	leaq	(,%r13,8), %rcx
	movq	%rcx, 8(%rsp)           # 8-byte Spill
	movl	$0, %ecx
	movl	$0, %esi
	xorl	%edx, %edx
.Ltmp92:
	movq	%rdx, (%rsp)            # 8-byte Spill
	xorl	%ebp, %ebp
.Ltmp93:
	xorl	%ebx, %ebx
.Ltmp94:
	xorl	%r12d, %r12d
.Ltmp95:
	.p2align	4, 0x90
.LBB5_16:                               # %if.end7.preheader.us
                                        # =>This Loop Header: Depth=1
                                        #     Child Loop BB5_8 Depth 2
	movq	%rsi, 32(%rsp)          # 8-byte Spill
	movq	%rbp, 40(%rsp)          # 8-byte Spill
	movq	%rcx, 48(%rsp)          # 8-byte Spill
	movq	%rcx, %rbp
	movb	%sil, %r14b
	.p2align	4, 0x90
.LBB5_8:                                # %if.end7.us
                                        #   Parent Loop BB5_16 Depth=1
                                        # =>  This Inner Loop Header: Depth=2
.Ltmp96:
	.loc	1 197 4                 # MatrixMult.c:197:4
	andb	$1, %r14b
	je	.LBB5_10
# BB#9:                                 # %if.then8.us
                                        #   in Loop: Header=BB5_8 Depth=2
.Ltmp97:
	.loc	1 197 4 is_stmt 0 discriminator 1 # MatrixMult.c:197:4
	movq	%r12, %rdi
	callq	free
.Ltmp98:
	#DEBUG_VALUE: print_mat:_12_has_ownership <- 0
.LBB5_10:                               # %if.end9.us
                                        #   in Loop: Header=BB5_8 Depth=2
	.loc	1 198 4 is_stmt 1       # MatrixMult.c:198:4
	movq	(%r15), %rdi
	movq	8(%r15), %rsi
	callq	copy
	movq	%rax, %r12
.Ltmp99:
	#DEBUG_VALUE: print_mat:_12 <- %R12
	#DEBUG_VALUE: print_mat:_12_has_ownership <- 1
	.loc	1 205 8                 # MatrixMult.c:205:8
	movq	(%r12,%rbp), %rsi
.Ltmp100:
	#DEBUG_VALUE: print_mat:_15 <- %RSI
	.loc	1 207 4                 # MatrixMult.c:207:4
	movl	$.L.str.3, %edi
	xorl	%eax, %eax
	callq	printf
	testb	%r14b, %r14b
	je	.LBB5_12
.Ltmp101:
# BB#11:                                # %if.then13.us
                                        #   in Loop: Header=BB5_8 Depth=2
	#DEBUG_VALUE: print_mat:_15 <- %RSI
	#DEBUG_VALUE: print_mat:_12 <- %R12
	.loc	1 211 4 discriminator 1 # MatrixMult.c:211:4
	movq	%rbx, %rdi
	callq	free
.Ltmp102:
	#DEBUG_VALUE: print_mat:_18_has_ownership <- 0
.LBB5_12:                               # %if.end14.us
                                        #   in Loop: Header=BB5_8 Depth=2
	#DEBUG_VALUE: print_mat:_15 <- %RSI
	#DEBUG_VALUE: print_mat:_12 <- %R12
	#DEBUG_VALUE: print_mat:_18_size <- 1
	.loc	1 212 4                 # MatrixMult.c:212:4
	movl	$8, %edi
	callq	malloc
	movq	%rax, %rbx
.Ltmp103:
	#DEBUG_VALUE: print_mat:_18 <- %RBX
	.loc	1 213 11                # MatrixMult.c:213:11
	movq	$32, (%rbx)
.Ltmp104:
	#DEBUG_VALUE: print_mat:_18_has_ownership <- 1
	.loc	1 216 4                 # MatrixMult.c:216:4
	movl	$1, %esi
.Ltmp105:
	movq	%rbx, %rdi
	callq	printf_s
.Ltmp106:
	#DEBUG_VALUE: print_mat:_19 <- 1
	.loc	1 193 7                 # MatrixMult.c:193:7
	addq	$8, %rbp
	decq	%r13
	movb	$1, %r14b
	jne	.LBB5_8
.Ltmp107:
# BB#13:                                # %blklab8.loopexit.us
                                        #   in Loop: Header=BB5_16 Depth=1
	#DEBUG_VALUE: print_mat:_12 <- %R12
	#DEBUG_VALUE: print_mat:_18 <- %RBX
	#DEBUG_VALUE: print_mat:_21 <- 1
	movq	40(%rsp), %rbp          # 8-byte Reload
	.loc	1 231 8                 # MatrixMult.c:231:8
	incq	%rbp
.Ltmp108:
	#DEBUG_VALUE: print_mat:_22 <- %RBP
	#DEBUG_VALUE: print_mat:i <- %RBP
	.loc	1 237 3                 # MatrixMult.c:237:3
	movq	32(%rsp), %rax          # 8-byte Reload
	testb	$1, %al
	movq	24(%rsp), %r14          # 8-byte Reload
	je	.LBB5_15
.Ltmp109:
# BB#14:                                # %if.then20.us
                                        #   in Loop: Header=BB5_16 Depth=1
	#DEBUG_VALUE: print_mat:_18 <- %RBX
	#DEBUG_VALUE: print_mat:_12 <- %R12
	#DEBUG_VALUE: print_mat:i <- %RBP
	#DEBUG_VALUE: print_mat:_22 <- %RBP
	.loc	1 237 3 is_stmt 0 discriminator 1 # MatrixMult.c:237:3
	movq	(%rsp), %rdi            # 8-byte Reload
	callq	free
.Ltmp110:
	#DEBUG_VALUE: print_mat:_25_has_ownership <- 0
.LBB5_15:                               # %if.end21.us
                                        #   in Loop: Header=BB5_16 Depth=1
	#DEBUG_VALUE: print_mat:_18 <- %RBX
	#DEBUG_VALUE: print_mat:_12 <- %R12
	#DEBUG_VALUE: print_mat:i <- %RBP
	#DEBUG_VALUE: print_mat:_22 <- %RBP
	#DEBUG_VALUE: print_mat:_25_size <- 0
	.loc	1 238 3 is_stmt 1       # MatrixMult.c:238:3
	xorl	%edi, %edi
	callq	malloc
.Ltmp111:
	#DEBUG_VALUE: print_mat:_25 <- %RAX
	#DEBUG_VALUE: print_mat:_25_has_ownership <- 1
	.loc	1 241 3                 # MatrixMult.c:241:3
	movq	%rax, (%rsp)            # 8-byte Spill
	xorl	%esi, %esi
	movq	%rax, %rdi
.Ltmp112:
	#DEBUG_VALUE: print_mat:_25 <- [%RSP+0]
	callq	println_s
.Ltmp113:
	movq	48(%rsp), %rcx          # 8-byte Reload
	.loc	1 185 6                 # MatrixMult.c:185:6
	addq	8(%rsp), %rcx           # 8-byte Folded Reload
	movb	$1, %sil
	cmpq	%r14, %rbp
	movq	16(%rsp), %r13          # 8-byte Reload
	jne	.LBB5_16
	jmp	.LBB5_6
.Ltmp114:
.LBB5_2:
	#DEBUG_VALUE: print_mat:sys <- %RDI
	#DEBUG_VALUE: print_mat:a_has_ownership [bit_piece offset=0 size=1] <- %EDX
	#DEBUG_VALUE: print_mat:a <- %R15
	#DEBUG_VALUE: print_mat:_8 <- %RBP
	#DEBUG_VALUE: print_mat:height <- %RBP
	#DEBUG_VALUE: print_mat:_25 <- %RBX
	#DEBUG_VALUE: print_mat:width <- %R13
	#DEBUG_VALUE: print_mat:_7 <- %R13
	xorl	%eax, %eax
.Ltmp115:
	.p2align	4, 0x90
.LBB5_3:                                # %blklab8
                                        # =>This Inner Loop Header: Depth=1
	#DEBUG_VALUE: print_mat:_25 <- %RBX
	.loc	1 237 3                 # MatrixMult.c:237:3
	testb	$1, %al
	#DEBUG_VALUE: print_mat:_21 <- 1
	je	.LBB5_5
.Ltmp116:
# BB#4:                                 # %if.then20
                                        #   in Loop: Header=BB5_3 Depth=1
	#DEBUG_VALUE: print_mat:_25 <- %RBX
	.loc	1 237 3 is_stmt 0 discriminator 1 # MatrixMult.c:237:3
	movq	%rbx, %rdi
	callq	free
.Ltmp117:
	#DEBUG_VALUE: print_mat:_25_has_ownership <- 0
.LBB5_5:                                # %if.end21
                                        #   in Loop: Header=BB5_3 Depth=1
	#DEBUG_VALUE: print_mat:_25 <- %RBX
	#DEBUG_VALUE: print_mat:_25_size <- 0
	.loc	1 238 3 is_stmt 1       # MatrixMult.c:238:3
	xorl	%edi, %edi
	callq	malloc
	movq	%rax, %rbx
.Ltmp118:
	#DEBUG_VALUE: print_mat:_25 <- %RBX
	#DEBUG_VALUE: print_mat:_25_has_ownership <- 1
	.loc	1 241 3                 # MatrixMult.c:241:3
	xorl	%esi, %esi
	movq	%rbx, %rdi
	callq	println_s
	.loc	1 185 6                 # MatrixMult.c:185:6
	decq	%rbp
	movb	$1, %al
	jne	.LBB5_3
.Ltmp119:
.LBB5_6:                                # %blklab6
	.loc	1 248 1                 # MatrixMult.c:248:1
	addq	$56, %rsp
	popq	%rbx
	popq	%r12
	popq	%r13
	popq	%r14
	popq	%r15
	popq	%rbp
	retq
.Ltmp120:
.Lfunc_end5:
	.size	print_mat, .Lfunc_end5-print_mat
	.cfi_endproc

	.globl	mat_mult
	.p2align	4, 0x90
	.type	mat_mult,@function
mat_mult:                               # @mat_mult
.Lfunc_begin6:
	.loc	1 250 0                 # MatrixMult.c:250:0
	.cfi_startproc
# BB#0:                                 # %entry
	pushq	%rbp
.Ltmp121:
	.cfi_def_cfa_offset 16
	pushq	%r15
.Ltmp122:
	.cfi_def_cfa_offset 24
	pushq	%r14
.Ltmp123:
	.cfi_def_cfa_offset 32
	pushq	%r13
.Ltmp124:
	.cfi_def_cfa_offset 40
	pushq	%r12
.Ltmp125:
	.cfi_def_cfa_offset 48
	pushq	%rbx
.Ltmp126:
	.cfi_def_cfa_offset 56
	subq	$136, %rsp
.Ltmp127:
	.cfi_def_cfa_offset 192
.Ltmp128:
	.cfi_offset %rbx, -56
.Ltmp129:
	.cfi_offset %r12, -48
.Ltmp130:
	.cfi_offset %r13, -40
.Ltmp131:
	.cfi_offset %r14, -32
.Ltmp132:
	.cfi_offset %r15, -24
.Ltmp133:
	.cfi_offset %rbp, -16
	#DEBUG_VALUE: mat_mult:a <- %RDI
	#DEBUG_VALUE: mat_mult:a_has_ownership [bit_piece offset=0 size=1] <- %ESI
	#DEBUG_VALUE: mat_mult:b <- %RDX
	#DEBUG_VALUE: mat_mult:b_has_ownership [bit_piece offset=0 size=1] <- %ECX
	movl	%ecx, 28(%rsp)          # 4-byte Spill
.Ltmp134:
	#DEBUG_VALUE: mat_mult:b_has_ownership [bit_piece offset=0 size=1] <-  [complex expression]
	movq	%rdx, %r14
.Ltmp135:
	#DEBUG_VALUE: mat_mult:b <- %R14
	movq	%r14, 64(%rsp)          # 8-byte Spill
	movl	%esi, 52(%rsp)          # 4-byte Spill
.Ltmp136:
	#DEBUG_VALUE: mat_mult:a_has_ownership [bit_piece offset=0 size=1] <-  [complex expression]
	movq	%rdi, %rbx
.Ltmp137:
	#DEBUG_VALUE: mat_mult:_40_has_ownership <- 0
	#DEBUG_VALUE: mat_mult:_39 <- 0
	#DEBUG_VALUE: mat_mult:_38 <- 0
	#DEBUG_VALUE: mat_mult:_37 <- 0
	#DEBUG_VALUE: mat_mult:_36 <- 0
	#DEBUG_VALUE: mat_mult:_35 <- 0
	#DEBUG_VALUE: mat_mult:_34 <- 0
	#DEBUG_VALUE: mat_mult:_33 <- 0
	#DEBUG_VALUE: mat_mult:_32 <- 0
	#DEBUG_VALUE: mat_mult:_31 <- 0
	#DEBUG_VALUE: mat_mult:_30 <- 0
	#DEBUG_VALUE: mat_mult:_29 <- 0
	#DEBUG_VALUE: mat_mult:_28 <- 0
	#DEBUG_VALUE: mat_mult:_27 <- 0
	#DEBUG_VALUE: mat_mult:_26 <- 0
	#DEBUG_VALUE: mat_mult:_25 <- 0
	#DEBUG_VALUE: mat_mult:_24 <- 0
	#DEBUG_VALUE: mat_mult:_23 <- 0
	#DEBUG_VALUE: mat_mult:_22 <- 0
	#DEBUG_VALUE: mat_mult:_21 <- 0
	#DEBUG_VALUE: mat_mult:_20 <- 0
	#DEBUG_VALUE: mat_mult:_19 <- 0
	#DEBUG_VALUE: mat_mult:_18 <- 0
	#DEBUG_VALUE: mat_mult:_17_has_ownership <- 0
	#DEBUG_VALUE: mat_mult:_17_size <- 0
	#DEBUG_VALUE: mat_mult:_16_has_ownership <- 0
	#DEBUG_VALUE: mat_mult:_16_size <- 0
	#DEBUG_VALUE: mat_mult:_15_has_ownership <- 0
	#DEBUG_VALUE: mat_mult:_15_size <- 0
	#DEBUG_VALUE: mat_mult:_14 <- 0
	#DEBUG_VALUE: mat_mult:_13 <- 0
	#DEBUG_VALUE: mat_mult:_12 <- 0
	#DEBUG_VALUE: mat_mult:_11 <- 0
	#DEBUG_VALUE: mat_mult:k <- 0
	#DEBUG_VALUE: mat_mult:j <- 0
	#DEBUG_VALUE: mat_mult:i <- 0
	#DEBUG_VALUE: mat_mult:b_data_has_ownership <- 0
	#DEBUG_VALUE: mat_mult:b_data_size <- 0
	#DEBUG_VALUE: mat_mult:a_data_has_ownership <- 0
	#DEBUG_VALUE: mat_mult:a_data_size <- 0
	#DEBUG_VALUE: mat_mult:data_has_ownership <- 0
	#DEBUG_VALUE: mat_mult:data_size <- 0
	#DEBUG_VALUE: mat_mult:height <- 0
	#DEBUG_VALUE: mat_mult:width <- 0
	#DEBUG_VALUE: mat_mult:c_has_ownership <- 0
	#DEBUG_VALUE: mat_mult:a <- %RBX
	.loc	1 299 11 prologue_end   # MatrixMult.c:299:11
	movq	%rbx, 56(%rsp)          # 8-byte Spill
	movq	16(%r14), %r12
.Ltmp138:
	#DEBUG_VALUE: matrix:width <- %R12
	#DEBUG_VALUE: mat_mult:_11 <- %R12
	#DEBUG_VALUE: mat_mult:width <- %R12
	.loc	1 303 11                # MatrixMult.c:303:11
	movq	24(%rbx), %r15
.Ltmp139:
	#DEBUG_VALUE: matrix:height <- %R15
	#DEBUG_VALUE: mat_mult:_12 <- %R15
	#DEBUG_VALUE: mat_mult:height <- %R15
	.loc	1 309 11                # MatrixMult.c:309:11
	movq	%r15, 40(%rsp)          # 8-byte Spill
	movq	%r15, %rsi
	imulq	%r12, %rsi
.Ltmp140:
	#DEBUG_VALUE: matrix:data_size <- %RSI
	#DEBUG_VALUE: mat_mult:_15_size <- %RSI
	#DEBUG_VALUE: mat_mult:_14 <- %RSI
	#DEBUG_VALUE: mat_mult:data_size <- %RSI
	.loc	1 312 2                 # MatrixMult.c:312:2
	movq	%rsi, 32(%rsp)          # 8-byte Spill
	xorl	%edi, %edi
.Ltmp141:
	#DEBUG_VALUE: matrix:data_size <- [%RSP+32]
	#DEBUG_VALUE: mat_mult:_15_size <- [%RSP+32]
	#DEBUG_VALUE: mat_mult:_14 <- [%RSP+32]
	#DEBUG_VALUE: mat_mult:data_size <- [%RSP+32]
	callq	gen1DArray
.Ltmp142:
	movq	%rax, %rbp
.Ltmp143:
	#DEBUG_VALUE: mat_mult:data <- %RBP
	#DEBUG_VALUE: mat_mult:_15 <- %RBP
	#DEBUG_VALUE: matrix:data <- %RBP
	#DEBUG_VALUE: mat_mult:data_has_ownership <- 1
	.loc	1 321 2                 # MatrixMult.c:321:2
	movq	(%rbx), %rdi
	movq	8(%rbx), %rsi
.Ltmp144:
	#DEBUG_VALUE: mat_mult:a <- [%RSP+56]
	callq	copy
.Ltmp145:
	movq	%rax, 16(%rsp)          # 8-byte Spill
.Ltmp146:
	#DEBUG_VALUE: mat_mult:a_data <- [%RSP+16]
	#DEBUG_VALUE: mat_mult:_16 <- [%RSP+16]
	#DEBUG_VALUE: mat_mult:a_data_has_ownership <- 1
	.loc	1 330 2                 # MatrixMult.c:330:2
	movq	(%r14), %rdi
	movq	8(%r14), %rsi
.Ltmp147:
	#DEBUG_VALUE: mat_mult:b <- [%RSP+64]
	callq	copy
.Ltmp148:
	movq	%rax, 8(%rsp)           # 8-byte Spill
.Ltmp149:
	#DEBUG_VALUE: mat_mult:b_data <- [%RSP+8]
	#DEBUG_VALUE: mat_mult:_17 <- [%RSP+8]
	#DEBUG_VALUE: mat_mult:b_data_has_ownership <- 1
	.loc	1 344 6                 # MatrixMult.c:344:6
	testq	%r15, %r15
.Ltmp150:
	#DEBUG_VALUE: matrix:height <- [%RSP+40]
	#DEBUG_VALUE: mat_mult:_12 <- [%RSP+40]
	#DEBUG_VALUE: mat_mult:height <- [%RSP+40]
	jle	.LBB6_14
.Ltmp151:
# BB#1:                                 # %polly.split_new_and_old
	#DEBUG_VALUE: mat_mult:height <- [%RSP+40]
	#DEBUG_VALUE: mat_mult:_12 <- [%RSP+40]
	#DEBUG_VALUE: matrix:height <- [%RSP+40]
	#DEBUG_VALUE: mat_mult:_17 <- [%RSP+8]
	#DEBUG_VALUE: mat_mult:b_data <- [%RSP+8]
	#DEBUG_VALUE: matrix:data <- %RBP
	#DEBUG_VALUE: mat_mult:_15 <- %RBP
	#DEBUG_VALUE: mat_mult:data <- %RBP
	#DEBUG_VALUE: mat_mult:width <- %R12
	#DEBUG_VALUE: mat_mult:_11 <- %R12
	#DEBUG_VALUE: matrix:width <- %R12
	movq	%r12, %rax
	imulq	%rax, %rax
	movq	8(%rsp), %rcx           # 8-byte Reload
	leaq	(%rcx,%rax,8), %rax
	cmpq	%rbp, %rax
	setbe	%al
	movq	32(%rsp), %rsi          # 8-byte Reload
	leaq	(%rbp,%rsi,8), %rdx
	cmpq	%rcx, %rdx
	setbe	%cl
	movq	16(%rsp), %rdi          # 8-byte Reload
	leaq	(%rdi,%rsi,8), %rsi
	cmpq	%rbp, %rsi
	setbe	%bl
	cmpq	%rdi, %rdx
	setbe	%dl
	orb	%bl, %dl
	movzbl	%dl, %edx
	cmpl	$1, %edx
	jne	.LBB6_3
.Ltmp152:
# BB#2:                                 # %polly.split_new_and_old
	#DEBUG_VALUE: matrix:width <- %R12
	#DEBUG_VALUE: mat_mult:_11 <- %R12
	#DEBUG_VALUE: mat_mult:width <- %R12
	#DEBUG_VALUE: mat_mult:data <- %RBP
	#DEBUG_VALUE: mat_mult:_15 <- %RBP
	#DEBUG_VALUE: matrix:data <- %RBP
	#DEBUG_VALUE: mat_mult:b_data <- [%RSP+8]
	#DEBUG_VALUE: mat_mult:_17 <- [%RSP+8]
	#DEBUG_VALUE: matrix:height <- [%RSP+40]
	#DEBUG_VALUE: mat_mult:_12 <- [%RSP+40]
	#DEBUG_VALUE: mat_mult:height <- [%RSP+40]
	orb	%al, %cl
	je	.LBB6_3
.Ltmp153:
# BB#19:                                # %polly.parallel.for
	#DEBUG_VALUE: mat_mult:height <- [%RSP+40]
	#DEBUG_VALUE: mat_mult:_12 <- [%RSP+40]
	#DEBUG_VALUE: matrix:height <- [%RSP+40]
	#DEBUG_VALUE: mat_mult:_17 <- [%RSP+8]
	#DEBUG_VALUE: mat_mult:b_data <- [%RSP+8]
	#DEBUG_VALUE: matrix:data <- %RBP
	#DEBUG_VALUE: mat_mult:_15 <- %RBP
	#DEBUG_VALUE: mat_mult:data <- %RBP
	#DEBUG_VALUE: mat_mult:width <- %R12
	#DEBUG_VALUE: mat_mult:_11 <- %R12
	#DEBUG_VALUE: matrix:width <- %R12
	movq	40(%rsp), %rax          # 8-byte Reload
	leaq	-1(%rax), %r8
	sarq	$5, %r8
	movq	%r12, 96(%rsp)
	movq	%rax, 104(%rsp)
	movq	%rbp, 112(%rsp)
	movq	16(%rsp), %rax          # 8-byte Reload
	movq	%rax, 120(%rsp)
	movq	8(%rsp), %rax           # 8-byte Reload
	movq	%rax, 128(%rsp)
	incq	%r8
	leaq	96(%rsp), %r15
	movl	$mat_mult_polly_subfn, %edi
	xorl	%edx, %edx
	xorl	%ecx, %ecx
	movl	$1, %r9d
	movq	%r15, %rsi
	callq	GOMP_parallel_loop_runtime_start
.Ltmp154:
	movq	%r15, %rdi
	callq	mat_mult_polly_subfn
	callq	GOMP_parallel_end
	jmp	.LBB6_14
.Ltmp155:
.LBB6_3:                                # %while.body32.preheader.preheader
	#DEBUG_VALUE: matrix:width <- %R12
	#DEBUG_VALUE: mat_mult:_11 <- %R12
	#DEBUG_VALUE: mat_mult:width <- %R12
	#DEBUG_VALUE: mat_mult:data <- %RBP
	#DEBUG_VALUE: mat_mult:_15 <- %RBP
	#DEBUG_VALUE: matrix:data <- %RBP
	#DEBUG_VALUE: mat_mult:b_data <- [%RSP+8]
	#DEBUG_VALUE: mat_mult:_17 <- [%RSP+8]
	#DEBUG_VALUE: matrix:height <- [%RSP+40]
	#DEBUG_VALUE: mat_mult:_12 <- [%RSP+40]
	#DEBUG_VALUE: mat_mult:height <- [%RSP+40]
	.loc	1 352 7                 # MatrixMult.c:352:7
	testq	%r12, %r12
	jle	.LBB6_14
.Ltmp156:
# BB#4:                                 # %while.body38.preheader.preheader.us.preheader
	#DEBUG_VALUE: mat_mult:height <- [%RSP+40]
	#DEBUG_VALUE: mat_mult:_12 <- [%RSP+40]
	#DEBUG_VALUE: matrix:height <- [%RSP+40]
	#DEBUG_VALUE: mat_mult:_17 <- [%RSP+8]
	#DEBUG_VALUE: mat_mult:b_data <- [%RSP+8]
	#DEBUG_VALUE: matrix:data <- %RBP
	#DEBUG_VALUE: mat_mult:_15 <- %RBP
	#DEBUG_VALUE: mat_mult:data <- %RBP
	#DEBUG_VALUE: mat_mult:width <- %R12
	#DEBUG_VALUE: mat_mult:_11 <- %R12
	#DEBUG_VALUE: matrix:width <- %R12
	.loc	1 362 10                # MatrixMult.c:362:10
	movl	%r12d, %eax
	andl	$1, %eax
	movq	%rax, 88(%rsp)          # 8-byte Spill
	leaq	(%r12,%r12), %r10
	xorl	%eax, %eax
	movq	%rax, 72(%rsp)          # 8-byte Spill
	xorl	%eax, %eax
.Ltmp157:
	.p2align	4, 0x90
.LBB6_5:                                # %while.body38.preheader.preheader.us
                                        # =>This Loop Header: Depth=1
                                        #     Child Loop BB6_6 Depth 2
                                        #       Child Loop BB6_11 Depth 3
	movq	%rax, 80(%rsp)          # 8-byte Spill
	movq	%rax, %r11
	imulq	%r12, %r11
.Ltmp158:
	#DEBUG_VALUE: mat_mult:_32 <- %R11
	#DEBUG_VALUE: mat_mult:_25 <- %R11
	#DEBUG_VALUE: mat_mult:_24 <- %R11
	#DEBUG_VALUE: mat_mult:_21 <- %R11
	movq	8(%rsp), %r15           # 8-byte Reload
	xorl	%r9d, %r9d
.Ltmp159:
	.p2align	4, 0x90
.LBB6_6:                                # %if.end42.preheader.us.us
                                        #   Parent Loop BB6_5 Depth=1
                                        # =>  This Loop Header: Depth=2
                                        #       Child Loop BB6_11 Depth 3
	#DEBUG_VALUE: mat_mult:_28 <- %R9
	.loc	1 364 12                # MatrixMult.c:364:12
	leaq	(%r9,%r11), %rdx
.Ltmp160:
	#DEBUG_VALUE: mat_mult:_33 <- %RDX
	#DEBUG_VALUE: mat_mult:_22 <- %RDX
	cmpq	$0, 88(%rsp)            # 8-byte Folded Reload
	.loc	1 366 9                 # MatrixMult.c:366:9
	movq	(%rbp,%rdx,8), %rax
.Ltmp161:
	#DEBUG_VALUE: mat_mult:_23 <- %RAX
	jne	.LBB6_8
.Ltmp162:
# BB#7:                                 #   in Loop: Header=BB6_6 Depth=2
	#DEBUG_VALUE: mat_mult:_23 <- %RAX
	#DEBUG_VALUE: mat_mult:_22 <- %RDX
	#DEBUG_VALUE: mat_mult:_33 <- %RDX
	#DEBUG_VALUE: mat_mult:_28 <- %R9
	xorl	%r14d, %r14d
	jmp	.LBB6_9
.Ltmp163:
	.p2align	4, 0x90
.LBB6_8:                                # %if.end42.us.us.prol
                                        #   in Loop: Header=BB6_6 Depth=2
	#DEBUG_VALUE: mat_mult:_23 <- %RAX
	#DEBUG_VALUE: mat_mult:_22 <- %RDX
	#DEBUG_VALUE: mat_mult:_33 <- %RDX
	#DEBUG_VALUE: mat_mult:_28 <- %R9
	#DEBUG_VALUE: mat_mult:_27 <- 0
	.loc	1 378 9                 # MatrixMult.c:378:9
	movq	8(%rsp), %rcx           # 8-byte Reload
	movq	(%rcx,%r9,8), %rsi
.Ltmp164:
	#DEBUG_VALUE: mat_mult:_29 <- %RAX
	.loc	1 380 12                # MatrixMult.c:380:12
	movq	16(%rsp), %rdi          # 8-byte Reload
	imulq	(%rdi,%r11,8), %rsi
.Ltmp165:
	#DEBUG_VALUE: mat_mult:_30 <- %RAX
	.loc	1 382 12                # MatrixMult.c:382:12
	addq	%rsi, %rax
.Ltmp166:
	#DEBUG_VALUE: mat_mult:_31 <- %RAX
	.loc	1 388 15                # MatrixMult.c:388:15
	movq	%rax, (%rbp,%rdx,8)
.Ltmp167:
	#DEBUG_VALUE: mat_mult:_35 <- 1
	#DEBUG_VALUE: mat_mult:_34 <- 1
	#DEBUG_VALUE: mat_mult:k <- 1
	movl	$1, %r14d
.Ltmp168:
.LBB6_9:                                # %if.end42.preheader.us.us.split
                                        #   in Loop: Header=BB6_6 Depth=2
	#DEBUG_VALUE: mat_mult:_28 <- %R9
	#DEBUG_VALUE: mat_mult:_33 <- %RDX
	#DEBUG_VALUE: mat_mult:_22 <- %RDX
	cmpq	$1, %r12
	je	.LBB6_12
.Ltmp169:
# BB#10:                                # %if.end42.preheader.us.us.split.split
                                        #   in Loop: Header=BB6_6 Depth=2
	#DEBUG_VALUE: mat_mult:_22 <- %RDX
	#DEBUG_VALUE: mat_mult:_33 <- %RDX
	#DEBUG_VALUE: mat_mult:_28 <- %R9
	.loc	1 362 10                # MatrixMult.c:362:10
	movq	%r12, %rdi
	subq	%r14, %rdi
	leaq	1(%r14), %rsi
	imulq	%r12, %rsi
	leaq	(%r15,%rsi,8), %rsi
	movq	72(%rsp), %rcx          # 8-byte Reload
	leaq	(%rcx,%r14), %rbx
	movq	16(%rsp), %rcx          # 8-byte Reload
	leaq	(%rcx,%rbx,8), %r8
	imulq	%r12, %r14
	leaq	(%r15,%r14,8), %r13
	.loc	1 366 9                 # MatrixMult.c:366:9
	xorl	%r14d, %r14d
.Ltmp170:
	.p2align	4, 0x90
.LBB6_11:                               # %if.end42.us.us
                                        #   Parent Loop BB6_5 Depth=1
                                        #     Parent Loop BB6_6 Depth=2
                                        # =>    This Inner Loop Header: Depth=3
	.loc	1 378 9                 # MatrixMult.c:378:9
	movq	(%r13,%r14,8), %rbx
.Ltmp171:
	#DEBUG_VALUE: mat_mult:_29 <- %RBX
	.loc	1 380 12                # MatrixMult.c:380:12
	imulq	(%r8), %rbx
.Ltmp172:
	#DEBUG_VALUE: mat_mult:_30 <- %RBX
	.loc	1 382 12                # MatrixMult.c:382:12
	addq	%rax, %rbx
.Ltmp173:
	#DEBUG_VALUE: mat_mult:_31 <- %RBX
	.loc	1 388 15                # MatrixMult.c:388:15
	movq	%rbx, (%rbp,%rdx,8)
	.loc	1 378 9                 # MatrixMult.c:378:9
	movq	(%rsi,%r14,8), %rax
	.loc	1 380 12                # MatrixMult.c:380:12
	imulq	8(%r8), %rax
	.loc	1 382 12                # MatrixMult.c:382:12
	addq	%rbx, %rax
	.loc	1 388 15                # MatrixMult.c:388:15
	movq	%rax, (%rbp,%rdx,8)
	.loc	1 360 8                 # MatrixMult.c:360:8
	addq	%r10, %r14
	addq	$16, %r8
	addq	$-2, %rdi
	#DEBUG_VALUE: mat_mult:_34 <- 1
.Ltmp174:
	#DEBUG_VALUE: mat_mult:_23 <- %RAX
	jne	.LBB6_11
.Ltmp175:
.LBB6_12:                               # %blklab17.loopexit.us.us
                                        #   in Loop: Header=BB6_6 Depth=2
	#DEBUG_VALUE: mat_mult:_36 <- 1
	.loc	1 403 9                 # MatrixMult.c:403:9
	incq	%r9
.Ltmp176:
	#DEBUG_VALUE: mat_mult:_37 <- %R9
	#DEBUG_VALUE: mat_mult:j <- %R9
	.loc	1 352 7                 # MatrixMult.c:352:7
	addq	$8, %r15
	cmpq	%r12, %r9
	jne	.LBB6_6
.Ltmp177:
# BB#13:                                # %blklab15.loopexit.us-lcssa.us.us
                                        #   in Loop: Header=BB6_5 Depth=1
	#DEBUG_VALUE: mat_mult:j <- %R9
	#DEBUG_VALUE: mat_mult:_37 <- %R9
	#DEBUG_VALUE: mat_mult:_38 <- 1
	movq	80(%rsp), %rax          # 8-byte Reload
	.loc	1 414 8                 # MatrixMult.c:414:8
	incq	%rax
.Ltmp178:
	#DEBUG_VALUE: mat_mult:_39 <- %RAX
	#DEBUG_VALUE: mat_mult:i <- %RAX
	.loc	1 344 6                 # MatrixMult.c:344:6
	addq	%r12, 72(%rsp)          # 8-byte Folded Spill
	cmpq	40(%rsp), %rax          # 8-byte Folded Reload
	jne	.LBB6_5
.Ltmp179:
.LBB6_14:                               # %if.end60
	#DEBUG_VALUE: mat_mult:b_has_ownership [bit_piece offset=0 size=1] <-  [complex expression]
	#DEBUG_VALUE: mat_mult:data_has_ownership <- 1
	#DEBUG_VALUE: matrix:data_has_ownership [bit_piece offset=0 size=1] <- 0
	#DEBUG_VALUE: matrix:r_has_ownership <- 0
	#DEBUG_VALUE: matrix:_4_has_ownership <- 0
	.loc	1 30 7                  # MatrixMult.c:30:7
	movl	$32, %edi
	callq	malloc
.Ltmp180:
	movq	%rax, %r15
	movq	32(%rsp), %rsi          # 8-byte Reload
	.loc	1 31 2                  # MatrixMult.c:31:2
	movq	%rsi, 8(%r15)
	movq	%rbp, %rdi
	callq	copy
	movq	%rax, (%r15)
	.loc	1 32 13                 # MatrixMult.c:32:13
	movq	40(%rsp), %rax          # 8-byte Reload
	movq	%rax, 24(%r15)
.Ltmp181:
	#DEBUG_VALUE: matrix:_4_has_ownership <- 1
	#DEBUG_VALUE: mat_mult:_40_has_ownership <- 1
	.loc	1 33 12                 # MatrixMult.c:33:12
	movq	%r12, 16(%r15)
.Ltmp182:
	.loc	1 428 2                 # MatrixMult.c:428:2
	movl	52(%rsp), %eax          # 4-byte Reload
	testb	%al, %al
	je	.LBB6_16
# BB#15:                                # %if.then63
.Ltmp183:
	#DEBUG_VALUE: free_Matrix:matrix <- [%RSP+56]
	movq	56(%rsp), %rbx          # 8-byte Reload
.Ltmp184:
	#DEBUG_VALUE: free_Matrix:matrix <- %RBX
	.loc	1 10 15                 # MatrixMult.c:10:15
	movq	(%rbx), %rdi
	.loc	1 10 2 is_stmt 0        # MatrixMult.c:10:2
	callq	free
	.loc	1 11 2 is_stmt 1        # MatrixMult.c:11:2
	movq	%rbx, %rdi
	callq	free
.Ltmp185:
	#DEBUG_VALUE: mat_mult:a_has_ownership <- 0
.LBB6_16:                               # %if.end64
	.loc	1 429 2                 # MatrixMult.c:429:2
	movl	28(%rsp), %eax          # 4-byte Reload
	testb	%al, %al
	je	.LBB6_18
# BB#17:                                # %if.then66
.Ltmp186:
	#DEBUG_VALUE: free_Matrix:matrix <- [%RSP+64]
	movq	64(%rsp), %rbx          # 8-byte Reload
.Ltmp187:
	#DEBUG_VALUE: free_Matrix:matrix <- %RBX
	.loc	1 10 15                 # MatrixMult.c:10:15
	movq	(%rbx), %rdi
	.loc	1 10 2 is_stmt 0        # MatrixMult.c:10:2
	callq	free
	.loc	1 11 2 is_stmt 1        # MatrixMult.c:11:2
	movq	%rbx, %rdi
	callq	free
.Ltmp188:
	#DEBUG_VALUE: mat_mult:b_has_ownership <- 0
.LBB6_18:                               # %if.then72
	.loc	1 431 2 discriminator 1 # MatrixMult.c:431:2
	movq	%rbp, %rdi
	callq	free
.Ltmp189:
	#DEBUG_VALUE: mat_mult:data_has_ownership <- 0
	.loc	1 432 2 discriminator 1 # MatrixMult.c:432:2
	movq	16(%rsp), %rdi          # 8-byte Reload
	callq	free
.Ltmp190:
	#DEBUG_VALUE: mat_mult:a_data_has_ownership <- 0
	.loc	1 433 2 discriminator 1 # MatrixMult.c:433:2
	movq	8(%rsp), %rdi           # 8-byte Reload
	callq	free
.Ltmp191:
	#DEBUG_VALUE: mat_mult:b_data_has_ownership <- 0
	.loc	1 437 2                 # MatrixMult.c:437:2
	movq	%r15, %rax
	addq	$136, %rsp
	popq	%rbx
	popq	%r12
	popq	%r13
	popq	%r14
	popq	%r15
	popq	%rbp
	retq
.Ltmp192:
.Lfunc_end6:
	.size	mat_mult, .Lfunc_end6-mat_mult
	.cfi_endproc

	.section	.rodata.cst16,"aM",@progbits,16
	.p2align	4
.LCPI7_0:
	.quad	109                     # 0x6d
	.quad	97                      # 0x61
.LCPI7_1:
	.quad	120                     # 0x78
	.quad	32                      # 0x20
.LCPI7_2:
	.quad	61                      # 0x3d
	.quad	32                      # 0x20
.LCPI7_3:
	.quad	77                      # 0x4d
	.quad	97                      # 0x61
.LCPI7_4:
	.quad	116                     # 0x74
	.quad	114                     # 0x72
.LCPI7_5:
	.quad	105                     # 0x69
	.quad	120                     # 0x78
.LCPI7_6:
	.quad	32                      # 0x20
	.quad	67                      # 0x43
.LCPI7_7:
	.quad	91                      # 0x5b
	.quad	109                     # 0x6d
.LCPI7_8:
	.quad	97                      # 0x61
	.quad	120                     # 0x78
.LCPI7_9:
	.quad	45                      # 0x2d
	.quad	49                      # 0x31
.LCPI7_10:
	.quad	93                      # 0x5d
	.quad	91                      # 0x5b
.LCPI7_11:
	.quad	120                     # 0x78
	.quad	45                      # 0x2d
.LCPI7_12:
	.quad	49                      # 0x31
	.quad	93                      # 0x5d
.LCPI7_13:
	.quad	32                      # 0x20
	.quad	61                      # 0x3d
.LCPI7_14:
	.quad	80                      # 0x50
	.quad	97                      # 0x61
.LCPI7_15:
	.quad	115                     # 0x73
	.quad	115                     # 0x73
.LCPI7_16:
	.quad	32                      # 0x20
	.quad	77                      # 0x4d
.LCPI7_17:
	.quad	97                      # 0x61
	.quad	116                     # 0x74
.LCPI7_18:
	.quad	114                     # 0x72
	.quad	105                     # 0x69
.LCPI7_19:
	.quad	120                     # 0x78
	.quad	77                      # 0x4d
.LCPI7_20:
	.quad	117                     # 0x75
	.quad	108                     # 0x6c
.LCPI7_21:
	.quad	116                     # 0x74
	.quad	50                      # 0x32
.LCPI7_22:
	.quad	32                      # 0x20
	.quad	116                     # 0x74
.LCPI7_23:
	.quad	101                     # 0x65
	.quad	115                     # 0x73
.LCPI7_24:
	.quad	116                     # 0x74
	.quad	32                      # 0x20
.LCPI7_25:
	.quad	99                      # 0x63
	.quad	97                      # 0x61
.LCPI7_26:
	.quad	115                     # 0x73
	.quad	101                     # 0x65
	.text
	.globl	main
	.p2align	4, 0x90
	.type	main,@function
main:                                   # @main
.Lfunc_begin7:
	.loc	1 441 0                 # MatrixMult.c:441:0
	.cfi_startproc
# BB#0:                                 # %entry
	pushq	%rbp
.Ltmp193:
	.cfi_def_cfa_offset 16
	pushq	%r15
.Ltmp194:
	.cfi_def_cfa_offset 24
	pushq	%r14
.Ltmp195:
	.cfi_def_cfa_offset 32
	pushq	%r13
.Ltmp196:
	.cfi_def_cfa_offset 40
	pushq	%r12
.Ltmp197:
	.cfi_def_cfa_offset 48
	pushq	%rbx
.Ltmp198:
	.cfi_def_cfa_offset 56
	subq	$72, %rsp
.Ltmp199:
	.cfi_def_cfa_offset 128
.Ltmp200:
	.cfi_offset %rbx, -56
.Ltmp201:
	.cfi_offset %r12, -48
.Ltmp202:
	.cfi_offset %r13, -40
.Ltmp203:
	.cfi_offset %r14, -32
.Ltmp204:
	.cfi_offset %r15, -24
.Ltmp205:
	.cfi_offset %rbp, -16
	#DEBUG_VALUE: main:argc <- %EDI
	#DEBUG_VALUE: main:args <- %RSI
	movl	%edi, %ebx
.Ltmp206:
	#DEBUG_VALUE: main:_62_has_ownership <- 0
	#DEBUG_VALUE: main:_62_size <- 0
	#DEBUG_VALUE: main:_59 <- 0
	#DEBUG_VALUE: main:_58 <- 0
	#DEBUG_VALUE: main:_57 <- 0
	#DEBUG_VALUE: main:_56 <- 0
	#DEBUG_VALUE: main:_55 <- 0
	#DEBUG_VALUE: main:_54 <- 0
	#DEBUG_VALUE: main:_53 <- 0
	#DEBUG_VALUE: main:_52_has_ownership <- 0
	#DEBUG_VALUE: main:_52_size <- 0
	#DEBUG_VALUE: main:_49_has_ownership <- 0
	#DEBUG_VALUE: main:_49_size <- 0
	#DEBUG_VALUE: main:_46 <- 0
	#DEBUG_VALUE: main:_45 <- 0
	#DEBUG_VALUE: main:_44 <- 0
	#DEBUG_VALUE: main:_43 <- 0
	#DEBUG_VALUE: main:_42 <- 0
	#DEBUG_VALUE: main:_41 <- 0
	#DEBUG_VALUE: main:_40 <- 0
	#DEBUG_VALUE: main:_39 <- 0
	#DEBUG_VALUE: main:_38_has_ownership <- 0
	#DEBUG_VALUE: main:_38_size <- 0
	#DEBUG_VALUE: main:_37 <- 0
	#DEBUG_VALUE: main:_36 <- 0
	#DEBUG_VALUE: main:_35 <- 0
	#DEBUG_VALUE: main:_34 <- 0
	#DEBUG_VALUE: main:_33 <- 0
	#DEBUG_VALUE: main:_32 <- 0
	#DEBUG_VALUE: main:_31 <- 0
	#DEBUG_VALUE: main:_30 <- 0
	#DEBUG_VALUE: main:_29 <- 0
	#DEBUG_VALUE: main:_28 <- 0
	#DEBUG_VALUE: main:_27_has_ownership <- 0
	#DEBUG_VALUE: main:_27_size <- 0
	#DEBUG_VALUE: main:_26 <- 0
	#DEBUG_VALUE: main:_25 <- 0
	#DEBUG_VALUE: main:_24 <- 0
	#DEBUG_VALUE: main:_23 <- 0
	#DEBUG_VALUE: main:_22 <- 0
	#DEBUG_VALUE: main:_21 <- 0
	#DEBUG_VALUE: main:_20 <- 0
	#DEBUG_VALUE: main:_19 <- 0
	#DEBUG_VALUE: main:_18 <- 0
	#DEBUG_VALUE: main:_17_has_ownership <- 0
	#DEBUG_VALUE: main:_17_size <- 0
	#DEBUG_VALUE: main:_16_has_ownership <- 0
	#DEBUG_VALUE: main:_15_has_ownership <- 0
	#DEBUG_VALUE: main:_14_has_ownership <- 0
	#DEBUG_VALUE: main:_11_has_ownership <- 0
	#DEBUG_VALUE: main:_11_size <- 0
	#DEBUG_VALUE: main:_8_has_ownership <- 0
	#DEBUG_VALUE: main:_8_size <- 0
	#DEBUG_VALUE: main:_7 <- 0
	#DEBUG_VALUE: main:_6_has_ownership <- 0
	#DEBUG_VALUE: main:_6_size_size <- 0
	#DEBUG_VALUE: main:_6_size <- 0
	#DEBUG_VALUE: main:C_has_ownership <- 0
	#DEBUG_VALUE: main:B_has_ownership <- 0
	#DEBUG_VALUE: main:A_has_ownership <- 0
	#DEBUG_VALUE: main:argc <- %EBX
	.loc	1 515 2 prologue_end    # MatrixMult.c:515:2
	callq	convertArgsToIntArray
	movq	%rax, %rbp
.Ltmp207:
	#DEBUG_VALUE: main:_6 <- %RBP
	decl	%ebx
.Ltmp208:
	movslq	%ebx, %rbx
.Ltmp209:
	#DEBUG_VALUE: main:_6_has_ownership <- 1
	#DEBUG_VALUE: main:_6_size <- %EBX
	.loc	1 520 5                 # MatrixMult.c:520:5
	movq	(%rbp), %rdi
.Ltmp210:
	#DEBUG_VALUE: main:_8 <- %RDI
	.loc	1 522 2                 # MatrixMult.c:522:2
	callq	parseStringToInt
	movq	%rax, %r13
.Ltmp211:
	#DEBUG_VALUE: main:max <- %R13
	#DEBUG_VALUE: main:_5 <- %R13
	.loc	1 526 9                 # MatrixMult.c:526:9
	testq	%r13, %r13
	jne	.LBB7_1
.Ltmp212:
# BB#12:                                # %if.end194
	#DEBUG_VALUE: main:_5 <- %R13
	#DEBUG_VALUE: main:max <- %R13
	#DEBUG_VALUE: main:_8 <- %RDI
	#DEBUG_VALUE: main:_6_size <- %EBX
	#DEBUG_VALUE: main:_6 <- %RBP
	#DEBUG_VALUE: main:args <- %RSI
	.loc	1 718 2 discriminator 1 # MatrixMult.c:718:2
	movq	%rbp, %rdi
.Ltmp213:
	movq	%rbx, %rsi
.Ltmp214:
	callq	free2DArray
.Ltmp215:
	#DEBUG_VALUE: main:_6_has_ownership <- 0
	.loc	1 730 2                 # MatrixMult.c:730:2
	xorl	%edi, %edi
	callq	exit
.Ltmp216:
.LBB7_1:                                # %if.end4
	#DEBUG_VALUE: main:_5 <- %R13
	#DEBUG_VALUE: main:max <- %R13
	#DEBUG_VALUE: main:_8 <- %RDI
	#DEBUG_VALUE: main:_6_size <- %EBX
	#DEBUG_VALUE: main:_6 <- %RBP
	#DEBUG_VALUE: main:args <- %RSI
	#DEBUG_VALUE: main:_11_size <- 6
	movq	%rbp, 56(%rsp)          # 8-byte Spill
	movq	%rbx, 64(%rsp)          # 8-byte Spill
	.loc	1 531 2                 # MatrixMult.c:531:2
	movl	$48, %edi
.Ltmp217:
	callq	malloc
	movq	%rax, %r15
.Ltmp218:
	#DEBUG_VALUE: main:_11 <- %R15
	.loc	1 532 9                 # MatrixMult.c:532:9
	movaps	.LCPI7_0(%rip), %xmm0   # xmm0 = [109,97]
	movups	%xmm0, (%r15)
	.loc	1 532 36 is_stmt 0      # MatrixMult.c:532:36
	movaps	.LCPI7_1(%rip), %xmm0   # xmm0 = [120,32]
	movups	%xmm0, 16(%r15)
	.loc	1 532 63                # MatrixMult.c:532:63
	movaps	.LCPI7_2(%rip), %xmm0   # xmm0 = [61,32]
	movups	%xmm0, 32(%r15)
.Ltmp219:
	#DEBUG_VALUE: main:_11_has_ownership <- 1
	.loc	1 535 2 is_stmt 1       # MatrixMult.c:535:2
	movl	$6, %esi
.Ltmp220:
	movq	%r15, %rdi
	callq	printf_s
	.loc	1 539 2                 # MatrixMult.c:539:2
	movl	$.L.str.6, %edi
	xorl	%eax, %eax
	movq	%r13, %rsi
	callq	printf
	.loc	1 542 8                 # MatrixMult.c:542:8
	movq	%r13, %rdi
	movq	%r13, %rsi
	callq	init
	movq	%rax, %r14
.Ltmp221:
	#DEBUG_VALUE: main:A <- %R14
	#DEBUG_VALUE: main:_14 <- %R14
	#DEBUG_VALUE: main:_14_has_ownership <- 0
	#DEBUG_VALUE: main:A_has_ownership <- 1
	.loc	1 551 8                 # MatrixMult.c:551:8
	movq	%r13, %rdi
	movq	%r13, %rsi
	callq	init
	movq	%rax, %rbp
.Ltmp222:
	#DEBUG_VALUE: main:B <- %RBP
	#DEBUG_VALUE: main:_15 <- %RBP
	#DEBUG_VALUE: main:_15_has_ownership <- 0
	#DEBUG_VALUE: main:B_has_ownership <- 1
	.loc	1 562 8                 # MatrixMult.c:562:8
	xorl	%esi, %esi
	xorl	%ecx, %ecx
	movq	%r14, %rdi
	movq	%rbp, %rdx
	callq	mat_mult
	movq	%rax, 16(%rsp)          # 8-byte Spill
.Ltmp223:
	#DEBUG_VALUE: main:C <- [%RSP+16]
	#DEBUG_VALUE: main:_16 <- [%RSP+16]
	#DEBUG_VALUE: main:_16_has_ownership <- 0
	#DEBUG_VALUE: main:C_has_ownership <- 1
	.loc	1 573 3                 # MatrixMult.c:573:3
	movq	(%r14), %rdi
	movq	8(%r14), %rsi
	callq	copy
.Ltmp224:
	#DEBUG_VALUE: main:_17 <- %RAX
	#DEBUG_VALUE: main:_18 <- 1
	#DEBUG_VALUE: main:_17_has_ownership <- 1
	.loc	1 578 10                # MatrixMult.c:578:10
	leaq	-1(%r13), %rbx
.Ltmp225:
	#DEBUG_VALUE: main:_54 <- %RBX
	#DEBUG_VALUE: main:_40 <- %RBX
	#DEBUG_VALUE: main:_36 <- %RBX
	#DEBUG_VALUE: main:_29 <- %RBX
	#DEBUG_VALUE: main:_26 <- %RBX
	#DEBUG_VALUE: main:_19 <- %RBX
	.loc	1 582 10                # MatrixMult.c:582:10
	movq	%r13, %r12
	imulq	%r12, %r12
.Ltmp226:
	#DEBUG_VALUE: main:_56 <- %R12
	#DEBUG_VALUE: main:_42 <- %R12
	#DEBUG_VALUE: main:_31 <- %R12
	#DEBUG_VALUE: main:_25 <- 1
	#DEBUG_VALUE: main:_22 <- 1
	#DEBUG_VALUE: main:_21 <- %R12
	.loc	1 594 9                 # MatrixMult.c:594:9
	cmpq	%rbx, -8(%rax,%r12,8)
	jne	.LBB7_11
.Ltmp227:
# BB#2:                                 # %if.end50
	#DEBUG_VALUE: main:max <- %R13
	#DEBUG_VALUE: main:_5 <- %R13
	#DEBUG_VALUE: main:_21 <- %R12
	#DEBUG_VALUE: main:_31 <- %R12
	#DEBUG_VALUE: main:_42 <- %R12
	#DEBUG_VALUE: main:_56 <- %R12
	#DEBUG_VALUE: main:_19 <- %RBX
	#DEBUG_VALUE: main:_26 <- %RBX
	#DEBUG_VALUE: main:_29 <- %RBX
	#DEBUG_VALUE: main:_36 <- %RBX
	#DEBUG_VALUE: main:_40 <- %RBX
	#DEBUG_VALUE: main:_54 <- %RBX
	#DEBUG_VALUE: main:_17 <- %RAX
	#DEBUG_VALUE: main:_15 <- %RBP
	#DEBUG_VALUE: main:B <- %RBP
	#DEBUG_VALUE: main:_14 <- %R14
	#DEBUG_VALUE: main:A <- %R14
	#DEBUG_VALUE: main:_11 <- %R15
	movq	%r14, 32(%rsp)          # 8-byte Spill
	movq	%r15, 40(%rsp)          # 8-byte Spill
	movq	16(%rsp), %r15          # 8-byte Reload
.Ltmp228:
	movq	%rax, 48(%rsp)          # 8-byte Spill
.Ltmp229:
	.loc	1 606 3                 # MatrixMult.c:606:3
	movq	(%rbp), %rdi
	movq	8(%rbp), %rsi
	callq	copy
.Ltmp230:
	#DEBUG_VALUE: main:_27 <- %RAX
	#DEBUG_VALUE: main:_35 <- 1
	#DEBUG_VALUE: main:_32 <- 1
	#DEBUG_VALUE: main:_28 <- 1
	#DEBUG_VALUE: main:_27_has_ownership <- 1
	.loc	1 627 9                 # MatrixMult.c:627:9
	cmpq	%rbx, -8(%rax,%r12,8)
	movq	%r12, %r14
.Ltmp231:
	jne	.LBB7_11
.Ltmp232:
# BB#3:                                 # %blklab21
	#DEBUG_VALUE: main:B <- %RBP
	#DEBUG_VALUE: main:_15 <- %RBP
	#DEBUG_VALUE: main:_54 <- %RBX
	#DEBUG_VALUE: main:_40 <- %RBX
	#DEBUG_VALUE: main:_36 <- %RBX
	#DEBUG_VALUE: main:_29 <- %RBX
	#DEBUG_VALUE: main:_26 <- %RBX
	#DEBUG_VALUE: main:_19 <- %RBX
	#DEBUG_VALUE: main:_56 <- %R12
	#DEBUG_VALUE: main:_42 <- %R12
	#DEBUG_VALUE: main:_31 <- %R12
	#DEBUG_VALUE: main:_21 <- %R12
	#DEBUG_VALUE: main:_5 <- %R13
	#DEBUG_VALUE: main:max <- %R13
	#DEBUG_VALUE: main:_27 <- %RAX
	#DEBUG_VALUE: main:_37 <- 2000
	.loc	1 638 8                 # MatrixMult.c:638:8
	cmpq	$2000, %r13             # imm = 0x7D0
	jne	.LBB7_4
.Ltmp233:
# BB#5:                                 # %if.end72
	#DEBUG_VALUE: main:_27 <- %RAX
	#DEBUG_VALUE: main:max <- %R13
	#DEBUG_VALUE: main:_5 <- %R13
	#DEBUG_VALUE: main:_21 <- %R12
	#DEBUG_VALUE: main:_31 <- %R12
	#DEBUG_VALUE: main:_42 <- %R12
	#DEBUG_VALUE: main:_56 <- %R12
	#DEBUG_VALUE: main:_19 <- %RBX
	#DEBUG_VALUE: main:_26 <- %RBX
	#DEBUG_VALUE: main:_29 <- %RBX
	#DEBUG_VALUE: main:_36 <- %RBX
	#DEBUG_VALUE: main:_40 <- %RBX
	#DEBUG_VALUE: main:_54 <- %RBX
	#DEBUG_VALUE: main:_15 <- %RBP
	#DEBUG_VALUE: main:B <- %RBP
	movq	%rax, %r13
.Ltmp234:
	.loc	1 643 3                 # MatrixMult.c:643:3
	movq	(%r15), %rdi
	movq	8(%r15), %r15
	movq	%rdi, %r12
.Ltmp235:
	movq	%r15, %rsi
	callq	copy
.Ltmp236:
	#DEBUG_VALUE: main:_38 <- %RAX
	#DEBUG_VALUE: main:_46 <- 3996001000
	#DEBUG_VALUE: main:_43 <- 1
	#DEBUG_VALUE: main:_39 <- 1
	#DEBUG_VALUE: main:_38_has_ownership <- 1
	.loc	1 662 9                 # MatrixMult.c:662:9
	movl	$3996001000, %ecx       # imm = 0xEE2E22E8
	cmpq	%rcx, -8(%rax,%r14,8)
	jne	.LBB7_11
.Ltmp237:
# BB#6:
	#DEBUG_VALUE: main:B <- %RBP
	#DEBUG_VALUE: main:_15 <- %RBP
	#DEBUG_VALUE: main:_54 <- %RBX
	#DEBUG_VALUE: main:_40 <- %RBX
	#DEBUG_VALUE: main:_36 <- %RBX
	#DEBUG_VALUE: main:_29 <- %RBX
	#DEBUG_VALUE: main:_26 <- %RBX
	#DEBUG_VALUE: main:_19 <- %RBX
	#DEBUG_VALUE: main:_38 <- %RAX
	movq	%rax, 24(%rsp)          # 8-byte Spill
	movl	$0, 12(%rsp)            # 4-byte Folded Spill
	movq	%r12, %rbx
.Ltmp238:
	jmp	.LBB7_7
.Ltmp239:
.LBB7_11:                               # %if.end46
	#DEBUG_VALUE: main:_19 <- %RBX
	#DEBUG_VALUE: main:_26 <- %RBX
	#DEBUG_VALUE: main:_29 <- %RBX
	#DEBUG_VALUE: main:_36 <- %RBX
	#DEBUG_VALUE: main:_40 <- %RBX
	#DEBUG_VALUE: main:_54 <- %RBX
	#DEBUG_VALUE: main:_15 <- %RBP
	#DEBUG_VALUE: main:B <- %RBP
	.loc	1 596 11                # MatrixMult.c:596:11
	movq	stderr(%rip), %rcx
	.loc	1 596 3 is_stmt 0       # MatrixMult.c:596:3
	movl	$.L.str.7, %edi
	movl	$4, %esi
	movl	$1, %edx
	callq	fwrite
	.loc	1 597 3 is_stmt 1       # MatrixMult.c:597:3
	movl	$-1, %edi
	callq	exit
.Ltmp240:
.LBB7_4:                                # %blklab21.if.end191_crit_edge
	#DEBUG_VALUE: main:_27 <- %RAX
	#DEBUG_VALUE: main:max <- %R13
	#DEBUG_VALUE: main:_5 <- %R13
	#DEBUG_VALUE: main:_21 <- %R12
	#DEBUG_VALUE: main:_31 <- %R12
	#DEBUG_VALUE: main:_42 <- %R12
	#DEBUG_VALUE: main:_56 <- %R12
	#DEBUG_VALUE: main:_19 <- %RBX
	#DEBUG_VALUE: main:_26 <- %RBX
	#DEBUG_VALUE: main:_29 <- %RBX
	#DEBUG_VALUE: main:_36 <- %RBX
	#DEBUG_VALUE: main:_40 <- %RBX
	#DEBUG_VALUE: main:_54 <- %RBX
	#DEBUG_VALUE: main:_15 <- %RBP
	#DEBUG_VALUE: main:B <- %RBP
	movq	%rax, %r13
.Ltmp241:
	.loc	1 685 2                 # MatrixMult.c:685:2
	movq	(%r15), %rbx
.Ltmp242:
	movq	8(%r15), %r15
	movb	$1, %al
.Ltmp243:
	movl	%eax, 12(%rsp)          # 4-byte Spill
	xorl	%eax, %eax
.Ltmp244:
	#DEBUG_VALUE: main:_62 <- [%RSP+24]
	.loc	1 638 5                 # MatrixMult.c:638:5
	movq	%rax, 24(%rsp)          # 8-byte Spill
.Ltmp245:
.LBB7_7:                                # %if.end191
	#DEBUG_VALUE: main:B <- %RBP
	#DEBUG_VALUE: main:_15 <- %RBP
	#DEBUG_VALUE: main:_49_size <- 25
	.loc	1 676 2                 # MatrixMult.c:676:2
	movl	$200, %edi
	callq	malloc
	movq	%rax, %r12
.Ltmp246:
	#DEBUG_VALUE: main:_49 <- %R12
	.loc	1 677 9                 # MatrixMult.c:677:9
	movaps	.LCPI7_3(%rip), %xmm0   # xmm0 = [77,97]
	movups	%xmm0, (%r12)
	.loc	1 677 35 is_stmt 0      # MatrixMult.c:677:35
	movaps	.LCPI7_4(%rip), %xmm0   # xmm0 = [116,114]
	movups	%xmm0, 16(%r12)
	.loc	1 677 63                # MatrixMult.c:677:63
	movaps	.LCPI7_5(%rip), %xmm0   # xmm0 = [105,120]
	movups	%xmm0, 32(%r12)
	.loc	1 677 91                # MatrixMult.c:677:91
	movaps	.LCPI7_6(%rip), %xmm0   # xmm0 = [32,67]
	movups	%xmm0, 48(%r12)
	.loc	1 677 117               # MatrixMult.c:677:117
	movaps	.LCPI7_7(%rip), %xmm0   # xmm0 = [91,109]
	movups	%xmm0, 64(%r12)
	.loc	1 677 145               # MatrixMult.c:677:145
	movaps	.LCPI7_8(%rip), %xmm0   # xmm0 = [97,120]
	movups	%xmm0, 80(%r12)
	.loc	1 677 174               # MatrixMult.c:677:174
	movaps	.LCPI7_9(%rip), %xmm0   # xmm0 = [45,49]
	movups	%xmm0, 96(%r12)
	.loc	1 677 202               # MatrixMult.c:677:202
	movaps	.LCPI7_10(%rip), %xmm0  # xmm0 = [93,91]
	movups	%xmm0, 112(%r12)
	.loc	1 532 9 is_stmt 1       # MatrixMult.c:532:9
	movaps	.LCPI7_0(%rip), %xmm0   # xmm0 = [109,97]
	.loc	1 677 230               # MatrixMult.c:677:230
	movups	%xmm0, 128(%r12)
	.loc	1 677 259 is_stmt 0     # MatrixMult.c:677:259
	movaps	.LCPI7_11(%rip), %xmm0  # xmm0 = [120,45]
	movups	%xmm0, 144(%r12)
	.loc	1 677 288               # MatrixMult.c:677:288
	movaps	.LCPI7_12(%rip), %xmm0  # xmm0 = [49,93]
	movups	%xmm0, 160(%r12)
	.loc	1 677 316               # MatrixMult.c:677:316
	movaps	.LCPI7_13(%rip), %xmm0  # xmm0 = [32,61]
	movups	%xmm0, 176(%r12)
	.loc	1 677 344               # MatrixMult.c:677:344
	movq	$32, 192(%r12)
.Ltmp247:
	#DEBUG_VALUE: main:_49_has_ownership <- 1
	.loc	1 680 2 is_stmt 1       # MatrixMult.c:680:2
	movl	$25, %esi
	movq	%r12, %rdi
	callq	printf_s
	.loc	1 685 2                 # MatrixMult.c:685:2
	movq	%rbx, %rdi
	movq	%r15, %rsi
	callq	copy
	movq	%rax, %r15
.Ltmp248:
	#DEBUG_VALUE: main:_52 <- %R15
	#DEBUG_VALUE: main:_57 <- 1
	#DEBUG_VALUE: main:_53 <- 1
	#DEBUG_VALUE: main:_52_has_ownership <- 1
	.loc	1 700 6                 # MatrixMult.c:700:6
	movq	-8(%r15,%r14,8), %rsi
.Ltmp249:
	#DEBUG_VALUE: main:_59 <- %RSI
	.loc	1 702 2                 # MatrixMult.c:702:2
	movl	$.L.str.8, %edi
	xorl	%eax, %eax
	callq	printf
.Ltmp250:
	#DEBUG_VALUE: main:_62_size <- 26
	.loc	1 707 2                 # MatrixMult.c:707:2
	movl	$208, %edi
	callq	malloc
	movq	%rax, %r14
.Ltmp251:
	#DEBUG_VALUE: main:_62 <- %R14
	.loc	1 708 9                 # MatrixMult.c:708:9
	movaps	.LCPI7_14(%rip), %xmm0  # xmm0 = [80,97]
	movups	%xmm0, (%r14)
	.loc	1 708 35 is_stmt 0      # MatrixMult.c:708:35
	movaps	.LCPI7_15(%rip), %xmm0  # xmm0 = [115,115]
	movups	%xmm0, 16(%r14)
	.loc	1 708 63                # MatrixMult.c:708:63
	movaps	.LCPI7_16(%rip), %xmm0  # xmm0 = [32,77]
	movups	%xmm0, 32(%r14)
	.loc	1 708 89                # MatrixMult.c:708:89
	movaps	.LCPI7_17(%rip), %xmm0  # xmm0 = [97,116]
	movups	%xmm0, 48(%r14)
	.loc	1 708 116               # MatrixMult.c:708:116
	movaps	.LCPI7_18(%rip), %xmm0  # xmm0 = [114,105]
	movups	%xmm0, 64(%r14)
	.loc	1 708 145               # MatrixMult.c:708:145
	movaps	.LCPI7_19(%rip), %xmm0  # xmm0 = [120,77]
	movups	%xmm0, 80(%r14)
	.loc	1 708 174               # MatrixMult.c:708:174
	movaps	.LCPI7_20(%rip), %xmm0  # xmm0 = [117,108]
	movups	%xmm0, 96(%r14)
	.loc	1 708 204               # MatrixMult.c:708:204
	movaps	.LCPI7_21(%rip), %xmm0  # xmm0 = [116,50]
	movups	%xmm0, 112(%r14)
	.loc	1 708 233               # MatrixMult.c:708:233
	movaps	.LCPI7_22(%rip), %xmm0  # xmm0 = [32,116]
	movups	%xmm0, 128(%r14)
	.loc	1 708 262               # MatrixMult.c:708:262
	movaps	.LCPI7_23(%rip), %xmm0  # xmm0 = [101,115]
	movups	%xmm0, 144(%r14)
	.loc	1 708 292               # MatrixMult.c:708:292
	movaps	.LCPI7_24(%rip), %xmm0  # xmm0 = [116,32]
	movups	%xmm0, 160(%r14)
	.loc	1 708 321               # MatrixMult.c:708:321
	movaps	.LCPI7_25(%rip), %xmm0  # xmm0 = [99,97]
	movups	%xmm0, 176(%r14)
	.loc	1 708 349               # MatrixMult.c:708:349
	movaps	.LCPI7_26(%rip), %xmm0  # xmm0 = [115,101]
	movups	%xmm0, 192(%r14)
.Ltmp252:
	#DEBUG_VALUE: main:_62_has_ownership <- 1
	.loc	1 711 2 is_stmt 1       # MatrixMult.c:711:2
	movl	$26, %esi
.Ltmp253:
	movq	%r14, %rdi
	callq	println_s
	movq	32(%rsp), %rbx          # 8-byte Reload
.Ltmp254:
	.loc	1 10 15                 # MatrixMult.c:10:15
	movq	(%rbx), %rdi
	.loc	1 10 2 is_stmt 0        # MatrixMult.c:10:2
	callq	free
	.loc	1 11 2 is_stmt 1        # MatrixMult.c:11:2
	movq	%rbx, %rdi
	callq	free
.Ltmp255:
	#DEBUG_VALUE: main:A_has_ownership <- 0
	.loc	1 10 15                 # MatrixMult.c:10:15
	movq	(%rbp), %rdi
	.loc	1 10 2 is_stmt 0        # MatrixMult.c:10:2
	callq	free
	.loc	1 11 2 is_stmt 1        # MatrixMult.c:11:2
	movq	%rbp, %rdi
	callq	free
.Ltmp256:
	#DEBUG_VALUE: main:B_has_ownership <- 0
	movq	16(%rsp), %rbx          # 8-byte Reload
.Ltmp257:
	.loc	1 10 15                 # MatrixMult.c:10:15
	movq	(%rbx), %rdi
	.loc	1 10 2 is_stmt 0        # MatrixMult.c:10:2
	callq	free
	.loc	1 11 2 is_stmt 1        # MatrixMult.c:11:2
	movq	%rbx, %rdi
	callq	free
.Ltmp258:
	#DEBUG_VALUE: main:C_has_ownership <- 0
	.loc	1 718 2 discriminator 1 # MatrixMult.c:718:2
	movq	56(%rsp), %rdi          # 8-byte Reload
	movq	64(%rsp), %rsi          # 8-byte Reload
	callq	free2DArray
.Ltmp259:
	#DEBUG_VALUE: main:_6_has_ownership <- 0
	.loc	1 720 2 discriminator 1 # MatrixMult.c:720:2
	movq	40(%rsp), %rdi          # 8-byte Reload
	callq	free
.Ltmp260:
	#DEBUG_VALUE: main:_11_has_ownership <- 0
	.loc	1 724 2 discriminator 1 # MatrixMult.c:724:2
	movq	48(%rsp), %rdi          # 8-byte Reload
	callq	free
.Ltmp261:
	#DEBUG_VALUE: main:_17_has_ownership <- 0
	.loc	1 725 2 discriminator 1 # MatrixMult.c:725:2
	movq	%r13, %rdi
	callq	free
.Ltmp262:
	#DEBUG_VALUE: main:_27_has_ownership <- 0
	.loc	1 726 2                 # MatrixMult.c:726:2
	movl	12(%rsp), %eax          # 4-byte Reload
	testb	%al, %al
	jne	.LBB7_9
.Ltmp263:
# BB#8:                                 # %if.then193
	#DEBUG_VALUE: main:_15 <- %RBP
	#DEBUG_VALUE: main:B <- %RBP
	#DEBUG_VALUE: main:_62 <- %R14
	#DEBUG_VALUE: main:_52 <- %R15
	#DEBUG_VALUE: main:_49 <- %R12
	.loc	1 726 2 is_stmt 0 discriminator 1 # MatrixMult.c:726:2
	movq	24(%rsp), %rdi          # 8-byte Reload
	callq	free
.Ltmp264:
	#DEBUG_VALUE: main:_38_has_ownership <- 0
.LBB7_9:                                # %if.then196
	#DEBUG_VALUE: main:_15 <- %RBP
	#DEBUG_VALUE: main:B <- %RBP
	#DEBUG_VALUE: main:_62 <- %R14
	#DEBUG_VALUE: main:_52 <- %R15
	#DEBUG_VALUE: main:_49 <- %R12
	.loc	1 727 2 is_stmt 1 discriminator 1 # MatrixMult.c:727:2
	movq	%r12, %rdi
	callq	free
.Ltmp265:
	#DEBUG_VALUE: main:_49_has_ownership <- 0
	.loc	1 728 2 discriminator 1 # MatrixMult.c:728:2
	movq	%r15, %rdi
	callq	free
.Ltmp266:
	#DEBUG_VALUE: main:_52_has_ownership <- 0
	.loc	1 729 2 discriminator 1 # MatrixMult.c:729:2
	movq	%r14, %rdi
	callq	free
.Ltmp267:
	#DEBUG_VALUE: main:_62_has_ownership <- 0
	.loc	1 730 2                 # MatrixMult.c:730:2
	xorl	%edi, %edi
	callq	exit
.Ltmp268:
.Lfunc_end7:
	.size	main, .Lfunc_end7-main
	.cfi_endproc

	.p2align	4, 0x90
	.type	init_polly_subfn,@function
init_polly_subfn:                       # @init_polly_subfn
.Lfunc_begin8:
	.cfi_startproc
# BB#0:                                 # %polly.par.setup
	pushq	%rbp
.Ltmp269:
	.cfi_def_cfa_offset 16
	pushq	%r15
.Ltmp270:
	.cfi_def_cfa_offset 24
	pushq	%r14
.Ltmp271:
	.cfi_def_cfa_offset 32
	pushq	%r13
.Ltmp272:
	.cfi_def_cfa_offset 40
	pushq	%r12
.Ltmp273:
	.cfi_def_cfa_offset 48
	pushq	%rbx
.Ltmp274:
	.cfi_def_cfa_offset 56
	subq	$136, %rsp
.Ltmp275:
	.cfi_def_cfa_offset 192
.Ltmp276:
	.cfi_offset %rbx, -56
.Ltmp277:
	.cfi_offset %r12, -48
.Ltmp278:
	.cfi_offset %r13, -40
.Ltmp279:
	.cfi_offset %r14, -32
.Ltmp280:
	.cfi_offset %r15, -24
.Ltmp281:
	.cfi_offset %rbp, -16
	movq	(%rdi), %rbx
	movq	8(%rdi), %rax
	movq	%rax, 88(%rsp)          # 8-byte Spill
	movq	16(%rdi), %rbp
	leaq	56(%rsp), %rdi
	leaq	48(%rsp), %rsi
	callq	GOMP_loop_runtime_next
	testb	%al, %al
	je	.LBB8_2
# BB#1:                                 # %polly.par.loadIVBounds.lr.ph
	movq	%rbx, 120(%rsp)         # 8-byte Spill
	movl	%ebx, %r14d
	andl	$3, %r14d
	leaq	-1(%rbx), %rax
	sarq	$5, %rax
	movq	%rax, 32(%rsp)          # 8-byte Spill
	movq	%rbx, %rax
	shrq	$2, %rax
	decq	%rax
	movq	%rax, 112(%rsp)         # 8-byte Spill
	movabsq	$2305843009213693948, %rax # imm = 0x1FFFFFFFFFFFFFFC
	andq	%rbx, %rax
	leaq	(%rbp,%rax,8), %rax
	movq	%rax, 72(%rsp)          # 8-byte Spill
	movq	%rbx, %rax
	shlq	$5, %rax
	movq	%rax, 64(%rsp)          # 8-byte Spill
	movq	%rbx, %rax
	shlq	$8, %rax
	movq	%rax, 96(%rsp)          # 8-byte Spill
	leaq	(,%rbx,8), %r12
	addq	$16, %rbp
	movq	%rbp, 80(%rsp)          # 8-byte Spill
	.p2align	4, 0x90
.LBB8_4:                                # %polly.par.loadIVBounds
                                        # =>This Loop Header: Depth=1
                                        #     Child Loop BB8_5 Depth 2
                                        #       Child Loop BB8_7 Depth 3
                                        #         Child Loop BB8_19 Depth 4
                                        #           Child Loop BB8_20 Depth 5
                                        #         Child Loop BB8_12 Depth 4
                                        #           Child Loop BB8_13 Depth 5
                                        #           Child Loop BB8_10 Depth 5
	movq	48(%rsp), %rax
	movq	56(%rsp), %rcx
	movq	%rcx, (%rsp)            # 8-byte Spill
	addq	$-2, %rax
	movq	%rax, 104(%rsp)         # 8-byte Spill
	movq	64(%rsp), %rax          # 8-byte Reload
	imulq	%rcx, %rax
	movq	72(%rsp), %rcx          # 8-byte Reload
	leaq	(%rcx,%rax,8), %rcx
	movq	%rcx, 8(%rsp)           # 8-byte Spill
	movq	80(%rsp), %rcx          # 8-byte Reload
	leaq	(%rcx,%rax,8), %rax
	movq	%rax, 24(%rsp)          # 8-byte Spill
	.p2align	4, 0x90
.LBB8_5:                                # %polly.loop_header
                                        #   Parent Loop BB8_4 Depth=1
                                        # =>  This Loop Header: Depth=2
                                        #       Child Loop BB8_7 Depth 3
                                        #         Child Loop BB8_19 Depth 4
                                        #           Child Loop BB8_20 Depth 5
                                        #         Child Loop BB8_12 Depth 4
                                        #           Child Loop BB8_13 Depth 5
                                        #           Child Loop BB8_10 Depth 5
	cmpq	$0, 32(%rsp)            # 8-byte Folded Reload
	js	.LBB8_17
# BB#6:                                 # %polly.loop_header2.preheader
                                        #   in Loop: Header=BB8_5 Depth=2
	movq	(%rsp), %rdi            # 8-byte Reload
	shlq	$5, %rdi
	movq	88(%rsp), %rcx          # 8-byte Reload
	subq	%rdi, %rcx
	decq	%rcx
	cmpq	$31, %rcx
	movl	$31, %eax
	cmovgq	%rax, %rcx
	movq	%rcx, 128(%rsp)         # 8-byte Spill
	leaq	-1(%rcx), %rsi
	movq	24(%rsp), %rax          # 8-byte Reload
	movq	%rax, 40(%rsp)          # 8-byte Spill
	xorl	%eax, %eax
	movq	%rax, 16(%rsp)          # 8-byte Spill
	.p2align	4, 0x90
.LBB8_7:                                # %polly.loop_header2
                                        #   Parent Loop BB8_4 Depth=1
                                        #     Parent Loop BB8_5 Depth=2
                                        # =>    This Loop Header: Depth=3
                                        #         Child Loop BB8_19 Depth 4
                                        #           Child Loop BB8_20 Depth 5
                                        #         Child Loop BB8_12 Depth 4
                                        #           Child Loop BB8_13 Depth 5
                                        #           Child Loop BB8_10 Depth 5
	cmpq	$0, 128(%rsp)           # 8-byte Folded Reload
	js	.LBB8_16
# BB#8:                                 # %polly.loop_header10.preheader
                                        #   in Loop: Header=BB8_7 Depth=3
	testq	%r14, %r14
	sete	%al
	movq	16(%rsp), %rbp          # 8-byte Reload
	leaq	(,%rbp,8), %rcx
	movq	112(%rsp), %rdx         # 8-byte Reload
	subq	%rcx, %rdx
	cmpq	$7, %rdx
	movl	$7, %ecx
	cmovgq	%rcx, %rdx
	movq	%rbp, %rcx
	shlq	$5, %rcx
	orq	$31, %rcx
	cmpq	120(%rsp), %rcx         # 8-byte Folded Reload
	setl	%r8b
	orb	%al, %r8b
	testq	%rdx, %rdx
	js	.LBB8_15
# BB#9:                                 #   in Loop: Header=BB8_7 Depth=3
	decq	%rdx
	movq	8(%rsp), %r9            # 8-byte Reload
	movq	40(%rsp), %r11          # 8-byte Reload
	xorl	%r13d, %r13d
	.p2align	4, 0x90
.LBB8_12:                               # %polly.loop_preheader28.preheader.us
                                        #   Parent Loop BB8_4 Depth=1
                                        #     Parent Loop BB8_5 Depth=2
                                        #       Parent Loop BB8_7 Depth=3
                                        # =>      This Loop Header: Depth=4
                                        #           Child Loop BB8_13 Depth 5
                                        #           Child Loop BB8_10 Depth 5
	leaq	(%r13,%rdi), %r15
	.loc	1 103 11                # MatrixMult.c:103:11
	movd	%r15, %xmm0
	pshufd	$68, %xmm0, %xmm0       # xmm0 = xmm0[0,1,0,1]
	movq	$-1, %rax
	movq	%r11, %r10
	.p2align	4, 0x90
.LBB8_13:                               # %polly.loop_preheader28.us
                                        #   Parent Loop BB8_4 Depth=1
                                        #     Parent Loop BB8_5 Depth=2
                                        #       Parent Loop BB8_7 Depth=3
                                        #         Parent Loop BB8_12 Depth=4
                                        # =>        This Inner Loop Header: Depth=5
	movdqu	-16(%r10), %xmm1
	paddq	%xmm0, %xmm1
	movdqu	%xmm1, -16(%r10)
	movdqu	(%r10), %xmm1
	paddq	%xmm0, %xmm1
	movdqu	%xmm1, (%r10)
	incq	%rax
	addq	$32, %r10
	cmpq	%rdx, %rax
	jle	.LBB8_13
# BB#14:                                # %polly.cond.loopexit.us
                                        #   in Loop: Header=BB8_12 Depth=4
	testb	%r8b, %r8b
	movq	%r9, %rax
	movq	%r14, %rcx
	jne	.LBB8_11
	.p2align	4, 0x90
.LBB8_10:                               # %polly.loop_header34.us
                                        #   Parent Loop BB8_4 Depth=1
                                        #     Parent Loop BB8_5 Depth=2
                                        #       Parent Loop BB8_7 Depth=3
                                        #         Parent Loop BB8_12 Depth=4
                                        # =>        This Inner Loop Header: Depth=5
	addq	%r15, (%rax)
	addq	$8, %rax
	decq	%rcx
	jne	.LBB8_10
.LBB8_11:                               # %polly.merge.us
                                        #   in Loop: Header=BB8_12 Depth=4
	addq	%r12, %r11
	addq	%r12, %r9
	cmpq	%rsi, %r13
	leaq	1(%r13), %r13
	jle	.LBB8_12
	jmp	.LBB8_16
	.p2align	4, 0x90
.LBB8_15:                               # %polly.loop_header10.preheader.split
                                        #   in Loop: Header=BB8_7 Depth=3
	testb	%r8b, %r8b
	movq	8(%rsp), %rbx           # 8-byte Reload
	movl	$0, %eax
	jne	.LBB8_16
	.p2align	4, 0x90
.LBB8_19:                               # %polly.loop_header34.preheader
                                        #   Parent Loop BB8_4 Depth=1
                                        #     Parent Loop BB8_5 Depth=2
                                        #       Parent Loop BB8_7 Depth=3
                                        # =>      This Loop Header: Depth=4
                                        #           Child Loop BB8_20 Depth 5
	leaq	(%rax,%rdi), %rcx
	movq	%rbx, %rdx
	movq	%r14, %rbp
	.p2align	4, 0x90
.LBB8_20:                               # %polly.loop_header34
                                        #   Parent Loop BB8_4 Depth=1
                                        #     Parent Loop BB8_5 Depth=2
                                        #       Parent Loop BB8_7 Depth=3
                                        #         Parent Loop BB8_19 Depth=4
                                        # =>        This Inner Loop Header: Depth=5
	addq	%rcx, (%rdx)
	addq	$8, %rdx
	decq	%rbp
	jne	.LBB8_20
# BB#18:                                # %polly.merge
                                        #   in Loop: Header=BB8_19 Depth=4
	addq	%r12, %rbx
	cmpq	%rsi, %rax
	leaq	1(%rax), %rax
	jle	.LBB8_19
	.p2align	4, 0x90
.LBB8_16:                               # %polly.loop_exit12
                                        #   in Loop: Header=BB8_7 Depth=3
	addq	$256, 40(%rsp)          # 8-byte Folded Spill
                                        # imm = 0x100
	movq	16(%rsp), %rax          # 8-byte Reload
	cmpq	32(%rsp), %rax          # 8-byte Folded Reload
	leaq	1(%rax), %rax
	movq	%rax, 16(%rsp)          # 8-byte Spill
	jne	.LBB8_7
.LBB8_17:                               # %polly.loop_exit4
                                        #   in Loop: Header=BB8_5 Depth=2
	movq	96(%rsp), %rax          # 8-byte Reload
	addq	%rax, 8(%rsp)           # 8-byte Folded Spill
	addq	%rax, 24(%rsp)          # 8-byte Folded Spill
	movq	(%rsp), %rax            # 8-byte Reload
	cmpq	104(%rsp), %rax         # 8-byte Folded Reload
	leaq	1(%rax), %rax
	movq	%rax, (%rsp)            # 8-byte Spill
	jle	.LBB8_5
# BB#3:                                 # %polly.par.checkNext.loopexit
                                        #   in Loop: Header=BB8_4 Depth=1
	leaq	56(%rsp), %rdi
	leaq	48(%rsp), %rsi
	callq	GOMP_loop_runtime_next
	testb	%al, %al
	jne	.LBB8_4
.LBB8_2:                                # %polly.par.exit
	callq	GOMP_loop_end_nowait
	addq	$136, %rsp
	popq	%rbx
	popq	%r12
	popq	%r13
	popq	%r14
	popq	%r15
	popq	%rbp
	retq
.Lfunc_end8:
	.size	init_polly_subfn, .Lfunc_end8-init_polly_subfn
	.cfi_endproc

	.p2align	4, 0x90
	.type	mat_mult_polly_subfn,@function
mat_mult_polly_subfn:                   # @mat_mult_polly_subfn
.Lfunc_begin9:
	.cfi_startproc
# BB#0:                                 # %polly.par.setup
	pushq	%rbp
.Ltmp282:
	.cfi_def_cfa_offset 16
	pushq	%r15
.Ltmp283:
	.cfi_def_cfa_offset 24
	pushq	%r14
.Ltmp284:
	.cfi_def_cfa_offset 32
	pushq	%r13
.Ltmp285:
	.cfi_def_cfa_offset 40
	pushq	%r12
.Ltmp286:
	.cfi_def_cfa_offset 48
	pushq	%rbx
.Ltmp287:
	.cfi_def_cfa_offset 56
	subq	$456, %rsp              # imm = 0x1C8
.Ltmp288:
	.cfi_def_cfa_offset 512
.Ltmp289:
	.cfi_offset %rbx, -56
.Ltmp290:
	.cfi_offset %r12, -48
.Ltmp291:
	.cfi_offset %r13, -40
.Ltmp292:
	.cfi_offset %r14, -32
.Ltmp293:
	.cfi_offset %r15, -24
.Ltmp294:
	.cfi_offset %rbp, -16
	movq	(%rdi), %rbx
	movq	8(%rdi), %rax
	movq	%rax, 296(%rsp)         # 8-byte Spill
	movq	16(%rdi), %rbp
	movq	24(%rdi), %rax
	movq	%rax, 32(%rsp)          # 8-byte Spill
	movq	32(%rdi), %r15
	leaq	256(%rsp), %rdi
	leaq	248(%rsp), %rsi
	callq	GOMP_loop_runtime_next
	testb	%al, %al
	je	.LBB9_2
# BB#1:                                 # %polly.par.loadIVBounds.lr.ph
	movq	%rbx, %rcx
	movq	%rcx, 16(%rsp)          # 8-byte Spill
	movl	%ecx, %eax
	andl	$3, %eax
	movq	%rax, 112(%rsp)         # 8-byte Spill
	leaq	-1(%rcx), %rdx
	movq	%rdx, %rsi
	shrq	$5, %rsi
	movq	%rsi, 352(%rsp)         # 8-byte Spill
	sarq	$5, %rdx
	movq	%rdx, 128(%rsp)         # 8-byte Spill
	movq	%rcx, %rdx
	shrq	$2, %rdx
	decq	%rdx
	movq	%rdx, 344(%rsp)         # 8-byte Spill
	movq	%rcx, %rdx
	andq	$-4, %rdx
	movq	%rdx, 24(%rsp)          # 8-byte Spill
	decq	%rax
	movq	%rax, 216(%rsp)         # 8-byte Spill
	movl	%ecx, %eax
	andl	$1, %eax
	movq	%rax, 208(%rsp)         # 8-byte Spill
	movq	%rdx, %rax
	imulq	%rcx, %rax
	movq	%rax, 192(%rsp)         # 8-byte Spill
	leaq	1(%rdx), %rax
	movq	%rax, 200(%rsp)         # 8-byte Spill
	leaq	(%rcx,%rcx), %rax
	movq	%rax, 48(%rsp)          # 8-byte Spill
	movq	%rcx, %r14
	shlq	$5, %r14
	leaq	(%rcx,%rcx,2), %rax
	movq	%r15, 104(%rsp)         # 8-byte Spill
	leaq	(%r15,%rax,8), %rax
	movq	%rax, 288(%rsp)         # 8-byte Spill
	movq	%rcx, %rax
	shlq	$8, %rax
	movq	%rax, 144(%rsp)         # 8-byte Spill
	movq	32(%rsp), %rax          # 8-byte Reload
	leaq	24(%rax), %rax
	movq	%rax, 264(%rsp)         # 8-byte Spill
	movq	%rcx, %rax
	shlq	$4, %rax
	addq	%r15, %rax
	movq	%rax, 280(%rsp)         # 8-byte Spill
	leaq	(,%rcx,8), %rax
	movq	%rax, 384(%rsp)         # 8-byte Spill
	leaq	(%r15,%rcx,8), %rax
	movq	%rax, 272(%rsp)         # 8-byte Spill
	.p2align	4, 0x90
.LBB9_4:                                # %polly.par.loadIVBounds
                                        # =>This Loop Header: Depth=1
                                        #     Child Loop BB9_5 Depth 2
                                        #       Child Loop BB9_7 Depth 3
                                        #         Child Loop BB9_8 Depth 4
                                        #           Child Loop BB9_10 Depth 5
                                        #             Child Loop BB9_28 Depth 6
                                        #               Child Loop BB9_35 Depth 7
                                        #             Child Loop BB9_16 Depth 6
                                        #               Child Loop BB9_17 Depth 7
                                        #               Child Loop BB9_24 Depth 7
	movq	248(%rsp), %rax
	movq	256(%rsp), %rcx
	movq	%rcx, 64(%rsp)          # 8-byte Spill
	addq	$-2, %rax
	movq	%rax, 304(%rsp)         # 8-byte Spill
	movq	%r14, %rax
	imulq	%rcx, %rax
	movq	24(%rsp), %rcx          # 8-byte Reload
	leaq	(%rcx,%rax), %rcx
	movq	%rcx, 136(%rsp)         # 8-byte Spill
	movq	264(%rsp), %rcx         # 8-byte Reload
	leaq	(%rcx,%rax,8), %rax
	movq	%rax, 72(%rsp)          # 8-byte Spill
	movq	%rbp, %rbx
	.p2align	4, 0x90
.LBB9_5:                                # %polly.loop_header
                                        #   Parent Loop BB9_4 Depth=1
                                        # =>  This Loop Header: Depth=2
                                        #       Child Loop BB9_7 Depth 3
                                        #         Child Loop BB9_8 Depth 4
                                        #           Child Loop BB9_10 Depth 5
                                        #             Child Loop BB9_28 Depth 6
                                        #               Child Loop BB9_35 Depth 7
                                        #             Child Loop BB9_16 Depth 6
                                        #               Child Loop BB9_17 Depth 7
                                        #               Child Loop BB9_24 Depth 7
	cmpq	$0, 128(%rsp)           # 8-byte Folded Reload
	js	.LBB9_14
# BB#6:                                 # %polly.loop_header3.preheader
                                        #   in Loop: Header=BB9_5 Depth=2
	movq	64(%rsp), %rax          # 8-byte Reload
	shlq	$5, %rax
	movq	%rax, 368(%rsp)         # 8-byte Spill
	movq	296(%rsp), %rcx         # 8-byte Reload
	subq	%rax, %rcx
	decq	%rcx
	cmpq	$31, %rcx
	movl	$31, %eax
	cmovgq	%rax, %rcx
	movq	%rcx, 360(%rsp)         # 8-byte Spill
	leaq	-1(%rcx), %rax
	movq	%rax, 392(%rsp)         # 8-byte Spill
	movq	272(%rsp), %rcx         # 8-byte Reload
	movq	280(%rsp), %rsi         # 8-byte Reload
	movq	288(%rsp), %r8          # 8-byte Reload
	movq	104(%rsp), %rbp         # 8-byte Reload
	xorl	%eax, %eax
	.p2align	4, 0x90
.LBB9_7:                                # %polly.loop_header3
                                        #   Parent Loop BB9_4 Depth=1
                                        #     Parent Loop BB9_5 Depth=2
                                        # =>    This Loop Header: Depth=3
                                        #         Child Loop BB9_8 Depth 4
                                        #           Child Loop BB9_10 Depth 5
                                        #             Child Loop BB9_28 Depth 6
                                        #               Child Loop BB9_35 Depth 7
                                        #             Child Loop BB9_16 Depth 6
                                        #               Child Loop BB9_17 Depth 7
                                        #               Child Loop BB9_24 Depth 7
	movq	%rax, 312(%rsp)         # 8-byte Spill
	movq	%rbp, 88(%rsp)          # 8-byte Spill
	movq	%r8, 320(%rsp)          # 8-byte Spill
	movq	%rsi, 328(%rsp)         # 8-byte Spill
	movq	%rcx, 336(%rsp)         # 8-byte Spill
	movq	%rax, %rdi
	shlq	$5, %rdi
	movq	%rdi, 232(%rsp)         # 8-byte Spill
	movq	16(%rsp), %rax          # 8-byte Reload
	subq	%rdi, %rax
	decq	%rax
	cmpq	$31, %rax
	movl	$31, %edi
	cmovleq	%rax, %rdi
	movq	%rdi, 400(%rsp)         # 8-byte Spill
	leaq	-1(%rdi), %rax
	movq	%rax, 224(%rsp)         # 8-byte Spill
	movq	%rbp, 184(%rsp)         # 8-byte Spill
	movq	%rcx, 176(%rsp)         # 8-byte Spill
	movq	%rsi, 168(%rsp)         # 8-byte Spill
	movq	72(%rsp), %rax          # 8-byte Reload
	movq	%rax, 152(%rsp)         # 8-byte Spill
	movq	%r8, 160(%rsp)          # 8-byte Spill
	xorl	%eax, %eax
	movq	%rax, 80(%rsp)          # 8-byte Spill
	.p2align	4, 0x90
.LBB9_8:                                # %polly.loop_header10
                                        #   Parent Loop BB9_4 Depth=1
                                        #     Parent Loop BB9_5 Depth=2
                                        #       Parent Loop BB9_7 Depth=3
                                        # =>      This Loop Header: Depth=4
                                        #           Child Loop BB9_10 Depth 5
                                        #             Child Loop BB9_28 Depth 6
                                        #               Child Loop BB9_35 Depth 7
                                        #             Child Loop BB9_16 Depth 6
                                        #               Child Loop BB9_17 Depth 7
                                        #               Child Loop BB9_24 Depth 7
	cmpq	$0, 360(%rsp)           # 8-byte Folded Reload
	js	.LBB9_31
# BB#9:                                 # %polly.loop_header18.preheader
                                        #   in Loop: Header=BB9_8 Depth=4
	cmpq	$0, 112(%rsp)           # 8-byte Folded Reload
	sete	%al
	movq	80(%rsp), %rsi          # 8-byte Reload
	leaq	(,%rsi,8), %rcx
	movq	344(%rsp), %rdi         # 8-byte Reload
	subq	%rcx, %rdi
	cmpq	$7, %rdi
	movl	$7, %ecx
	cmovgq	%rcx, %rdi
	movq	%rdi, 376(%rsp)         # 8-byte Spill
	movq	%rsi, %rcx
	shlq	$5, %rcx
	orq	$31, %rcx
	cmpq	16(%rsp), %rcx          # 8-byte Folded Reload
	setl	%cl
	orb	%al, %cl
	movb	%cl, 15(%rsp)           # 1-byte Spill
	leaq	-1(%rdi), %r11
	movq	152(%rsp), %rax         # 8-byte Reload
	movq	%rax, 120(%rsp)         # 8-byte Spill
	movq	136(%rsp), %rax         # 8-byte Reload
	movq	%rax, 40(%rsp)          # 8-byte Spill
	xorl	%eax, %eax
	movq	%rax, 96(%rsp)          # 8-byte Spill
	.p2align	4, 0x90
.LBB9_10:                               # %polly.loop_header18
                                        #   Parent Loop BB9_4 Depth=1
                                        #     Parent Loop BB9_5 Depth=2
                                        #       Parent Loop BB9_7 Depth=3
                                        #         Parent Loop BB9_8 Depth=4
                                        # =>        This Loop Header: Depth=5
                                        #             Child Loop BB9_28 Depth 6
                                        #               Child Loop BB9_35 Depth 7
                                        #             Child Loop BB9_16 Depth 6
                                        #               Child Loop BB9_17 Depth 7
                                        #               Child Loop BB9_24 Depth 7
	cmpq	$0, 400(%rsp)           # 8-byte Folded Reload
	js	.LBB9_30
# BB#11:                                # %polly.loop_header27.preheader
                                        #   in Loop: Header=BB9_10 Depth=5
	movq	368(%rsp), %rax         # 8-byte Reload
	movq	96(%rsp), %rcx          # 8-byte Reload
	leaq	(%rcx,%rax), %rcx
	imulq	16(%rsp), %rcx          # 8-byte Folded Reload
	movq	%rcx, 240(%rsp)         # 8-byte Spill
	cmpq	$0, 376(%rsp)           # 8-byte Folded Reload
	js	.LBB9_26
# BB#12:                                # %polly.loop_preheader46.preheader.us.preheader
                                        #   in Loop: Header=BB9_10 Depth=5
	movq	24(%rsp), %rax          # 8-byte Reload
	leaq	(%rax,%rcx), %rax
	movq	%rax, 408(%rsp)         # 8-byte Spill
	movq	88(%rsp), %r13          # 8-byte Reload
	movq	184(%rsp), %r15         # 8-byte Reload
	movq	176(%rsp), %rdi         # 8-byte Reload
	movq	168(%rsp), %rdx         # 8-byte Reload
	movq	160(%rsp), %r12         # 8-byte Reload
	xorl	%r9d, %r9d
	.p2align	4, 0x90
.LBB9_16:                               # %polly.loop_preheader46.preheader.us
                                        #   Parent Loop BB9_4 Depth=1
                                        #     Parent Loop BB9_5 Depth=2
                                        #       Parent Loop BB9_7 Depth=3
                                        #         Parent Loop BB9_8 Depth=4
                                        #           Parent Loop BB9_10 Depth=5
                                        # =>          This Loop Header: Depth=6
                                        #               Child Loop BB9_17 Depth 7
                                        #               Child Loop BB9_24 Depth 7
	movq	%r13, 424(%rsp)         # 8-byte Spill
	movq	%rdx, 432(%rsp)         # 8-byte Spill
	movq	%rdi, 440(%rsp)         # 8-byte Spill
	movq	%r15, 448(%rsp)         # 8-byte Spill
	movq	232(%rsp), %rax         # 8-byte Reload
	leaq	(%r9,%rax), %rax
	movq	%rax, 416(%rsp)         # 8-byte Spill
	leaq	(%rax,%rcx), %rax
	movq	%rax, 56(%rsp)          # 8-byte Spill
	movq	(%rbx,%rax,8), %r10
	movq	$-1, %rax
	movq	%rdi, %rbp
	movq	%rdx, %rcx
	movq	120(%rsp), %r8          # 8-byte Reload
	movq	%r12, %r13
	.p2align	4, 0x90
.LBB9_17:                               # %polly.loop_preheader46.us
                                        #   Parent Loop BB9_4 Depth=1
                                        #     Parent Loop BB9_5 Depth=2
                                        #       Parent Loop BB9_7 Depth=3
                                        #         Parent Loop BB9_8 Depth=4
                                        #           Parent Loop BB9_10 Depth=5
                                        #             Parent Loop BB9_16 Depth=6
                                        # =>            This Inner Loop Header: Depth=7
	movq	(%r15), %rsi
	.loc	1 380 12                # MatrixMult.c:380:12
	imulq	-24(%r8), %rsi
	.loc	1 382 12                # MatrixMult.c:382:12
	addq	%r10, %rsi
	movq	(%rbp), %rdi
	.loc	1 380 12                # MatrixMult.c:380:12
	imulq	-16(%r8), %rdi
	.loc	1 382 12                # MatrixMult.c:382:12
	addq	%rsi, %rdi
	movq	(%rcx), %rsi
	.loc	1 380 12                # MatrixMult.c:380:12
	imulq	-8(%r8), %rsi
	.loc	1 382 12                # MatrixMult.c:382:12
	addq	%rdi, %rsi
	movq	(%r13), %r10
	.loc	1 380 12                # MatrixMult.c:380:12
	imulq	(%r8), %r10
	.loc	1 382 12                # MatrixMult.c:382:12
	addq	%rsi, %r10
	incq	%rax
	addq	%r14, %r13
	addq	$32, %r8
	addq	%r14, %rcx
	addq	%r14, %rbp
	addq	%r14, %r15
	cmpq	%r11, %rax
	jle	.LBB9_17
# BB#18:                                # %polly.cond.loopexit.us
                                        #   in Loop: Header=BB9_16 Depth=6
	movq	56(%rsp), %rax          # 8-byte Reload
	movq	%r10, (%rbx,%rax,8)
	cmpb	$0, 15(%rsp)            # 1-byte Folded Reload
	movq	424(%rsp), %r13         # 8-byte Reload
	jne	.LBB9_15
# BB#19:                                # %polly.loop_header56.us.preheader
                                        #   in Loop: Header=BB9_16 Depth=6
	cmpq	$0, 208(%rsp)           # 8-byte Folded Reload
	jne	.LBB9_21
# BB#20:                                #   in Loop: Header=BB9_16 Depth=6
	movq	%rbx, %r8
                                        # implicit-def: %RAX
	xorl	%edi, %edi
	jmp	.LBB9_22
	.p2align	4, 0x90
.LBB9_21:                               # %polly.loop_header56.us.prol
                                        #   in Loop: Header=BB9_16 Depth=6
	movq	%rbx, %r8
	movq	416(%rsp), %rcx         # 8-byte Reload
	addq	192(%rsp), %rcx         # 8-byte Folded Reload
	movq	104(%rsp), %rax         # 8-byte Reload
	movq	(%rax,%rcx,8), %rax
	.loc	1 380 12                # MatrixMult.c:380:12
	movq	32(%rsp), %rcx          # 8-byte Reload
	movq	408(%rsp), %rdx         # 8-byte Reload
	imulq	(%rcx,%rdx,8), %rax
	.loc	1 382 12                # MatrixMult.c:382:12
	addq	%r10, %rax
	movq	%rax, %r10
	movl	$1, %edi
.LBB9_22:                               # %polly.loop_header56.us.preheader.split
                                        #   in Loop: Header=BB9_16 Depth=6
	movq	48(%rsp), %r15          # 8-byte Reload
	cmpq	$0, 216(%rsp)           # 8-byte Folded Reload
	je	.LBB9_25
# BB#23:                                # %polly.loop_header56.us.preheader.split.split
                                        #   in Loop: Header=BB9_16 Depth=6
	movq	112(%rsp), %rcx         # 8-byte Reload
	subq	%rdi, %rcx
	movq	200(%rsp), %rax         # 8-byte Reload
	leaq	(%rax,%rdi), %rax
	movq	16(%rsp), %rdx          # 8-byte Reload
	imulq	%rdx, %rax
	leaq	(%r13,%rax,8), %rbp
	movq	40(%rsp), %rax          # 8-byte Reload
	leaq	(%rax,%rdi), %rax
	movq	32(%rsp), %rsi          # 8-byte Reload
	leaq	(%rsi,%rax,8), %rsi
	addq	24(%rsp), %rdi          # 8-byte Folded Reload
	imulq	%rdx, %rdi
	leaq	(%r13,%rdi,8), %rdi
	xorl	%ebx, %ebx
	movq	%r10, %rax
	.p2align	4, 0x90
.LBB9_24:                               # %polly.loop_header56.us
                                        #   Parent Loop BB9_4 Depth=1
                                        #     Parent Loop BB9_5 Depth=2
                                        #       Parent Loop BB9_7 Depth=3
                                        #         Parent Loop BB9_8 Depth=4
                                        #           Parent Loop BB9_10 Depth=5
                                        #             Parent Loop BB9_16 Depth=6
                                        # =>            This Inner Loop Header: Depth=7
	movq	(%rdi,%rbx,8), %rdx
	.loc	1 380 12                # MatrixMult.c:380:12
	imulq	(%rsi), %rdx
	.loc	1 382 12                # MatrixMult.c:382:12
	addq	%rax, %rdx
	movq	(%rbp,%rbx,8), %rax
	.loc	1 380 12                # MatrixMult.c:380:12
	imulq	8(%rsi), %rax
	.loc	1 382 12                # MatrixMult.c:382:12
	addq	%rdx, %rax
	addq	%r15, %rbx
	addq	$16, %rsi
	addq	$-2, %rcx
	jne	.LBB9_24
.LBB9_25:                               # %polly.merge.loopexit.us
                                        #   in Loop: Header=BB9_16 Depth=6
	movq	%r15, 48(%rsp)          # 8-byte Spill
	movq	%r8, %rbx
	movq	56(%rsp), %rcx          # 8-byte Reload
	movq	%rax, (%rbx,%rcx,8)
.LBB9_15:                               # %polly.merge.us
                                        #   in Loop: Header=BB9_16 Depth=6
	addq	$8, %r12
	movq	432(%rsp), %rdx         # 8-byte Reload
	addq	$8, %rdx
	movq	440(%rsp), %rdi         # 8-byte Reload
	addq	$8, %rdi
	movq	448(%rsp), %r15         # 8-byte Reload
	addq	$8, %r15
	addq	$8, %r13
	cmpq	224(%rsp), %r9          # 8-byte Folded Reload
	leaq	1(%r9), %r9
	movq	240(%rsp), %rcx         # 8-byte Reload
	jle	.LBB9_16
	jmp	.LBB9_30
	.p2align	4, 0x90
.LBB9_26:                               # %polly.loop_header27.preheader.split
                                        #   in Loop: Header=BB9_10 Depth=5
	cmpb	$0, 15(%rsp)            # 1-byte Folded Reload
	jne	.LBB9_30
# BB#27:                                # %polly.loop_header56.preheader.preheader
                                        #   in Loop: Header=BB9_10 Depth=5
	movq	24(%rsp), %rax          # 8-byte Reload
	leaq	(%rax,%rcx), %rax
	movq	%rax, 56(%rsp)          # 8-byte Spill
	movq	88(%rsp), %r12          # 8-byte Reload
	xorl	%r15d, %r15d
	.p2align	4, 0x90
.LBB9_28:                               # %polly.loop_header56.preheader
                                        #   Parent Loop BB9_4 Depth=1
                                        #     Parent Loop BB9_5 Depth=2
                                        #       Parent Loop BB9_7 Depth=3
                                        #         Parent Loop BB9_8 Depth=4
                                        #           Parent Loop BB9_10 Depth=5
                                        # =>          This Loop Header: Depth=6
                                        #               Child Loop BB9_35 Depth 7
	movq	232(%rsp), %rax         # 8-byte Reload
	leaq	(%r15,%rax), %rax
	leaq	(%rax,%rcx), %r8
	cmpq	$0, 208(%rsp)           # 8-byte Folded Reload
	movq	(%rbx,%r8,8), %r10
	movq	%rbx, %r13
	jne	.LBB9_32
# BB#29:                                #   in Loop: Header=BB9_28 Depth=6
                                        # implicit-def: %RAX
	xorl	%esi, %esi
	jmp	.LBB9_33
	.p2align	4, 0x90
.LBB9_32:                               # %polly.loop_header56.prol
                                        #   in Loop: Header=BB9_28 Depth=6
	addq	192(%rsp), %rax         # 8-byte Folded Reload
	movq	104(%rsp), %rcx         # 8-byte Reload
	movq	(%rcx,%rax,8), %rax
	.loc	1 380 12                # MatrixMult.c:380:12
	movq	32(%rsp), %rcx          # 8-byte Reload
	movq	56(%rsp), %rdx          # 8-byte Reload
	imulq	(%rcx,%rdx,8), %rax
	.loc	1 382 12                # MatrixMult.c:382:12
	addq	%r10, %rax
	movq	%rax, %r10
	movl	$1, %esi
.LBB9_33:                               # %polly.loop_header56.preheader.split
                                        #   in Loop: Header=BB9_28 Depth=6
	cmpq	$0, 216(%rsp)           # 8-byte Folded Reload
	movq	48(%rsp), %r9           # 8-byte Reload
	je	.LBB9_36
# BB#34:                                # %polly.loop_header56.preheader.split.split
                                        #   in Loop: Header=BB9_28 Depth=6
	movq	112(%rsp), %rdi         # 8-byte Reload
	subq	%rsi, %rdi
	movq	200(%rsp), %rax         # 8-byte Reload
	leaq	(%rax,%rsi), %rax
	movq	16(%rsp), %rdx          # 8-byte Reload
	imulq	%rdx, %rax
	leaq	(%r12,%rax,8), %rcx
	movq	40(%rsp), %rax          # 8-byte Reload
	leaq	(%rax,%rsi), %rax
	movq	32(%rsp), %rbx          # 8-byte Reload
	leaq	(%rbx,%rax,8), %rbx
	addq	24(%rsp), %rsi          # 8-byte Folded Reload
	imulq	%rdx, %rsi
	leaq	(%r12,%rsi,8), %rsi
	xorl	%ebp, %ebp
	movq	%r10, %rax
	.p2align	4, 0x90
.LBB9_35:                               # %polly.loop_header56
                                        #   Parent Loop BB9_4 Depth=1
                                        #     Parent Loop BB9_5 Depth=2
                                        #       Parent Loop BB9_7 Depth=3
                                        #         Parent Loop BB9_8 Depth=4
                                        #           Parent Loop BB9_10 Depth=5
                                        #             Parent Loop BB9_28 Depth=6
                                        # =>            This Inner Loop Header: Depth=7
	movq	(%rsi,%rbp,8), %rdx
	.loc	1 380 12                # MatrixMult.c:380:12
	imulq	(%rbx), %rdx
	.loc	1 382 12                # MatrixMult.c:382:12
	addq	%rax, %rdx
	movq	(%rcx,%rbp,8), %rax
	.loc	1 380 12                # MatrixMult.c:380:12
	imulq	8(%rbx), %rax
	.loc	1 382 12                # MatrixMult.c:382:12
	addq	%rdx, %rax
	addq	%r9, %rbp
	addq	$16, %rbx
	addq	$-2, %rdi
	jne	.LBB9_35
.LBB9_36:                               # %polly.merge.loopexit
                                        #   in Loop: Header=BB9_28 Depth=6
	movq	%r13, %rbx
	movq	%rax, (%rbx,%r8,8)
	addq	$8, %r12
	cmpq	224(%rsp), %r15         # 8-byte Folded Reload
	leaq	1(%r15), %r15
	movq	240(%rsp), %rcx         # 8-byte Reload
	jle	.LBB9_28
	.p2align	4, 0x90
.LBB9_30:                               # %polly.loop_exit29
                                        #   in Loop: Header=BB9_10 Depth=5
	movq	40(%rsp), %rax          # 8-byte Reload
	addq	16(%rsp), %rax          # 8-byte Folded Reload
	movq	%rax, 40(%rsp)          # 8-byte Spill
	movq	120(%rsp), %rax         # 8-byte Reload
	addq	384(%rsp), %rax         # 8-byte Folded Reload
	movq	%rax, 120(%rsp)         # 8-byte Spill
	movq	96(%rsp), %rax          # 8-byte Reload
	cmpq	392(%rsp), %rax         # 8-byte Folded Reload
	leaq	1(%rax), %rax
	movq	%rax, 96(%rsp)          # 8-byte Spill
	jle	.LBB9_10
.LBB9_31:                               # %polly.loop_exit20
                                        #   in Loop: Header=BB9_8 Depth=4
	movq	144(%rsp), %rax         # 8-byte Reload
	addq	%rax, 160(%rsp)         # 8-byte Folded Spill
	addq	$256, 152(%rsp)         # 8-byte Folded Spill
                                        # imm = 0x100
	addq	%rax, 168(%rsp)         # 8-byte Folded Spill
	addq	%rax, 176(%rsp)         # 8-byte Folded Spill
	addq	%rax, 184(%rsp)         # 8-byte Folded Spill
	movq	80(%rsp), %rax          # 8-byte Reload
	cmpq	352(%rsp), %rax         # 8-byte Folded Reload
	leaq	1(%rax), %rax
	movq	%rax, 80(%rsp)          # 8-byte Spill
	jne	.LBB9_8
# BB#13:                                # %polly.loop_exit12
                                        #   in Loop: Header=BB9_7 Depth=3
	movq	88(%rsp), %rbp          # 8-byte Reload
	addq	$256, %rbp              # imm = 0x100
	movq	320(%rsp), %r8          # 8-byte Reload
	addq	$256, %r8               # imm = 0x100
	movq	328(%rsp), %rsi         # 8-byte Reload
	addq	$256, %rsi              # imm = 0x100
	movq	336(%rsp), %rcx         # 8-byte Reload
	addq	$256, %rcx              # imm = 0x100
	movq	312(%rsp), %rax         # 8-byte Reload
	cmpq	128(%rsp), %rax         # 8-byte Folded Reload
	leaq	1(%rax), %rax
	jne	.LBB9_7
.LBB9_14:                               # %polly.loop_exit5
                                        #   in Loop: Header=BB9_5 Depth=2
	addq	%r14, 136(%rsp)         # 8-byte Folded Spill
	movq	72(%rsp), %rax          # 8-byte Reload
	addq	144(%rsp), %rax         # 8-byte Folded Reload
	movq	%rax, 72(%rsp)          # 8-byte Spill
	movq	64(%rsp), %rax          # 8-byte Reload
	cmpq	304(%rsp), %rax         # 8-byte Folded Reload
	leaq	1(%rax), %rax
	movq	%rax, 64(%rsp)          # 8-byte Spill
	jle	.LBB9_5
# BB#3:                                 # %polly.par.checkNext.loopexit
                                        #   in Loop: Header=BB9_4 Depth=1
	movq	%rbx, %rbp
	leaq	256(%rsp), %rdi
	leaq	248(%rsp), %rsi
	callq	GOMP_loop_runtime_next
	testb	%al, %al
	jne	.LBB9_4
.LBB9_2:                                # %polly.par.exit
	callq	GOMP_loop_end_nowait
	addq	$456, %rsp              # imm = 0x1C8
	popq	%rbx
	popq	%r12
	popq	%r13
	popq	%r14
	popq	%r15
	popq	%rbp
	retq
.Lfunc_end9:
	.size	mat_mult_polly_subfn, .Lfunc_end9-mat_mult_polly_subfn
	.cfi_endproc

	.type	.L.str.1,@object        # @.str.1
	.section	.rodata.str1.1,"aMS",@progbits,1
.L.str.1:
	.asciz	" data:"
	.size	.L.str.1, 7

	.type	.L.str.2,@object        # @.str.2
.L.str.2:
	.asciz	" width:"
	.size	.L.str.2, 8

	.type	.L.str.3,@object        # @.str.3
.L.str.3:
	.asciz	"%lld"
	.size	.L.str.3, 5

	.type	.L.str.4,@object        # @.str.4
.L.str.4:
	.asciz	" height:"
	.size	.L.str.4, 9

	.type	.L.str.6,@object        # @.str.6
.L.str.6:
	.asciz	"%d\n"
	.size	.L.str.6, 4

	.type	.L.str.7,@object        # @.str.7
.L.str.7:
	.asciz	"fail"
	.size	.L.str.7, 5

	.type	.L.str.8,@object        # @.str.8
.L.str.8:
	.asciz	"%lld\n"
	.size	.L.str.8, 6

	.file	3 "/usr/include/libio.h"
	.file	4 "/usr/include/x86_64-linux-gnu/bits/types.h"
	.file	5 "/home/sam/polly/llvm_build/bin/../lib/clang/3.9.0/include/stddef.h"
	.file	6 "/usr/include/stdio.h"
	.section	".note.GNU-stack","",@progbits