	.text
	.file	"llvm/MatrixMult.polly.enablevc.ll"
	.globl	copy_Matrix
	.p2align	4, 0x90
	.type	copy_Matrix,@function
copy_Matrix:                            # @copy_Matrix
.Lfunc_begin0:
	.file	1 "MatrixMult.c"
	.loc	1 2 0                   # MatrixMult.c:2:0
	.cfi_startproc
# BB#0:                                 # %entry
	pushq	%r14
.Ltmp0:
	.cfi_def_cfa_offset 16
	pushq	%rbx
.Ltmp1:
	.cfi_def_cfa_offset 24
	pushq	%rax
.Ltmp2:
	.cfi_def_cfa_offset 32
.Ltmp3:
	.cfi_offset %rbx, -24
.Ltmp4:
	.cfi_offset %r14, -16
	#DEBUG_VALUE: copy_Matrix:_Matrix <- %RDI
	movq	%rdi, %r14
.Ltmp5:
	#DEBUG_VALUE: copy_Matrix:_Matrix <- %R14
	.loc	1 3 23 prologue_end discriminator 1 # MatrixMult.c:3:23
	movl	$32, %edi
	callq	malloc
	movq	%rax, %rbx
.Ltmp6:
	#DEBUG_VALUE: copy_Matrix:new_Matrix <- %RBX
	.loc	1 4 2                   # MatrixMult.c:4:2
	movq	8(%r14), %rsi
	movq	%rsi, 8(%rbx)
	movq	(%r14), %rdi
	callq	copy
	movq	%rax, (%rbx)
	.loc	1 5 31                  # MatrixMult.c:5:31
	movups	16(%r14), %xmm0
	.loc	1 5 20 is_stmt 0        # MatrixMult.c:5:20
	movups	%xmm0, 16(%rbx)
	.loc	1 7 2 is_stmt 1         # MatrixMult.c:7:2
	movq	%rbx, %rax
	addq	$8, %rsp
	popq	%rbx
.Ltmp7:
	popq	%r14
.Ltmp8:
	retq
.Ltmp9:
.Lfunc_end0:
	.size	copy_Matrix, .Lfunc_end0-copy_Matrix
	.cfi_endproc

	.globl	copy_array_Matrix
	.p2align	4, 0x90
	.type	copy_array_Matrix,@function
copy_array_Matrix:                      # @copy_array_Matrix
.Lfunc_begin1:
	.loc	1 9 0                   # MatrixMult.c:9:0
	.cfi_startproc
# BB#0:                                 # %entry
	pushq	%rbp
.Ltmp10:
	.cfi_def_cfa_offset 16
	pushq	%r15
.Ltmp11:
	.cfi_def_cfa_offset 24
	pushq	%r14
.Ltmp12:
	.cfi_def_cfa_offset 32
	pushq	%r13
.Ltmp13:
	.cfi_def_cfa_offset 40
	pushq	%r12
.Ltmp14:
	.cfi_def_cfa_offset 48
	pushq	%rbx
.Ltmp15:
	.cfi_def_cfa_offset 56
	pushq	%rax
.Ltmp16:
	.cfi_def_cfa_offset 64
.Ltmp17:
	.cfi_offset %rbx, -56
.Ltmp18:
	.cfi_offset %r12, -48
.Ltmp19:
	.cfi_offset %r13, -40
.Ltmp20:
	.cfi_offset %r14, -32
.Ltmp21:
	.cfi_offset %r15, -24
.Ltmp22:
	.cfi_offset %rbp, -16
	#DEBUG_VALUE: copy_array_Matrix:_Matrix <- %RDI
	#DEBUG_VALUE: copy_array_Matrix:_Matrix_size <- %RSI
	movq	%rsi, %r14
.Ltmp23:
	#DEBUG_VALUE: copy_array_Matrix:_Matrix_size <- %R14
	movq	%rdi, %r12
.Ltmp24:
	#DEBUG_VALUE: copy_array_Matrix:_Matrix <- %R12
	.loc	1 10 43 prologue_end    # MatrixMult.c:10:43
	leaq	(,%r14,8), %rdi
	.loc	1 10 24 is_stmt 0 discriminator 1 # MatrixMult.c:10:24
	callq	malloc
	movq	%rax, %r15
.Ltmp25:
	#DEBUG_VALUE: i <- 0
	.loc	1 11 2 is_stmt 1 discriminator 1 # MatrixMult.c:11:2
	testq	%r14, %r14
	jle	.LBB1_3
.Ltmp26:
# BB#1:
	#DEBUG_VALUE: copy_array_Matrix:_Matrix <- %R12
	#DEBUG_VALUE: copy_array_Matrix:_Matrix_size <- %R14
	movq	%r15, %r13
.Ltmp27:
	.p2align	4, 0x90
.LBB1_2:                                # %for.body
                                        # =>This Inner Loop Header: Depth=1
	.loc	1 12 31                 # MatrixMult.c:12:31
	movq	(%r12), %rbp
.Ltmp28:
	#DEBUG_VALUE: copy_Matrix:_Matrix <- %RBP
	.loc	1 3 23 discriminator 1  # MatrixMult.c:3:23
	movl	$32, %edi
	callq	malloc
	movq	%rax, %rbx
	.loc	1 4 2                   # MatrixMult.c:4:2
	movq	8(%rbp), %rsi
	movq	%rsi, 8(%rbx)
	movq	(%rbp), %rdi
	callq	copy
	movq	%rax, (%rbx)
	.loc	1 5 31                  # MatrixMult.c:5:31
	movups	16(%rbp), %xmm0
	.loc	1 5 20 is_stmt 0        # MatrixMult.c:5:20
	movups	%xmm0, 16(%rbx)
.Ltmp29:
	.loc	1 12 17 is_stmt 1       # MatrixMult.c:12:17
	movq	%rbx, (%r13)
.Ltmp30:
	.loc	1 11 2 discriminator 1  # MatrixMult.c:11:2
	addq	$8, %r13
	addq	$8, %r12
	decq	%r14
	jne	.LBB1_2
.Ltmp31:
.LBB1_3:                                # %for.cond.cleanup
	.loc	1 14 2                  # MatrixMult.c:14:2
	movq	%r15, %rax
	addq	$8, %rsp
	popq	%rbx
	popq	%r12
	popq	%r13
	popq	%r14
	popq	%r15
	popq	%rbp
	retq
.Ltmp32:
.Lfunc_end1:
	.size	copy_array_Matrix, .Lfunc_end1-copy_array_Matrix
	.cfi_endproc
	.file	2 "./MatrixMult.h"

	.globl	free_Matrix
	.p2align	4, 0x90
	.type	free_Matrix,@function
free_Matrix:                            # @free_Matrix
.Lfunc_begin2:
	.loc	1 16 0                  # MatrixMult.c:16:0
	.cfi_startproc
# BB#0:                                 # %entry
	pushq	%rbx
.Ltmp33:
	.cfi_def_cfa_offset 16
.Ltmp34:
	.cfi_offset %rbx, -16
	#DEBUG_VALUE: free_Matrix:matrix <- %RDI
	movq	%rdi, %rbx
.Ltmp35:
	#DEBUG_VALUE: free_Matrix:matrix <- %RBX
	.loc	1 17 15 prologue_end    # MatrixMult.c:17:15
	movq	(%rbx), %rdi
	.loc	1 17 2 is_stmt 0        # MatrixMult.c:17:2
	callq	free
	.loc	1 18 2 is_stmt 1        # MatrixMult.c:18:2
	movq	%rbx, %rdi
	popq	%rbx
.Ltmp36:
	jmp	free                    # TAILCALL
.Ltmp37:
.Lfunc_end2:
	.size	free_Matrix, .Lfunc_end2-free_Matrix
	.cfi_endproc

	.globl	printf_Matrix
	.p2align	4, 0x90
	.type	printf_Matrix,@function
printf_Matrix:                          # @printf_Matrix
.Lfunc_begin3:
	.loc	1 20 0                  # MatrixMult.c:20:0
	.cfi_startproc
# BB#0:                                 # %entry
	pushq	%rbx
.Ltmp38:
	.cfi_def_cfa_offset 16
.Ltmp39:
	.cfi_offset %rbx, -16
	#DEBUG_VALUE: printf_Matrix:matrix <- %RDI
	movq	%rdi, %rbx
.Ltmp40:
	#DEBUG_VALUE: printf_Matrix:matrix <- %RBX
	.loc	1 21 2 prologue_end     # MatrixMult.c:21:2
	movl	$123, %edi
	callq	putchar
	.loc	1 22 2                  # MatrixMult.c:22:2
	movl	$.L.str.1, %edi
	xorl	%eax, %eax
	callq	printf
	.loc	1 23 2                  # MatrixMult.c:23:2
	movq	(%rbx), %rdi
	movq	8(%rbx), %rsi
	callq	printf1DArray
	.loc	1 24 2                  # MatrixMult.c:24:2
	movl	$.L.str.2, %edi
	xorl	%eax, %eax
	callq	printf
	.loc	1 25 25                 # MatrixMult.c:25:25
	movq	16(%rbx), %rsi
	.loc	1 25 2 is_stmt 0        # MatrixMult.c:25:2
	movl	$.L.str.3, %edi
	xorl	%eax, %eax
	callq	printf
	.loc	1 26 2 is_stmt 1        # MatrixMult.c:26:2
	movl	$.L.str.4, %edi
	xorl	%eax, %eax
	callq	printf
	.loc	1 27 25                 # MatrixMult.c:27:25
	movq	24(%rbx), %rsi
	.loc	1 27 2 is_stmt 0        # MatrixMult.c:27:2
	movl	$.L.str.3, %edi
	xorl	%eax, %eax
	callq	printf
	.loc	1 28 2 is_stmt 1        # MatrixMult.c:28:2
	movl	$125, %edi
	popq	%rbx
.Ltmp41:
	jmp	putchar                 # TAILCALL
.Ltmp42:
.Lfunc_end3:
	.size	printf_Matrix, .Lfunc_end3-printf_Matrix
	.cfi_endproc

	.globl	matrix
	.p2align	4, 0x90
	.type	matrix,@function
matrix:                                 # @matrix
.Lfunc_begin4:
	.loc	1 30 0                  # MatrixMult.c:30:0
	.cfi_startproc
# BB#0:                                 # %entry
	pushq	%r15
.Ltmp43:
	.cfi_def_cfa_offset 16
	pushq	%r14
.Ltmp44:
	.cfi_def_cfa_offset 24
	pushq	%r13
.Ltmp45:
	.cfi_def_cfa_offset 32
	pushq	%r12
.Ltmp46:
	.cfi_def_cfa_offset 40
	pushq	%rbx
.Ltmp47:
	.cfi_def_cfa_offset 48
.Ltmp48:
	.cfi_offset %rbx, -48
.Ltmp49:
	.cfi_offset %r12, -40
.Ltmp50:
	.cfi_offset %r13, -32
.Ltmp51:
	.cfi_offset %r14, -24
.Ltmp52:
	.cfi_offset %r15, -16
	#DEBUG_VALUE: matrix:width <- %RDI
	#DEBUG_VALUE: matrix:height <- %RSI
	#DEBUG_VALUE: matrix:data <- %RDX
	#DEBUG_VALUE: matrix:data_size <- %RCX
	movq	%rcx, %r13
.Ltmp53:
	#DEBUG_VALUE: matrix:data_size <- %R13
	movq	%rdx, %r14
.Ltmp54:
	#DEBUG_VALUE: matrix:data <- %R14
	movq	%rsi, %r15
.Ltmp55:
	#DEBUG_VALUE: matrix:height <- %R15
	movq	%rdi, %r12
.Ltmp56:
	#DEBUG_VALUE: matrix:width <- %R12
	.loc	1 34 7 prologue_end     # MatrixMult.c:34:7
	movl	$32, %edi
	callq	malloc
	movq	%rax, %rbx
.Ltmp57:
	#DEBUG_VALUE: matrix:_4 <- %RBX
	.loc	1 35 2                  # MatrixMult.c:35:2
	movq	%r13, 8(%rbx)
	movq	%r14, %rdi
.Ltmp58:
	#DEBUG_VALUE: matrix:data <- %RDI
	movq	%r13, %rsi
	callq	copy
.Ltmp59:
	movq	%rax, (%rbx)
	.loc	1 36 13                 # MatrixMult.c:36:13
	movq	%r15, 24(%rbx)
	.loc	1 37 12                 # MatrixMult.c:37:12
	movq	%r12, 16(%rbx)
	.loc	1 39 2                  # MatrixMult.c:39:2
	movq	%rbx, %rax
	popq	%rbx
.Ltmp60:
	popq	%r12
.Ltmp61:
	popq	%r13
.Ltmp62:
	popq	%r14
	popq	%r15
.Ltmp63:
	retq
.Ltmp64:
.Lfunc_end4:
	.size	matrix, .Lfunc_end4-matrix
	.cfi_endproc

	.globl	init
	.p2align	4, 0x90
	.type	init,@function
init:                                   # @init
.Lfunc_begin5:
	.loc	1 43 0                  # MatrixMult.c:43:0
	.cfi_startproc
# BB#0:                                 # %entry
	pushq	%rbp
.Ltmp65:
	.cfi_def_cfa_offset 16
	pushq	%r15
.Ltmp66:
	.cfi_def_cfa_offset 24
	pushq	%r14
.Ltmp67:
	.cfi_def_cfa_offset 32
	pushq	%r13
.Ltmp68:
	.cfi_def_cfa_offset 40
	pushq	%r12
.Ltmp69:
	.cfi_def_cfa_offset 48
	pushq	%rbx
.Ltmp70:
	.cfi_def_cfa_offset 56
	subq	$104, %rsp
.Ltmp71:
	.cfi_def_cfa_offset 160
.Ltmp72:
	.cfi_offset %rbx, -56
.Ltmp73:
	.cfi_offset %r12, -48
.Ltmp74:
	.cfi_offset %r13, -40
.Ltmp75:
	.cfi_offset %r14, -32
.Ltmp76:
	.cfi_offset %r15, -24
.Ltmp77:
	.cfi_offset %rbp, -16
	#DEBUG_VALUE: init:width <- %RDI
	#DEBUG_VALUE: init:height <- %RSI
	movq	%rsi, %rbx
.Ltmp78:
	#DEBUG_VALUE: init:_20 <- 0
	#DEBUG_VALUE: init:_19 <- 0
	#DEBUG_VALUE: init:_18 <- 0
	#DEBUG_VALUE: init:_17 <- 0
	#DEBUG_VALUE: init:_16 <- 0
	#DEBUG_VALUE: init:_15 <- 0
	#DEBUG_VALUE: init:_14 <- 0
	#DEBUG_VALUE: init:_13 <- 0
	#DEBUG_VALUE: init:_12 <- 0
	#DEBUG_VALUE: init:_11 <- 0
	#DEBUG_VALUE: init:_10 <- 0
	#DEBUG_VALUE: init:_9 <- 0
	#DEBUG_VALUE: init:_8_size <- 0
	#DEBUG_VALUE: init:_7 <- 0
	#DEBUG_VALUE: init:_6 <- 0
	#DEBUG_VALUE: init:j <- 0
	#DEBUG_VALUE: init:i <- 0
	#DEBUG_VALUE: init:data_size <- 0
	#DEBUG_VALUE: init:height <- %RBX
	movq	%rdi, 24(%rsp)          # 8-byte Spill
.Ltmp79:
	#DEBUG_VALUE: init:width <- [%RSP+24]
	.loc	1 67 10 prologue_end    # MatrixMult.c:67:10
	imulq	%rdi, %rsi
.Ltmp80:
	#DEBUG_VALUE: matrix:data_size <- %RSI
	#DEBUG_VALUE: init:_8_size <- %RSI
	#DEBUG_VALUE: init:_7 <- %RSI
	#DEBUG_VALUE: init:data_size <- %RSI
	.loc	1 69 2                  # MatrixMult.c:69:2
	xorl	%edi, %edi
	movq	%rsi, 8(%rsp)           # 8-byte Spill
.Ltmp81:
	#DEBUG_VALUE: matrix:data_size <- [%RSP+8]
	#DEBUG_VALUE: init:_8_size <- [%RSP+8]
	#DEBUG_VALUE: init:_7 <- [%RSP+8]
	#DEBUG_VALUE: init:data_size <- [%RSP+8]
	callq	gen1DArray
.Ltmp82:
	movq	%rax, 16(%rsp)          # 8-byte Spill
.Ltmp83:
	#DEBUG_VALUE: init:data <- [%RSP+16]
	#DEBUG_VALUE: init:_8 <- [%RSP+16]
	#DEBUG_VALUE: matrix:data <- [%RSP+16]
	movq	%rbx, 32(%rsp)          # 8-byte Spill
.Ltmp84:
	#DEBUG_VALUE: init:height <- [%RSP+32]
	.loc	1 79 7                  # MatrixMult.c:79:7
	testq	%rbx, %rbx
	jle	.LBB5_15
.Ltmp85:
# BB#1:                                 # %polly.start
	#DEBUG_VALUE: init:height <- [%RSP+32]
	#DEBUG_VALUE: matrix:data <- [%RSP+16]
	#DEBUG_VALUE: init:_8 <- [%RSP+16]
	#DEBUG_VALUE: init:data <- [%RSP+16]
	movq	32(%rsp), %rax          # 8-byte Reload
	decq	%rax
	sarq	$5, %rax
	movq	%rax, 80(%rsp)          # 8-byte Spill
	js	.LBB5_15
.Ltmp86:
# BB#2:                                 # %polly.loop_header.preheader
	#DEBUG_VALUE: init:data <- [%RSP+16]
	#DEBUG_VALUE: init:_8 <- [%RSP+16]
	#DEBUG_VALUE: matrix:data <- [%RSP+16]
	#DEBUG_VALUE: init:height <- [%RSP+32]
	movq	24(%rsp), %rcx          # 8-byte Reload
	leaq	-1(%rcx), %rax
	sarq	$5, %rax
	movq	%rax, 64(%rsp)          # 8-byte Spill
	movq	%rcx, %rax
	shrq	$2, %rax
	decq	%rax
	movq	%rax, 88(%rsp)          # 8-byte Spill
	movl	%ecx, %r14d
	andl	$3, %r14d
	movabsq	$2305843009213693948, %rax # imm = 0x1FFFFFFFFFFFFFFC
	andq	%rcx, %rax
	movq	16(%rsp), %rdx          # 8-byte Reload
	leaq	(%rdx,%rax,8), %rax
	movq	%rax, 48(%rsp)          # 8-byte Spill
	movq	%rcx, %rax
	shlq	$8, %rax
	movq	%rax, 72(%rsp)          # 8-byte Spill
	leaq	(,%rcx,8), %rax
	addq	$16, %rdx
	movq	%rdx, 56(%rsp)          # 8-byte Spill
	xorl	%ecx, %ecx
	movq	%rcx, 40(%rsp)          # 8-byte Spill
.Ltmp87:
	.p2align	4, 0x90
.LBB5_3:                                # %polly.loop_header
                                        # =>This Loop Header: Depth=1
                                        #     Child Loop BB5_5 Depth 2
                                        #       Child Loop BB5_18 Depth 3
                                        #         Child Loop BB5_21 Depth 4
                                        #       Child Loop BB5_8 Depth 3
                                        #         Child Loop BB5_9 Depth 4
                                        #         Child Loop BB5_11 Depth 4
	cmpq	$0, 64(%rsp)            # 8-byte Folded Reload
	js	.LBB5_14
# BB#4:                                 # %polly.loop_header63.preheader
                                        #   in Loop: Header=BB5_3 Depth=1
	movq	40(%rsp), %r11          # 8-byte Reload
	shlq	$5, %r11
	movq	32(%rsp), %rdx          # 8-byte Reload
	subq	%r11, %rdx
	decq	%rdx
	cmpq	$31, %rdx
	movl	$31, %ecx
	cmovgq	%rcx, %rdx
	movq	%rdx, 96(%rsp)          # 8-byte Spill
	leaq	-1(%rdx), %r13
	movq	56(%rsp), %r15          # 8-byte Reload
	xorl	%r8d, %r8d
	.p2align	4, 0x90
.LBB5_5:                                # %polly.loop_header63
                                        #   Parent Loop BB5_3 Depth=1
                                        # =>  This Loop Header: Depth=2
                                        #       Child Loop BB5_18 Depth 3
                                        #         Child Loop BB5_21 Depth 4
                                        #       Child Loop BB5_8 Depth 3
                                        #         Child Loop BB5_9 Depth 4
                                        #         Child Loop BB5_11 Depth 4
	cmpq	$0, 96(%rsp)            # 8-byte Folded Reload
	js	.LBB5_13
# BB#6:                                 # %polly.loop_header72.preheader
                                        #   in Loop: Header=BB5_5 Depth=2
	leaq	(,%r8,8), %rcx
	movq	88(%rsp), %rdx          # 8-byte Reload
	subq	%rcx, %rdx
	cmpq	$7, %rdx
	movl	$7, %ecx
	cmovgq	%rcx, %rdx
	movq	%r8, %rcx
	shlq	$5, %rcx
	orq	$31, %rcx
	testq	%rdx, %rdx
	js	.LBB5_16
# BB#7:                                 # %polly.loop_header72.us.preheader
                                        #   in Loop: Header=BB5_5 Depth=2
	decq	%rdx
	cmpq	24(%rsp), %rcx          # 8-byte Folded Reload
	setl	%cl
	testq	%r14, %r14
	sete	%bpl
	orb	%cl, %bpl
	movq	48(%rsp), %r10          # 8-byte Reload
	movq	%r15, %rcx
	xorl	%ebx, %ebx
	.p2align	4, 0x90
.LBB5_8:                                # %polly.loop_header72.us
                                        #   Parent Loop BB5_3 Depth=1
                                        #     Parent Loop BB5_5 Depth=2
                                        # =>    This Loop Header: Depth=3
                                        #         Child Loop BB5_9 Depth 4
                                        #         Child Loop BB5_11 Depth 4
	leaq	(%rbx,%r11), %r9
.Ltmp88:
	.loc	1 95 11                 # MatrixMult.c:95:11
	movd	%r9, %xmm0
	pshufd	$68, %xmm0, %xmm0       # xmm0 = xmm0[0,1,0,1]
	movq	$-1, %rdi
	movq	%rcx, %r12
	.p2align	4, 0x90
.LBB5_9:                                # %polly.loop_header81.us
                                        #   Parent Loop BB5_3 Depth=1
                                        #     Parent Loop BB5_5 Depth=2
                                        #       Parent Loop BB5_8 Depth=3
                                        # =>      This Inner Loop Header: Depth=4
	movdqu	-16(%r12), %xmm1
	paddq	%xmm0, %xmm1
	movdqu	%xmm1, -16(%r12)
	movdqu	(%r12), %xmm1
	paddq	%xmm0, %xmm1
	movdqu	%xmm1, (%r12)
	incq	%rdi
	addq	$32, %r12
	cmpq	%rdx, %rdi
	jle	.LBB5_9
.Ltmp89:
# BB#10:                                # %polly.cond.loopexit.us
                                        #   in Loop: Header=BB5_8 Depth=3
	testb	%bpl, %bpl
	movq	%r10, %rdi
	movq	%r14, %rsi
	jne	.LBB5_12
	.p2align	4, 0x90
.LBB5_11:                               # %polly.loop_header96.us
                                        #   Parent Loop BB5_3 Depth=1
                                        #     Parent Loop BB5_5 Depth=2
                                        #       Parent Loop BB5_8 Depth=3
                                        # =>      This Inner Loop Header: Depth=4
	addq	%r9, (%rdi)
	addq	$8, %rdi
	decq	%rsi
	jne	.LBB5_11
.LBB5_12:                               # %polly.merge.us
                                        #   in Loop: Header=BB5_8 Depth=3
	addq	%rax, %rcx
	addq	%rax, %r10
	cmpq	%r13, %rbx
	leaq	1(%rbx), %rbx
	jle	.LBB5_8
	jmp	.LBB5_13
	.p2align	4, 0x90
.LBB5_16:                               # %polly.loop_header72.preheader.split
                                        #   in Loop: Header=BB5_5 Depth=2
	cmpq	24(%rsp), %rcx          # 8-byte Folded Reload
	jl	.LBB5_13
# BB#17:                                # %polly.loop_header72.preheader184
                                        #   in Loop: Header=BB5_5 Depth=2
	movq	48(%rsp), %rdx          # 8-byte Reload
	xorl	%ebp, %ebp
	.p2align	4, 0x90
.LBB5_18:                               # %polly.loop_header72
                                        #   Parent Loop BB5_3 Depth=1
                                        #     Parent Loop BB5_5 Depth=2
                                        # =>    This Loop Header: Depth=3
                                        #         Child Loop BB5_21 Depth 4
	testq	%r14, %r14
	je	.LBB5_19
# BB#20:                                # %polly.loop_header96.preheader
                                        #   in Loop: Header=BB5_18 Depth=3
	leaq	(%rbp,%r11), %rcx
	movq	%rdx, %rsi
	movq	%r14, %rdi
	.p2align	4, 0x90
.LBB5_21:                               # %polly.loop_header96
                                        #   Parent Loop BB5_3 Depth=1
                                        #     Parent Loop BB5_5 Depth=2
                                        #       Parent Loop BB5_18 Depth=3
                                        # =>      This Inner Loop Header: Depth=4
	addq	%rcx, (%rsi)
	addq	$8, %rsi
	decq	%rdi
	jne	.LBB5_21
.LBB5_19:                               # %polly.merge
                                        #   in Loop: Header=BB5_18 Depth=3
	addq	%rax, %rdx
	cmpq	%r13, %rbp
	leaq	1(%rbp), %rbp
	jle	.LBB5_18
	.p2align	4, 0x90
.LBB5_13:                               # %polly.loop_exit74
                                        #   in Loop: Header=BB5_5 Depth=2
	addq	$256, %r15              # imm = 0x100
	cmpq	64(%rsp), %r8           # 8-byte Folded Reload
	leaq	1(%r8), %r8
	jne	.LBB5_5
.LBB5_14:                               # %polly.loop_exit65
                                        #   in Loop: Header=BB5_3 Depth=1
	movq	72(%rsp), %rcx          # 8-byte Reload
	addq	%rcx, 48(%rsp)          # 8-byte Folded Spill
	addq	%rcx, 56(%rsp)          # 8-byte Folded Spill
	movq	40(%rsp), %rcx          # 8-byte Reload
	cmpq	80(%rsp), %rcx          # 8-byte Folded Reload
	leaq	1(%rcx), %rcx
	movq	%rcx, 40(%rsp)          # 8-byte Spill
	jne	.LBB5_3
.LBB5_15:                               # %blklab2
.Ltmp90:
	.loc	1 34 7                  # MatrixMult.c:34:7
	movl	$32, %edi
	callq	malloc
	movq	%rax, %r13
.Ltmp91:
	#DEBUG_VALUE: matrix:_4 <- %R13
	#DEBUG_VALUE: init:_21 <- %R13
	movq	8(%rsp), %rsi           # 8-byte Reload
	.loc	1 35 2                  # MatrixMult.c:35:2
	movq	%rsi, 8(%r13)
	movq	16(%rsp), %rdi          # 8-byte Reload
	callq	copy
	movq	%rax, (%r13)
	.loc	1 36 13                 # MatrixMult.c:36:13
	movq	32(%rsp), %rax          # 8-byte Reload
	movq	%rax, 24(%r13)
	.loc	1 37 12                 # MatrixMult.c:37:12
	movq	24(%rsp), %rax          # 8-byte Reload
	movq	%rax, 16(%r13)
.Ltmp92:
	.loc	1 127 2                 # MatrixMult.c:127:2
	movq	%r13, %rax
	addq	$104, %rsp
	popq	%rbx
	popq	%r12
	popq	%r13
.Ltmp93:
	popq	%r14
	popq	%r15
	popq	%rbp
	retq
.Ltmp94:
.Lfunc_end5:
	.size	init, .Lfunc_end5-init
	.cfi_endproc

	.globl	print_mat
	.p2align	4, 0x90
	.type	print_mat,@function
print_mat:                              # @print_mat
.Lfunc_begin6:
	.loc	1 131 0                 # MatrixMult.c:131:0
	.cfi_startproc
# BB#0:                                 # %entry
	pushq	%rbp
.Ltmp95:
	.cfi_def_cfa_offset 16
	pushq	%r15
.Ltmp96:
	.cfi_def_cfa_offset 24
	pushq	%r14
.Ltmp97:
	.cfi_def_cfa_offset 32
	pushq	%r13
.Ltmp98:
	.cfi_def_cfa_offset 40
	pushq	%r12
.Ltmp99:
	.cfi_def_cfa_offset 48
	pushq	%rbx
.Ltmp100:
	.cfi_def_cfa_offset 56
	subq	$24, %rsp
.Ltmp101:
	.cfi_def_cfa_offset 80
.Ltmp102:
	.cfi_offset %rbx, -56
.Ltmp103:
	.cfi_offset %r12, -48
.Ltmp104:
	.cfi_offset %r13, -40
.Ltmp105:
	.cfi_offset %r14, -32
.Ltmp106:
	.cfi_offset %r15, -24
.Ltmp107:
	.cfi_offset %rbp, -16
	#DEBUG_VALUE: print_mat:sys <- %RDI
	#DEBUG_VALUE: print_mat:a <- %RSI
	movq	%rsi, %rbx
.Ltmp108:
	#DEBUG_VALUE: print_mat:_25_size <- 0
	#DEBUG_VALUE: print_mat:_22 <- 0
	#DEBUG_VALUE: print_mat:_21 <- 0
	#DEBUG_VALUE: print_mat:_20 <- 0
	#DEBUG_VALUE: print_mat:_19 <- 0
	#DEBUG_VALUE: print_mat:_18_size <- 0
	#DEBUG_VALUE: print_mat:_15 <- 0
	#DEBUG_VALUE: print_mat:_14 <- 0
	#DEBUG_VALUE: print_mat:_13 <- 0
	#DEBUG_VALUE: print_mat:_12_size <- 0
	#DEBUG_VALUE: print_mat:_9 <- 0
	#DEBUG_VALUE: print_mat:_8 <- 0
	#DEBUG_VALUE: print_mat:_7 <- 0
	#DEBUG_VALUE: print_mat:_6 <- 0
	#DEBUG_VALUE: print_mat:j <- 0
	#DEBUG_VALUE: print_mat:height <- 0
	#DEBUG_VALUE: print_mat:width <- 0
	#DEBUG_VALUE: print_mat:i <- 0
	#DEBUG_VALUE: print_mat:a <- %RBX
	.loc	1 163 10 prologue_end   # MatrixMult.c:163:10
	movq	24(%rbx), %r14
.Ltmp109:
	#DEBUG_VALUE: print_mat:_8 <- %R14
	#DEBUG_VALUE: print_mat:height <- %R14
	.loc	1 169 6                 # MatrixMult.c:169:6
	testq	%r14, %r14
	jle	.LBB6_7
.Ltmp110:
# BB#1:                                 # %while.cond3.preheader.preheader
	#DEBUG_VALUE: print_mat:height <- %R14
	#DEBUG_VALUE: print_mat:_8 <- %R14
	#DEBUG_VALUE: print_mat:a <- %RBX
	#DEBUG_VALUE: print_mat:sys <- %RDI
	.loc	1 159 10                # MatrixMult.c:159:10
	movq	16(%rbx), %r15
.Ltmp111:
	#DEBUG_VALUE: print_mat:_7 <- %R15
	#DEBUG_VALUE: print_mat:width <- %R15
	.loc	1 177 8                 # MatrixMult.c:177:8
	testq	%r15, %r15
	jle	.LBB6_6
.Ltmp112:
# BB#2:                                 # %while.cond3.preheader.us.preheader
	#DEBUG_VALUE: print_mat:sys <- %RDI
	#DEBUG_VALUE: print_mat:a <- %RBX
	#DEBUG_VALUE: print_mat:_8 <- %R14
	#DEBUG_VALUE: print_mat:height <- %R14
	#DEBUG_VALUE: print_mat:width <- %R15
	#DEBUG_VALUE: print_mat:_7 <- %R15
	.loc	1 183 9                 # MatrixMult.c:183:9
	leaq	(,%r15,8), %rcx
	movq	%rcx, 8(%rsp)           # 8-byte Spill
	xorl	%r12d, %r12d
	xorl	%ebp, %ebp
	movq	%r15, 16(%rsp)          # 8-byte Spill
.Ltmp113:
	.p2align	4, 0x90
.LBB6_3:                                # %while.cond3.preheader.us
                                        # =>This Loop Header: Depth=1
                                        #     Child Loop BB6_4 Depth 2
	movq	%r12, %r13
	.p2align	4, 0x90
.LBB6_4:                                # %if.end7.us
                                        #   Parent Loop BB6_3 Depth=1
                                        # =>  This Inner Loop Header: Depth=2
	.loc	1 181 4                 # MatrixMult.c:181:4
	movq	(%rbx), %rdi
	movq	8(%rbx), %rsi
	callq	copy
.Ltmp114:
	#DEBUG_VALUE: print_mat:_12 <- %RAX
	.loc	1 187 8                 # MatrixMult.c:187:8
	movq	(%rax,%r13), %rsi
.Ltmp115:
	#DEBUG_VALUE: print_mat:_15 <- %RSI
	.loc	1 189 4                 # MatrixMult.c:189:4
	movl	$.L.str.3, %edi
	xorl	%eax, %eax
.Ltmp116:
	callq	printf
.Ltmp117:
	#DEBUG_VALUE: print_mat:_18_size <- 1
	.loc	1 193 4                 # MatrixMult.c:193:4
	movl	$8, %edi
	callq	malloc
.Ltmp118:
	#DEBUG_VALUE: print_mat:_18 <- %RAX
	.loc	1 194 11                # MatrixMult.c:194:11
	movq	$32, (%rax)
	.loc	1 196 4                 # MatrixMult.c:196:4
	movl	$1, %esi
	movq	%rax, %rdi
	callq	printf_s
.Ltmp119:
	#DEBUG_VALUE: print_mat:_19 <- 1
	.loc	1 177 7                 # MatrixMult.c:177:7
	addq	$8, %r13
	decq	%r15
	jne	.LBB6_4
.Ltmp120:
# BB#5:                                 # %blklab8.loopexit.us
                                        #   in Loop: Header=BB6_3 Depth=1
	#DEBUG_VALUE: print_mat:_21 <- 1
	.loc	1 211 8                 # MatrixMult.c:211:8
	incq	%rbp
	#DEBUG_VALUE: print_mat:_25_size <- 0
.Ltmp121:
	#DEBUG_VALUE: print_mat:_22 <- %RBP
	#DEBUG_VALUE: print_mat:i <- %RBP
	.loc	1 217 3                 # MatrixMult.c:217:3
	xorl	%edi, %edi
	callq	malloc
.Ltmp122:
	#DEBUG_VALUE: print_mat:_25 <- %RAX
	.loc	1 219 3                 # MatrixMult.c:219:3
	xorl	%esi, %esi
	movq	%rax, %rdi
	callq	println_s
.Ltmp123:
	.loc	1 169 6                 # MatrixMult.c:169:6
	addq	8(%rsp), %r12           # 8-byte Folded Reload
	cmpq	%r14, %rbp
	movq	16(%rsp), %r15          # 8-byte Reload
	jne	.LBB6_3
	jmp	.LBB6_7
.Ltmp124:
	.p2align	4, 0x90
.LBB6_6:                                # %while.cond3.preheader
                                        # =>This Inner Loop Header: Depth=1
	#DEBUG_VALUE: print_mat:_21 <- 1
	#DEBUG_VALUE: print_mat:_25_size <- 0
	.loc	1 217 3                 # MatrixMult.c:217:3
	xorl	%edi, %edi
	callq	malloc
.Ltmp125:
	#DEBUG_VALUE: print_mat:_25 <- %RAX
	.loc	1 219 3                 # MatrixMult.c:219:3
	xorl	%esi, %esi
	movq	%rax, %rdi
	callq	println_s
.Ltmp126:
	.loc	1 169 6                 # MatrixMult.c:169:6
	decq	%r14
	jne	.LBB6_6
.Ltmp127:
.LBB6_7:                                # %blklab6
	.loc	1 227 1                 # MatrixMult.c:227:1
	addq	$24, %rsp
	popq	%rbx
	popq	%r12
	popq	%r13
	popq	%r14
	popq	%r15
	popq	%rbp
	retq
.Ltmp128:
.Lfunc_end6:
	.size	print_mat, .Lfunc_end6-print_mat
	.cfi_endproc

	.globl	mat_mult
	.p2align	4, 0x90
	.type	mat_mult,@function
mat_mult:                               # @mat_mult
.Lfunc_begin7:
	.loc	1 229 0                 # MatrixMult.c:229:0
	.cfi_startproc
# BB#0:                                 # %entry
	pushq	%rbp
.Ltmp129:
	.cfi_def_cfa_offset 16
	pushq	%r15
.Ltmp130:
	.cfi_def_cfa_offset 24
	pushq	%r14
.Ltmp131:
	.cfi_def_cfa_offset 32
	pushq	%r13
.Ltmp132:
	.cfi_def_cfa_offset 40
	pushq	%r12
.Ltmp133:
	.cfi_def_cfa_offset 48
	pushq	%rbx
.Ltmp134:
	.cfi_def_cfa_offset 56
	subq	$440, %rsp              # imm = 0x1B8
.Ltmp135:
	.cfi_def_cfa_offset 496
.Ltmp136:
	.cfi_offset %rbx, -56
.Ltmp137:
	.cfi_offset %r12, -48
.Ltmp138:
	.cfi_offset %r13, -40
.Ltmp139:
	.cfi_offset %r14, -32
.Ltmp140:
	.cfi_offset %r15, -24
.Ltmp141:
	.cfi_offset %rbp, -16
	#DEBUG_VALUE: mat_mult:a <- %RDI
	#DEBUG_VALUE: mat_mult:b <- %RSI
	movq	%rsi, %rbp
.Ltmp142:
	#DEBUG_VALUE: mat_mult:b <- %RBP
	movq	%rdi, %r15
.Ltmp143:
	#DEBUG_VALUE: mat_mult:_39 <- 0
	#DEBUG_VALUE: mat_mult:_38 <- 0
	#DEBUG_VALUE: mat_mult:_37 <- 0
	#DEBUG_VALUE: mat_mult:_36 <- 0
	#DEBUG_VALUE: mat_mult:_35 <- 0
	#DEBUG_VALUE: mat_mult:_34 <- 0
	#DEBUG_VALUE: mat_mult:_33 <- 0
	#DEBUG_VALUE: mat_mult:_32 <- 0
	#DEBUG_VALUE: mat_mult:_31 <- 0
	#DEBUG_VALUE: mat_mult:_30 <- 0
	#DEBUG_VALUE: mat_mult:_29 <- 0
	#DEBUG_VALUE: mat_mult:_28 <- 0
	#DEBUG_VALUE: mat_mult:_27 <- 0
	#DEBUG_VALUE: mat_mult:_26 <- 0
	#DEBUG_VALUE: mat_mult:_25 <- 0
	#DEBUG_VALUE: mat_mult:_24 <- 0
	#DEBUG_VALUE: mat_mult:_23 <- 0
	#DEBUG_VALUE: mat_mult:_22 <- 0
	#DEBUG_VALUE: mat_mult:_21 <- 0
	#DEBUG_VALUE: mat_mult:_20 <- 0
	#DEBUG_VALUE: mat_mult:_19 <- 0
	#DEBUG_VALUE: mat_mult:_18 <- 0
	#DEBUG_VALUE: mat_mult:_17_size <- 0
	#DEBUG_VALUE: mat_mult:_16_size <- 0
	#DEBUG_VALUE: mat_mult:_15_size <- 0
	#DEBUG_VALUE: mat_mult:_14 <- 0
	#DEBUG_VALUE: mat_mult:_13 <- 0
	#DEBUG_VALUE: mat_mult:_12 <- 0
	#DEBUG_VALUE: mat_mult:_11 <- 0
	#DEBUG_VALUE: mat_mult:k <- 0
	#DEBUG_VALUE: mat_mult:j <- 0
	#DEBUG_VALUE: mat_mult:i <- 0
	#DEBUG_VALUE: mat_mult:b_data_size <- 0
	#DEBUG_VALUE: mat_mult:a_data_size <- 0
	#DEBUG_VALUE: mat_mult:data_size <- 0
	#DEBUG_VALUE: mat_mult:height <- 0
	#DEBUG_VALUE: mat_mult:width <- 0
	#DEBUG_VALUE: mat_mult:a <- %R15
	.loc	1 270 11 prologue_end   # MatrixMult.c:270:11
	movq	16(%rbp), %r14
.Ltmp144:
	#DEBUG_VALUE: matrix:width <- %R14
	#DEBUG_VALUE: mat_mult:_11 <- %R14
	#DEBUG_VALUE: mat_mult:width <- %R14
	.loc	1 274 11                # MatrixMult.c:274:11
	movq	24(%r15), %rbx
.Ltmp145:
	#DEBUG_VALUE: matrix:height <- %RBX
	#DEBUG_VALUE: mat_mult:_12 <- %RBX
	#DEBUG_VALUE: mat_mult:height <- %RBX
	.loc	1 280 11                # MatrixMult.c:280:11
	movq	%rbx, %rsi
	imulq	%r14, %rsi
.Ltmp146:
	#DEBUG_VALUE: matrix:data_size <- %RSI
	#DEBUG_VALUE: mat_mult:_15_size <- %RSI
	#DEBUG_VALUE: mat_mult:_14 <- %RSI
	#DEBUG_VALUE: mat_mult:data_size <- %RSI
	.loc	1 282 2                 # MatrixMult.c:282:2
	xorl	%edi, %edi
	movq	%rsi, 48(%rsp)          # 8-byte Spill
.Ltmp147:
	#DEBUG_VALUE: matrix:data_size <- [%RSP+48]
	#DEBUG_VALUE: mat_mult:_15_size <- [%RSP+48]
	#DEBUG_VALUE: mat_mult:_14 <- [%RSP+48]
	#DEBUG_VALUE: mat_mult:data_size <- [%RSP+48]
	callq	gen1DArray
.Ltmp148:
	movq	%rax, 8(%rsp)           # 8-byte Spill
.Ltmp149:
	#DEBUG_VALUE: mat_mult:data <- [%RSP+8]
	#DEBUG_VALUE: mat_mult:_15 <- [%RSP+8]
	#DEBUG_VALUE: matrix:data <- [%RSP+8]
	.loc	1 286 2                 # MatrixMult.c:286:2
	movq	(%r15), %rdi
	movq	8(%r15), %rsi
	callq	copy
.Ltmp150:
	movq	%rax, 24(%rsp)          # 8-byte Spill
.Ltmp151:
	#DEBUG_VALUE: mat_mult:a_data <- [%RSP+24]
	#DEBUG_VALUE: mat_mult:_16 <- [%RSP+24]
	.loc	1 290 2                 # MatrixMult.c:290:2
	movq	(%rbp), %rdi
	movq	8(%rbp), %rsi
	callq	copy
.Ltmp152:
	movq	%r14, %rdx
.Ltmp153:
	#DEBUG_VALUE: matrix:width <- %RDX
	#DEBUG_VALUE: mat_mult:_11 <- %RDX
	#DEBUG_VALUE: mat_mult:width <- %RDX
	movq	%rax, 16(%rsp)          # 8-byte Spill
.Ltmp154:
	#DEBUG_VALUE: mat_mult:b_data <- [%RSP+16]
	#DEBUG_VALUE: mat_mult:_17 <- [%RSP+16]
	movq	%rbx, 40(%rsp)          # 8-byte Spill
.Ltmp155:
	#DEBUG_VALUE: matrix:height <- [%RSP+40]
	#DEBUG_VALUE: mat_mult:_12 <- [%RSP+40]
	#DEBUG_VALUE: mat_mult:height <- [%RSP+40]
	.loc	1 300 6                 # MatrixMult.c:300:6
	testq	%rbx, %rbx
	jle	.LBB7_12
.Ltmp156:
# BB#1:                                 # %polly.split_new_and_old
	#DEBUG_VALUE: mat_mult:height <- [%RSP+40]
	#DEBUG_VALUE: mat_mult:_12 <- [%RSP+40]
	#DEBUG_VALUE: matrix:height <- [%RSP+40]
	#DEBUG_VALUE: mat_mult:_17 <- [%RSP+16]
	#DEBUG_VALUE: mat_mult:b_data <- [%RSP+16]
	#DEBUG_VALUE: mat_mult:width <- %RDX
	#DEBUG_VALUE: mat_mult:_11 <- %RDX
	#DEBUG_VALUE: matrix:width <- %RDX
	#DEBUG_VALUE: mat_mult:a <- %R15
	#DEBUG_VALUE: mat_mult:b <- %RBP
	movq	%rdx, 32(%rsp)          # 8-byte Spill
	movq	%rdx, %rax
	imulq	%rax, %rax
	movq	16(%rsp), %rcx          # 8-byte Reload
	leaq	(%rcx,%rax,8), %rax
	movq	8(%rsp), %rdi           # 8-byte Reload
	cmpq	%rdi, %rax
	setbe	%al
	movq	48(%rsp), %rsi          # 8-byte Reload
	leaq	(%rdi,%rsi,8), %rdx
.Ltmp157:
	cmpq	%rcx, %rdx
	setbe	%cl
	movq	24(%rsp), %rbp          # 8-byte Reload
.Ltmp158:
	leaq	(%rbp,%rsi,8), %rsi
	cmpq	%rdi, %rsi
	setbe	%bl
	cmpq	%rbp, %rdx
	setbe	%dl
	orb	%bl, %dl
	movzbl	%dl, %edx
	cmpl	$1, %edx
	jne	.LBB7_3
.Ltmp159:
# BB#2:                                 # %polly.split_new_and_old
	#DEBUG_VALUE: mat_mult:a <- %R15
	#DEBUG_VALUE: mat_mult:b_data <- [%RSP+16]
	#DEBUG_VALUE: mat_mult:_17 <- [%RSP+16]
	#DEBUG_VALUE: matrix:height <- [%RSP+40]
	#DEBUG_VALUE: mat_mult:_12 <- [%RSP+40]
	#DEBUG_VALUE: mat_mult:height <- [%RSP+40]
	orb	%al, %cl
	je	.LBB7_3
.Ltmp160:
# BB#15:                                # %polly.start
	#DEBUG_VALUE: mat_mult:height <- [%RSP+40]
	#DEBUG_VALUE: mat_mult:_12 <- [%RSP+40]
	#DEBUG_VALUE: matrix:height <- [%RSP+40]
	#DEBUG_VALUE: mat_mult:_17 <- [%RSP+16]
	#DEBUG_VALUE: mat_mult:b_data <- [%RSP+16]
	#DEBUG_VALUE: mat_mult:a <- %R15
	movq	40(%rsp), %rax          # 8-byte Reload
	decq	%rax
	sarq	$5, %rax
	movq	%rax, 280(%rsp)         # 8-byte Spill
	movq	32(%rsp), %rdx          # 8-byte Reload
	js	.LBB7_12
.Ltmp161:
# BB#16:                                # %polly.loop_header.preheader
	#DEBUG_VALUE: mat_mult:a <- %R15
	#DEBUG_VALUE: mat_mult:b_data <- [%RSP+16]
	#DEBUG_VALUE: mat_mult:_17 <- [%RSP+16]
	#DEBUG_VALUE: matrix:height <- [%RSP+40]
	#DEBUG_VALUE: mat_mult:_12 <- [%RSP+40]
	#DEBUG_VALUE: mat_mult:height <- [%RSP+40]
	leaq	-1(%rdx), %rax
	movq	%rax, %rcx
	sarq	$5, %rcx
	movq	%rcx, 136(%rsp)         # 8-byte Spill
	shrq	$5, %rax
	movq	%rax, 336(%rsp)         # 8-byte Spill
	movq	%rdx, %rax
	shrq	$2, %rax
	movl	%edx, %ecx
	andl	$3, %ecx
	movq	%rdx, %rdi
	andq	$-4, %rdi
	movl	%edx, %esi
	andl	$1, %esi
	movq	%rcx, 64(%rsp)          # 8-byte Spill
	movq	%rcx, %r13
	movq	%rsi, 72(%rsp)          # 8-byte Spill
	subq	%rsi, %r13
	leaq	1(%rdi), %rcx
	imulq	%rdx, %rcx
	movq	16(%rsp), %rsi          # 8-byte Reload
	leaq	(%rsi,%rcx,8), %rcx
	movq	%rcx, 224(%rsp)         # 8-byte Spill
	movq	%rdx, %rcx
	shlq	$4, %rcx
	movq	%rcx, 216(%rsp)         # 8-byte Spill
	movq	%rdx, %rbp
	shlq	$8, %rbp
	movq	%rbp, 152(%rsp)         # 8-byte Spill
	movq	%rdx, %r8
	imulq	%rax, %r8
	decq	%rax
	movq	%rax, 328(%rsp)         # 8-byte Spill
	shlq	$5, %r8
	addq	%rsi, %r8
	leaq	(%rdx,%rdx,2), %rax
	leaq	(%rsi,%rax,8), %rax
	movq	%rax, 272(%rsp)         # 8-byte Spill
	movq	%rdx, %r14
	shlq	$5, %r14
	movq	24(%rsp), %rax          # 8-byte Reload
	movq	%rax, %rbp
	addq	$24, %rbp
	movq	%rbp, 128(%rsp)         # 8-byte Spill
	movq	%rsi, %rbp
	addq	%rcx, %rbp
	movq	%rbp, 264(%rsp)         # 8-byte Spill
	movq	%rdi, 200(%rsp)         # 8-byte Spill
	leaq	8(%rax,%rdi,8), %rax
	movq	%rax, 144(%rsp)         # 8-byte Spill
	leaq	(,%rdx,8), %rax
	movq	%rax, 376(%rsp)         # 8-byte Spill
	leaq	(%rsi,%rdx,8), %rax
	movq	%rax, 256(%rsp)         # 8-byte Spill
	xorl	%eax, %eax
	movq	%rax, 88(%rsp)          # 8-byte Spill
	movq	%r8, 232(%rsp)          # 8-byte Spill
	movq	%r13, 400(%rsp)         # 8-byte Spill
.Ltmp162:
	.p2align	4, 0x90
.LBB7_17:                               # %polly.loop_header
                                        # =>This Loop Header: Depth=1
                                        #     Child Loop BB7_19 Depth 2
                                        #       Child Loop BB7_20 Depth 3
                                        #         Child Loop BB7_22 Depth 4
                                        #           Child Loop BB7_42 Depth 5
                                        #             Child Loop BB7_50 Depth 6
                                        #           Child Loop BB7_25 Depth 5
                                        #             Child Loop BB7_26 Depth 6
                                        #             Child Loop BB7_33 Depth 6
	cmpq	$0, 136(%rsp)           # 8-byte Folded Reload
	movq	8(%rsp), %r10           # 8-byte Reload
	js	.LBB7_31
# BB#18:                                # %polly.loop_header142.preheader
                                        #   in Loop: Header=BB7_17 Depth=1
	movq	88(%rsp), %rcx          # 8-byte Reload
	shlq	$5, %rcx
	movq	40(%rsp), %rsi          # 8-byte Reload
	movq	%rcx, %rax
	movq	%rax, 360(%rsp)         # 8-byte Spill
	subq	%rcx, %rsi
	decq	%rsi
	cmpq	$31, %rsi
	movl	$31, %eax
	cmovgq	%rax, %rsi
	movq	%rsi, 344(%rsp)         # 8-byte Spill
	leaq	-1(%rsi), %rax
	movq	%rax, 384(%rsp)         # 8-byte Spill
	movq	16(%rsp), %rcx          # 8-byte Reload
	movq	256(%rsp), %rsi         # 8-byte Reload
	movq	264(%rsp), %rdi         # 8-byte Reload
	movq	272(%rsp), %rbp         # 8-byte Reload
	xorl	%eax, %eax
	movq	%rax, 104(%rsp)         # 8-byte Spill
	xorl	%eax, %eax
	.p2align	4, 0x90
.LBB7_19:                               # %polly.loop_header142
                                        #   Parent Loop BB7_17 Depth=1
                                        # =>  This Loop Header: Depth=2
                                        #       Child Loop BB7_20 Depth 3
                                        #         Child Loop BB7_22 Depth 4
                                        #           Child Loop BB7_42 Depth 5
                                        #             Child Loop BB7_50 Depth 6
                                        #           Child Loop BB7_25 Depth 5
                                        #             Child Loop BB7_26 Depth 6
                                        #             Child Loop BB7_33 Depth 6
	movq	%rax, 288(%rsp)         # 8-byte Spill
	movq	%rax, %rbx
	shlq	$5, %rbx
	movq	%rdx, %rax
	movq	%rbx, %rdx
	movq	%rdx, 240(%rsp)         # 8-byte Spill
	subq	%rbx, %rax
	decq	%rax
	cmpq	$31, %rax
	movl	$31, %edx
	cmovleq	%rax, %rdx
	movq	%rdx, 392(%rsp)         # 8-byte Spill
	leaq	-1(%rdx), %rax
	movq	%rax, 248(%rsp)         # 8-byte Spill
	movq	%rcx, 320(%rsp)         # 8-byte Spill
	movq	%rcx, 192(%rsp)         # 8-byte Spill
	movq	%rsi, 312(%rsp)         # 8-byte Spill
	movq	%rsi, 184(%rsp)         # 8-byte Spill
	movq	%rdi, 304(%rsp)         # 8-byte Spill
	movq	%rdi, 176(%rsp)         # 8-byte Spill
	movq	128(%rsp), %rax         # 8-byte Reload
	movq	%rax, 160(%rsp)         # 8-byte Spill
	movq	%rbp, 296(%rsp)         # 8-byte Spill
	movq	%rbp, 168(%rsp)         # 8-byte Spill
	xorl	%eax, %eax
	movq	%rax, 96(%rsp)          # 8-byte Spill
	.p2align	4, 0x90
.LBB7_20:                               # %polly.loop_header150
                                        #   Parent Loop BB7_17 Depth=1
                                        #     Parent Loop BB7_19 Depth=2
                                        # =>    This Loop Header: Depth=3
                                        #         Child Loop BB7_22 Depth 4
                                        #           Child Loop BB7_42 Depth 5
                                        #             Child Loop BB7_50 Depth 6
                                        #           Child Loop BB7_25 Depth 5
                                        #             Child Loop BB7_26 Depth 6
                                        #             Child Loop BB7_33 Depth 6
	cmpq	$0, 344(%rsp)           # 8-byte Folded Reload
	js	.LBB7_39
# BB#21:                                # %polly.loop_header158.preheader
                                        #   in Loop: Header=BB7_20 Depth=3
	cmpq	$0, 64(%rsp)            # 8-byte Folded Reload
	sete	%al
	movq	96(%rsp), %rdx          # 8-byte Reload
	leaq	(,%rdx,8), %rcx
	movq	328(%rsp), %rsi         # 8-byte Reload
	subq	%rcx, %rsi
	cmpq	$7, %rsi
	movl	$7, %ecx
	cmovgq	%rcx, %rsi
	shlq	$5, %rdx
	orq	$31, %rdx
	movq	%rdx, 352(%rsp)         # 8-byte Spill
	cmpq	32(%rsp), %rdx          # 8-byte Folded Reload
	setl	%cl
	movq	%rsi, 368(%rsp)         # 8-byte Spill
	leaq	-1(%rsi), %r15
	orb	%al, %cl
	movb	%cl, 7(%rsp)            # 1-byte Spill
	movq	160(%rsp), %rax         # 8-byte Reload
	movq	%rax, 208(%rsp)         # 8-byte Spill
	movq	144(%rsp), %r11         # 8-byte Reload
	xorl	%eax, %eax
	movq	%rax, 112(%rsp)         # 8-byte Spill
	.p2align	4, 0x90
.LBB7_22:                               # %polly.loop_header158
                                        #   Parent Loop BB7_17 Depth=1
                                        #     Parent Loop BB7_19 Depth=2
                                        #       Parent Loop BB7_20 Depth=3
                                        # =>      This Loop Header: Depth=4
                                        #           Child Loop BB7_42 Depth 5
                                        #             Child Loop BB7_50 Depth 6
                                        #           Child Loop BB7_25 Depth 5
                                        #             Child Loop BB7_26 Depth 6
                                        #             Child Loop BB7_33 Depth 6
	cmpq	$0, 392(%rsp)           # 8-byte Folded Reload
	js	.LBB7_38
# BB#23:                                # %polly.loop_header167.preheader
                                        #   in Loop: Header=BB7_22 Depth=4
	movq	360(%rsp), %rax         # 8-byte Reload
	movq	112(%rsp), %rcx         # 8-byte Reload
	leaq	(%rcx,%rax), %rcx
	movq	32(%rsp), %rax          # 8-byte Reload
	imulq	%rax, %rcx
	movq	%rcx, 80(%rsp)          # 8-byte Spill
	cmpq	$0, 368(%rsp)           # 8-byte Folded Reload
	js	.LBB7_40
# BB#24:                                # %polly.loop_header167.us.preheader
                                        #   in Loop: Header=BB7_22 Depth=4
	movq	104(%rsp), %rax         # 8-byte Reload
	movq	%rax, %rbx
	movq	192(%rsp), %rbp         # 8-byte Reload
	movq	184(%rsp), %rdx         # 8-byte Reload
	movq	176(%rsp), %rsi         # 8-byte Reload
	movq	168(%rsp), %r9          # 8-byte Reload
	xorl	%r12d, %r12d
	.p2align	4, 0x90
.LBB7_25:                               # %polly.loop_header167.us
                                        #   Parent Loop BB7_17 Depth=1
                                        #     Parent Loop BB7_19 Depth=2
                                        #       Parent Loop BB7_20 Depth=3
                                        #         Parent Loop BB7_22 Depth=4
                                        # =>        This Loop Header: Depth=5
                                        #             Child Loop BB7_26 Depth 6
                                        #             Child Loop BB7_33 Depth 6
	movq	%rbx, 416(%rsp)         # 8-byte Spill
	movq	240(%rsp), %rax         # 8-byte Reload
	leaq	(%r12,%rax), %rdi
	movq	80(%rsp), %rax          # 8-byte Reload
	movq	%rdi, 408(%rsp)         # 8-byte Spill
	leaq	(%rdi,%rax), %rax
	movq	%rax, %rbx
	movq	(%r10,%rax,8), %rax
	movq	$-1, %rdi
	movq	%rbp, 56(%rsp)          # 8-byte Spill
	movq	%rdx, 120(%rsp)         # 8-byte Spill
	movq	%rdx, %r10
	movq	%rsi, 432(%rsp)         # 8-byte Spill
	movq	%rsi, %r8
	movq	208(%rsp), %r13         # 8-byte Reload
	movq	%r9, 424(%rsp)          # 8-byte Spill
	.p2align	4, 0x90
.LBB7_26:                               # %polly.loop_header177.us
                                        #   Parent Loop BB7_17 Depth=1
                                        #     Parent Loop BB7_19 Depth=2
                                        #       Parent Loop BB7_20 Depth=3
                                        #         Parent Loop BB7_22 Depth=4
                                        #           Parent Loop BB7_25 Depth=5
                                        # =>          This Inner Loop Header: Depth=6
	movq	(%rbp), %rdx
.Ltmp163:
	.loc	1 336 12                # MatrixMult.c:336:12
	imulq	-24(%r13), %rdx
	.loc	1 338 12                # MatrixMult.c:338:12
	addq	%rax, %rdx
	movq	(%r10), %rax
	.loc	1 336 12                # MatrixMult.c:336:12
	imulq	-16(%r13), %rax
	.loc	1 338 12                # MatrixMult.c:338:12
	addq	%rdx, %rax
	movq	(%r8), %rdx
	.loc	1 336 12                # MatrixMult.c:336:12
	imulq	-8(%r13), %rdx
	.loc	1 338 12                # MatrixMult.c:338:12
	addq	%rax, %rdx
	movq	(%r9), %rax
	.loc	1 336 12                # MatrixMult.c:336:12
	imulq	(%r13), %rax
	.loc	1 338 12                # MatrixMult.c:338:12
	addq	%rdx, %rax
	incq	%rdi
	addq	%r14, %r9
	addq	$32, %r13
	addq	%r14, %r8
	addq	%r14, %r10
	addq	%r14, %rbp
	cmpq	%r15, %rdi
	jle	.LBB7_26
# BB#27:                                # %polly.cond.loopexit.us
                                        #   in Loop: Header=BB7_25 Depth=5
	movq	8(%rsp), %r10           # 8-byte Reload
	movq	%rbx, %r9
	movq	%rax, (%r10,%r9,8)
	cmpb	$0, 7(%rsp)             # 1-byte Folded Reload
	movq	400(%rsp), %r13         # 8-byte Reload
	movq	224(%rsp), %rcx         # 8-byte Reload
	movq	216(%rsp), %rsi         # 8-byte Reload
	movq	232(%rsp), %r8          # 8-byte Reload
	movq	416(%rsp), %rbx         # 8-byte Reload
	jne	.LBB7_37
# BB#28:                                # %polly.loop_header196.us.preheader
                                        #   in Loop: Header=BB7_25 Depth=5
	movq	72(%rsp), %rdx          # 8-byte Reload
	cmpq	%rdx, 64(%rsp)          # 8-byte Folded Reload
	jne	.LBB7_32
# BB#29:                                #   in Loop: Header=BB7_25 Depth=5
	xorl	%edi, %edi
	jmp	.LBB7_34
	.p2align	4, 0x90
.LBB7_32:                               # %polly.loop_header196.us.preheader.new
                                        #   in Loop: Header=BB7_25 Depth=5
	movq	%rbx, %rbp
	xorl	%edi, %edi
	.p2align	4, 0x90
.LBB7_33:                               # %polly.loop_header196.us
                                        #   Parent Loop BB7_17 Depth=1
                                        #     Parent Loop BB7_19 Depth=2
                                        #       Parent Loop BB7_20 Depth=3
                                        #         Parent Loop BB7_22 Depth=4
                                        #           Parent Loop BB7_25 Depth=5
                                        # =>          This Inner Loop Header: Depth=6
	movq	(%r8,%rbp), %rdx
	.loc	1 336 12                # MatrixMult.c:336:12
	imulq	-8(%r11,%rdi,8), %rdx
	.loc	1 338 12                # MatrixMult.c:338:12
	addq	%rax, %rdx
	movq	(%rcx,%rbp), %rax
	.loc	1 336 12                # MatrixMult.c:336:12
	imulq	(%r11,%rdi,8), %rax
	.loc	1 338 12                # MatrixMult.c:338:12
	addq	%rdx, %rax
	addq	$2, %rdi
	addq	%rsi, %rbp
	cmpq	%rdi, %r13
	jne	.LBB7_33
.LBB7_34:                               # %polly.merge.loopexit.us.unr-lcssa
                                        #   in Loop: Header=BB7_25 Depth=5
	cmpq	$0, 72(%rsp)            # 8-byte Folded Reload
	je	.LBB7_36
# BB#35:                                # %polly.merge.loopexit.us.epilog-lcssa
                                        #   in Loop: Header=BB7_25 Depth=5
	addq	200(%rsp), %rdi         # 8-byte Folded Reload
	movq	%rdi, %rdx
	imulq	32(%rsp), %rdx          # 8-byte Folded Reload
	addq	408(%rsp), %rdx         # 8-byte Folded Reload
	movq	16(%rsp), %rbp          # 8-byte Reload
	movq	(%rbp,%rdx,8), %rdx
	addq	80(%rsp), %rdi          # 8-byte Folded Reload
	.loc	1 336 12                # MatrixMult.c:336:12
	movq	24(%rsp), %rbp          # 8-byte Reload
	imulq	(%rbp,%rdi,8), %rdx
	.loc	1 338 12                # MatrixMult.c:338:12
	addq	%rdx, %rax
.LBB7_36:                               # %polly.merge.loopexit.us
                                        #   in Loop: Header=BB7_25 Depth=5
	movq	%rax, (%r10,%r9,8)
.LBB7_37:                               # %polly.merge.us
                                        #   in Loop: Header=BB7_25 Depth=5
	movq	424(%rsp), %r9          # 8-byte Reload
	addq	$8, %r9
	movq	432(%rsp), %rsi         # 8-byte Reload
	addq	$8, %rsi
	movq	120(%rsp), %rdx         # 8-byte Reload
	addq	$8, %rdx
	movq	56(%rsp), %rbp          # 8-byte Reload
	addq	$8, %rbp
	addq	$8, %rbx
	cmpq	248(%rsp), %r12         # 8-byte Folded Reload
	leaq	1(%r12), %r12
	jle	.LBB7_25
	jmp	.LBB7_38
	.p2align	4, 0x90
.LBB7_40:                               # %polly.loop_header167.preheader.split
                                        #   in Loop: Header=BB7_22 Depth=4
	cmpq	%rax, 352(%rsp)         # 8-byte Folded Reload
	jl	.LBB7_38
# BB#41:                                # %polly.loop_header167.preheader357
                                        #   in Loop: Header=BB7_22 Depth=4
	movq	104(%rsp), %r12         # 8-byte Reload
	xorl	%esi, %esi
	.p2align	4, 0x90
.LBB7_42:                               # %polly.loop_header167
                                        #   Parent Loop BB7_17 Depth=1
                                        #     Parent Loop BB7_19 Depth=2
                                        #       Parent Loop BB7_20 Depth=3
                                        #         Parent Loop BB7_22 Depth=4
                                        # =>        This Loop Header: Depth=5
                                        #             Child Loop BB7_50 Depth 6
	cmpq	$0, 64(%rsp)            # 8-byte Folded Reload
	je	.LBB7_48
# BB#43:                                # %polly.loop_header196.preheader
                                        #   in Loop: Header=BB7_42 Depth=5
	movq	240(%rsp), %rax         # 8-byte Reload
	leaq	(%rsi,%rax), %rdx
	movq	80(%rsp), %rax          # 8-byte Reload
	leaq	(%rdx,%rax), %rax
	movq	72(%rsp), %rcx          # 8-byte Reload
	cmpq	%rcx, 64(%rsp)          # 8-byte Folded Reload
	movq	(%r10,%rax,8), %rbx
	movq	%rax, 56(%rsp)          # 8-byte Spill
	movq	%rdx, 120(%rsp)         # 8-byte Spill
	jne	.LBB7_49
# BB#44:                                #   in Loop: Header=BB7_42 Depth=5
	xorl	%ecx, %ecx
	jmp	.LBB7_45
	.p2align	4, 0x90
.LBB7_49:                               # %polly.loop_header196.preheader.new
                                        #   in Loop: Header=BB7_42 Depth=5
	movq	%r11, %rdx
	movq	%r12, %rdi
	xorl	%ecx, %ecx
	movq	224(%rsp), %rax         # 8-byte Reload
	movq	216(%rsp), %r9          # 8-byte Reload
	.p2align	4, 0x90
.LBB7_50:                               # %polly.loop_header196
                                        #   Parent Loop BB7_17 Depth=1
                                        #     Parent Loop BB7_19 Depth=2
                                        #       Parent Loop BB7_20 Depth=3
                                        #         Parent Loop BB7_22 Depth=4
                                        #           Parent Loop BB7_42 Depth=5
                                        # =>          This Inner Loop Header: Depth=6
	movq	(%r8,%rdi), %rbp
	.loc	1 336 12                # MatrixMult.c:336:12
	imulq	-8(%rdx), %rbp
	.loc	1 338 12                # MatrixMult.c:338:12
	addq	%rbx, %rbp
	movq	(%rax,%rdi), %rbx
	.loc	1 336 12                # MatrixMult.c:336:12
	imulq	(%rdx), %rbx
	.loc	1 338 12                # MatrixMult.c:338:12
	addq	%rbp, %rbx
	addq	$2, %rcx
	addq	%r9, %rdi
	addq	$16, %rdx
	cmpq	%rcx, %r13
	jne	.LBB7_50
.LBB7_45:                               # %polly.merge.loopexit.unr-lcssa
                                        #   in Loop: Header=BB7_42 Depth=5
	cmpq	$0, 72(%rsp)            # 8-byte Folded Reload
	movq	56(%rsp), %rax          # 8-byte Reload
	je	.LBB7_47
# BB#46:                                # %polly.merge.loopexit.epilog-lcssa
                                        #   in Loop: Header=BB7_42 Depth=5
	addq	200(%rsp), %rcx         # 8-byte Folded Reload
	movq	%rcx, %rdx
	imulq	32(%rsp), %rdx          # 8-byte Folded Reload
	addq	120(%rsp), %rdx         # 8-byte Folded Reload
	movq	16(%rsp), %rdi          # 8-byte Reload
	movq	(%rdi,%rdx,8), %rdx
	addq	80(%rsp), %rcx          # 8-byte Folded Reload
	.loc	1 336 12                # MatrixMult.c:336:12
	movq	24(%rsp), %rdi          # 8-byte Reload
	imulq	(%rdi,%rcx,8), %rdx
	.loc	1 338 12                # MatrixMult.c:338:12
	addq	%rdx, %rbx
.Ltmp164:
.LBB7_47:                               # %polly.merge.loopexit
                                        #   in Loop: Header=BB7_42 Depth=5
	movq	%rbx, (%r10,%rax,8)
	movq	232(%rsp), %r8          # 8-byte Reload
.LBB7_48:                               # %polly.merge
                                        #   in Loop: Header=BB7_42 Depth=5
	addq	$8, %r12
	cmpq	248(%rsp), %rsi         # 8-byte Folded Reload
	leaq	1(%rsi), %rsi
	jle	.LBB7_42
	.p2align	4, 0x90
.LBB7_38:                               # %polly.loop_exit169
                                        #   in Loop: Header=BB7_22 Depth=4
	movq	376(%rsp), %rax         # 8-byte Reload
	addq	%rax, %r11
	addq	%rax, 208(%rsp)         # 8-byte Folded Spill
	movq	112(%rsp), %rax         # 8-byte Reload
	cmpq	384(%rsp), %rax         # 8-byte Folded Reload
	leaq	1(%rax), %rax
	movq	%rax, 112(%rsp)         # 8-byte Spill
	jle	.LBB7_22
.LBB7_39:                               # %polly.loop_exit160
                                        #   in Loop: Header=BB7_20 Depth=3
	movq	152(%rsp), %rax         # 8-byte Reload
	addq	%rax, 168(%rsp)         # 8-byte Folded Spill
	addq	$256, 160(%rsp)         # 8-byte Folded Spill
                                        # imm = 0x100
	addq	%rax, 176(%rsp)         # 8-byte Folded Spill
	addq	%rax, 184(%rsp)         # 8-byte Folded Spill
	addq	%rax, 192(%rsp)         # 8-byte Folded Spill
	movq	96(%rsp), %rax          # 8-byte Reload
	cmpq	336(%rsp), %rax         # 8-byte Folded Reload
	leaq	1(%rax), %rax
	movq	%rax, 96(%rsp)          # 8-byte Spill
	jne	.LBB7_20
# BB#30:                                # %polly.loop_exit152
                                        #   in Loop: Header=BB7_19 Depth=2
	addq	$256, 104(%rsp)         # 8-byte Folded Spill
                                        # imm = 0x100
	movq	296(%rsp), %rbp         # 8-byte Reload
	addq	$256, %rbp              # imm = 0x100
	movq	304(%rsp), %rdi         # 8-byte Reload
	addq	$256, %rdi              # imm = 0x100
	movq	312(%rsp), %rsi         # 8-byte Reload
	addq	$256, %rsi              # imm = 0x100
	movq	320(%rsp), %rcx         # 8-byte Reload
	addq	$256, %rcx              # imm = 0x100
	movq	288(%rsp), %rax         # 8-byte Reload
	cmpq	136(%rsp), %rax         # 8-byte Folded Reload
	leaq	1(%rax), %rax
	movq	32(%rsp), %rdx          # 8-byte Reload
	jne	.LBB7_19
.LBB7_31:                               # %polly.loop_exit144
                                        #   in Loop: Header=BB7_17 Depth=1
	movq	152(%rsp), %rax         # 8-byte Reload
	addq	%rax, 144(%rsp)         # 8-byte Folded Spill
	addq	%rax, 128(%rsp)         # 8-byte Folded Spill
	movq	88(%rsp), %rax          # 8-byte Reload
	cmpq	280(%rsp), %rax         # 8-byte Folded Reload
	leaq	1(%rax), %rax
	movq	%rax, 88(%rsp)          # 8-byte Spill
	jne	.LBB7_17
	jmp	.LBB7_12
.LBB7_3:                                # %while.cond13.preheader.preheader
.Ltmp165:
	#DEBUG_VALUE: mat_mult:a <- %R15
	#DEBUG_VALUE: mat_mult:b_data <- [%RSP+16]
	#DEBUG_VALUE: mat_mult:_17 <- [%RSP+16]
	#DEBUG_VALUE: matrix:height <- [%RSP+40]
	#DEBUG_VALUE: mat_mult:_12 <- [%RSP+40]
	#DEBUG_VALUE: mat_mult:height <- [%RSP+40]
	movq	32(%rsp), %rdx          # 8-byte Reload
	.loc	1 308 7                 # MatrixMult.c:308:7
	testq	%rdx, %rdx
	jle	.LBB7_12
.Ltmp166:
# BB#4:                                 # %while.cond13.preheader.us.preheader
	#DEBUG_VALUE: mat_mult:height <- [%RSP+40]
	#DEBUG_VALUE: mat_mult:_12 <- [%RSP+40]
	#DEBUG_VALUE: matrix:height <- [%RSP+40]
	#DEBUG_VALUE: mat_mult:_17 <- [%RSP+16]
	#DEBUG_VALUE: mat_mult:b_data <- [%RSP+16]
	#DEBUG_VALUE: mat_mult:a <- %R15
	.loc	1 318 10                # MatrixMult.c:318:10
	movl	%edx, %r11d
	andl	$1, %r11d
	movq	%rdx, %r12
	subq	%r11, %r12
	leaq	(,%rdx,8), %r13
	movq	%rdx, %rsi
	shlq	$4, %rsi
	movq	24(%rsp), %r9           # 8-byte Reload
	addq	$8, %r9
	xorl	%eax, %eax
	movq	8(%rsp), %r8            # 8-byte Reload
.Ltmp167:
	.p2align	4, 0x90
.LBB7_5:                                # %while.cond13.preheader.us
                                        # =>This Loop Header: Depth=1
                                        #     Child Loop BB7_6 Depth 2
                                        #       Child Loop BB7_14 Depth 3
	movq	%rax, 56(%rsp)          # 8-byte Spill
	movq	%rax, %r10
	imulq	%rdx, %r10
.Ltmp168:
	#DEBUG_VALUE: mat_mult:_32 <- %R10
	#DEBUG_VALUE: mat_mult:_24 <- %R10
	#DEBUG_VALUE: mat_mult:_21 <- %R10
	movq	16(%rsp), %r14          # 8-byte Reload
	xorl	%r15d, %r15d
.Ltmp169:
	.p2align	4, 0x90
.LBB7_6:                                # %while.cond19.preheader.us.us
                                        #   Parent Loop BB7_5 Depth=1
                                        # =>  This Loop Header: Depth=2
                                        #       Child Loop BB7_14 Depth 3
	.loc	1 320 12                # MatrixMult.c:320:12
	leaq	(%r15,%r10), %rbp
.Ltmp170:
	#DEBUG_VALUE: mat_mult:_33 <- %RBP
	#DEBUG_VALUE: mat_mult:_22 <- %RBP
	cmpq	%r11, %rdx
	.loc	1 322 9                 # MatrixMult.c:322:9
	movq	8(%rsp), %rax           # 8-byte Reload
	movq	(%rax,%rbp,8), %rax
	jne	.LBB7_13
.Ltmp171:
# BB#7:                                 #   in Loop: Header=BB7_6 Depth=2
	#DEBUG_VALUE: mat_mult:_22 <- %RBP
	#DEBUG_VALUE: mat_mult:_33 <- %RBP
	xorl	%ebx, %ebx
	jmp	.LBB7_8
.Ltmp172:
	.p2align	4, 0x90
.LBB7_13:                               # %while.cond19.preheader.us.us.new
                                        #   in Loop: Header=BB7_6 Depth=2
	#DEBUG_VALUE: mat_mult:_22 <- %RBP
	#DEBUG_VALUE: mat_mult:_33 <- %RBP
	movq	%r9, %rdi
	movq	%r14, %rcx
	xorl	%ebx, %ebx
.Ltmp173:
	.p2align	4, 0x90
.LBB7_14:                               # %if.end24.us.us
                                        #   Parent Loop BB7_5 Depth=1
                                        #     Parent Loop BB7_6 Depth=2
                                        # =>    This Inner Loop Header: Depth=3
	.loc	1 334 9                 # MatrixMult.c:334:9
	movq	(%rcx), %rdx
.Ltmp174:
	#DEBUG_VALUE: mat_mult:_29 <- %RDX
	.loc	1 336 12                # MatrixMult.c:336:12
	imulq	-8(%rdi), %rdx
.Ltmp175:
	#DEBUG_VALUE: mat_mult:_30 <- %RDX
	.loc	1 338 12                # MatrixMult.c:338:12
	addq	%rax, %rdx
.Ltmp176:
	#DEBUG_VALUE: mat_mult:_31 <- %RDX
	.loc	1 344 15                # MatrixMult.c:344:15
	movq	%rdx, (%r8,%rbp,8)
	.loc	1 334 9                 # MatrixMult.c:334:9
	movq	(%r13,%rcx), %rax
	.loc	1 336 12                # MatrixMult.c:336:12
	imulq	(%rdi), %rax
	.loc	1 338 12                # MatrixMult.c:338:12
	addq	%rdx, %rax
	.loc	1 344 15                # MatrixMult.c:344:15
	movq	%rax, (%r8,%rbp,8)
	.loc	1 348 10                # MatrixMult.c:348:10
	addq	$2, %rbx
	.loc	1 316 8                 # MatrixMult.c:316:8
	addq	%rsi, %rcx
	addq	$16, %rdi
	cmpq	%rbx, %r12
.Ltmp177:
	#DEBUG_VALUE: mat_mult:_34 <- 1
	#DEBUG_VALUE: mat_mult:_23 <- %RAX
	jne	.LBB7_14
.Ltmp178:
.LBB7_8:                                # %blklab17.loopexit.us.us.unr-lcssa
                                        #   in Loop: Header=BB7_6 Depth=2
	testq	%r11, %r11
	movq	32(%rsp), %rdx          # 8-byte Reload
	je	.LBB7_10
# BB#9:                                 # %if.end24.us.us.epil
                                        #   in Loop: Header=BB7_6 Depth=2
	.loc	1 326 12                # MatrixMult.c:326:12
	leaq	(%rbx,%r10), %rcx
.Ltmp179:
	#DEBUG_VALUE: mat_mult:_25 <- %RCX
	.loc	1 330 10                # MatrixMult.c:330:10
	imulq	%rdx, %rbx
.Ltmp180:
	#DEBUG_VALUE: mat_mult:_27 <- %RBX
	.loc	1 332 12                # MatrixMult.c:332:12
	addq	%r15, %rbx
.Ltmp181:
	#DEBUG_VALUE: mat_mult:_28 <- %RBX
	.loc	1 334 9                 # MatrixMult.c:334:9
	movq	16(%rsp), %rdi          # 8-byte Reload
	movq	(%rdi,%rbx,8), %rdi
.Ltmp182:
	#DEBUG_VALUE: mat_mult:_29 <- %RDI
	.loc	1 336 12                # MatrixMult.c:336:12
	movq	24(%rsp), %rbx          # 8-byte Reload
.Ltmp183:
	imulq	(%rbx,%rcx,8), %rdi
.Ltmp184:
	#DEBUG_VALUE: mat_mult:_30 <- %RDI
	.loc	1 338 12                # MatrixMult.c:338:12
	addq	%rax, %rdi
.Ltmp185:
	#DEBUG_VALUE: mat_mult:_31 <- %RDI
	.loc	1 344 15                # MatrixMult.c:344:15
	movq	8(%rsp), %rax           # 8-byte Reload
	movq	%rdi, (%rax,%rbp,8)
.Ltmp186:
	#DEBUG_VALUE: mat_mult:_34 <- 1
	#DEBUG_VALUE: mat_mult:_23 <- %RAX
.LBB7_10:                               # %blklab17.loopexit.us.us
                                        #   in Loop: Header=BB7_6 Depth=2
	#DEBUG_VALUE: mat_mult:_36 <- 1
	.loc	1 359 9                 # MatrixMult.c:359:9
	incq	%r15
.Ltmp187:
	#DEBUG_VALUE: mat_mult:_37 <- %R15
	#DEBUG_VALUE: mat_mult:j <- %R15
	.loc	1 308 7                 # MatrixMult.c:308:7
	addq	$8, %r14
	cmpq	%rdx, %r15
	jne	.LBB7_6
.Ltmp188:
# BB#11:                                # %blklab15.loopexit.us-lcssa.us.us
                                        #   in Loop: Header=BB7_5 Depth=1
	#DEBUG_VALUE: mat_mult:j <- %R15
	#DEBUG_VALUE: mat_mult:_37 <- %R15
	#DEBUG_VALUE: mat_mult:_38 <- 1
	movq	56(%rsp), %rax          # 8-byte Reload
	.loc	1 370 8                 # MatrixMult.c:370:8
	incq	%rax
.Ltmp189:
	#DEBUG_VALUE: mat_mult:_39 <- %RAX
	#DEBUG_VALUE: mat_mult:i <- %RAX
	.loc	1 300 6                 # MatrixMult.c:300:6
	addq	%r13, %r9
	cmpq	40(%rsp), %rax          # 8-byte Folded Reload
	jne	.LBB7_5
.Ltmp190:
.LBB7_12:                               # %blklab13
	.loc	1 34 7                  # MatrixMult.c:34:7
	movl	$32, %edi
	movq	%rdx, %rbx
	callq	malloc
	movq	%rax, %r15
.Ltmp191:
	#DEBUG_VALUE: matrix:_4 <- %R15
	#DEBUG_VALUE: mat_mult:_40 <- %R15
	movq	48(%rsp), %rsi          # 8-byte Reload
	.loc	1 35 2                  # MatrixMult.c:35:2
	movq	%rsi, 8(%r15)
	movq	8(%rsp), %rdi           # 8-byte Reload
	callq	copy
	movq	%rax, (%r15)
	.loc	1 36 13                 # MatrixMult.c:36:13
	movq	40(%rsp), %rax          # 8-byte Reload
	movq	%rax, 24(%r15)
	.loc	1 37 12                 # MatrixMult.c:37:12
	movq	%rbx, 16(%r15)
.Ltmp192:
	.loc	1 381 2                 # MatrixMult.c:381:2
	movq	%r15, %rax
	addq	$440, %rsp              # imm = 0x1B8
	popq	%rbx
	popq	%r12
	popq	%r13
	popq	%r14
	popq	%r15
.Ltmp193:
	popq	%rbp
	retq
.Ltmp194:
.Lfunc_end7:
	.size	mat_mult, .Lfunc_end7-mat_mult
	.cfi_endproc

	.section	.rodata.cst16,"aM",@progbits,16
	.p2align	4
.LCPI8_0:
	.quad	115                     # 0x73
	.quad	105                     # 0x69
.LCPI8_1:
	.quad	122                     # 0x7a
	.quad	101                     # 0x65
.LCPI8_2:
	.quad	32                      # 0x20
	.quad	61                      # 0x3d
.LCPI8_3:
	.quad	77                      # 0x4d
	.quad	97                      # 0x61
.LCPI8_4:
	.quad	116                     # 0x74
	.quad	114                     # 0x72
.LCPI8_5:
	.quad	105                     # 0x69
	.quad	120                     # 0x78
.LCPI8_6:
	.quad	32                      # 0x20
	.quad	67                      # 0x43
.LCPI8_7:
	.quad	91                      # 0x5b
	.quad	115                     # 0x73
.LCPI8_8:
	.quad	105                     # 0x69
	.quad	122                     # 0x7a
.LCPI8_9:
	.quad	101                     # 0x65
	.quad	45                      # 0x2d
.LCPI8_10:
	.quad	49                      # 0x31
	.quad	93                      # 0x5d
.LCPI8_11:
	.quad	80                      # 0x50
	.quad	97                      # 0x61
.LCPI8_12:
	.quad	115                     # 0x73
	.quad	115                     # 0x73
.LCPI8_13:
	.quad	32                      # 0x20
	.quad	77                      # 0x4d
.LCPI8_14:
	.quad	97                      # 0x61
	.quad	116                     # 0x74
.LCPI8_15:
	.quad	114                     # 0x72
	.quad	105                     # 0x69
.LCPI8_16:
	.quad	120                     # 0x78
	.quad	77                      # 0x4d
.LCPI8_17:
	.quad	117                     # 0x75
	.quad	108                     # 0x6c
.LCPI8_18:
	.quad	116                     # 0x74
	.quad	32                      # 0x20
.LCPI8_19:
	.quad	116                     # 0x74
	.quad	101                     # 0x65
.LCPI8_20:
	.quad	115                     # 0x73
	.quad	116                     # 0x74
.LCPI8_21:
	.quad	32                      # 0x20
	.quad	99                      # 0x63
.LCPI8_22:
	.quad	97                      # 0x61
	.quad	115                     # 0x73
	.text
	.globl	main
	.p2align	4, 0x90
	.type	main,@function
main:                                   # @main
.Lfunc_begin8:
	.loc	1 385 0                 # MatrixMult.c:385:0
	.cfi_startproc
# BB#0:                                 # %entry
	.loc	1 445 2 prologue_end    # MatrixMult.c:445:2
	pushq	%r15
.Ltmp195:
	.cfi_def_cfa_offset 16
	pushq	%r14
.Ltmp196:
	.cfi_def_cfa_offset 24
	pushq	%r13
.Ltmp197:
	.cfi_def_cfa_offset 32
	pushq	%r12
.Ltmp198:
	.cfi_def_cfa_offset 40
	pushq	%rbx
.Ltmp199:
	.cfi_def_cfa_offset 48
.Ltmp200:
	.cfi_offset %rbx, -48
.Ltmp201:
	.cfi_offset %r12, -40
.Ltmp202:
	.cfi_offset %r13, -32
.Ltmp203:
	.cfi_offset %r14, -24
.Ltmp204:
	.cfi_offset %r15, -16
	#DEBUG_VALUE: main:argc <- %EDI
	#DEBUG_VALUE: main:args <- %RSI
.Ltmp205:
	#DEBUG_VALUE: main:size <- 0
	#DEBUG_VALUE: main:_7_size <- 0
	#DEBUG_VALUE: main:_7_size_size <- 0
	#DEBUG_VALUE: main:_8 <- 0
	#DEBUG_VALUE: main:_9_size <- 0
	#DEBUG_VALUE: main:_12_size <- 0
	#DEBUG_VALUE: main:_18_size <- 0
	#DEBUG_VALUE: main:_19 <- 0
	#DEBUG_VALUE: main:_20 <- 0
	#DEBUG_VALUE: main:_21 <- 0
	#DEBUG_VALUE: main:_22 <- 0
	#DEBUG_VALUE: main:_23 <- 0
	#DEBUG_VALUE: main:_24 <- 0
	#DEBUG_VALUE: main:_25 <- 0
	#DEBUG_VALUE: main:_26 <- 0
	#DEBUG_VALUE: main:_27 <- 0
	#DEBUG_VALUE: main:_28_size <- 0
	#DEBUG_VALUE: main:_29 <- 0
	#DEBUG_VALUE: main:_30 <- 0
	#DEBUG_VALUE: main:_31 <- 0
	#DEBUG_VALUE: main:_32 <- 0
	#DEBUG_VALUE: main:_33 <- 0
	#DEBUG_VALUE: main:_34 <- 0
	#DEBUG_VALUE: main:_35 <- 0
	#DEBUG_VALUE: main:_36 <- 0
	#DEBUG_VALUE: main:_37 <- 0
	#DEBUG_VALUE: main:_38 <- 0
	#DEBUG_VALUE: main:_39_size <- 0
	#DEBUG_VALUE: main:_40 <- 0
	#DEBUG_VALUE: main:_41 <- 0
	#DEBUG_VALUE: main:_42 <- 0
	#DEBUG_VALUE: main:_43 <- 0
	#DEBUG_VALUE: main:_44 <- 0
	#DEBUG_VALUE: main:_45 <- 0
	#DEBUG_VALUE: main:_46 <- 0
	#DEBUG_VALUE: main:_47 <- 0
	#DEBUG_VALUE: main:_50_size <- 0
	#DEBUG_VALUE: main:_53_size <- 0
	#DEBUG_VALUE: main:_54 <- 0
	#DEBUG_VALUE: main:_55 <- 0
	#DEBUG_VALUE: main:_56 <- 0
	#DEBUG_VALUE: main:_57 <- 0
	#DEBUG_VALUE: main:_58 <- 0
	#DEBUG_VALUE: main:_59 <- 0
	#DEBUG_VALUE: main:_60 <- 0
	#DEBUG_VALUE: main:_63_size <- 0
	callq	convertArgsToIntArray
.Ltmp206:
	#DEBUG_VALUE: main:_7 <- %RAX
	.loc	1 449 5                 # MatrixMult.c:449:5
	movq	(%rax), %rdi
.Ltmp207:
	#DEBUG_VALUE: main:_9 <- %RDI
	.loc	1 451 2                 # MatrixMult.c:451:2
	callq	parseStringToInt
.Ltmp208:
	#DEBUG_VALUE: main:max <- %RAX
	#DEBUG_VALUE: main:_6 <- %RAX
	.loc	1 455 9                 # MatrixMult.c:455:9
	testq	%rax, %rax
	je	.LBB8_7
.Ltmp209:
# BB#1:                                 # %if.end
	#DEBUG_VALUE: main:_6 <- %RAX
	#DEBUG_VALUE: main:max <- %RAX
	.loc	1 457 9                 # MatrixMult.c:457:9
	movq	(%rax), %r12
.Ltmp210:
	#DEBUG_VALUE: main:_12_size <- 7
	#DEBUG_VALUE: main:size <- %R12
	.loc	1 461 2                 # MatrixMult.c:461:2
	movl	$56, %edi
	callq	malloc
.Ltmp211:
	#DEBUG_VALUE: main:_12 <- %RAX
	.loc	1 462 9                 # MatrixMult.c:462:9
	movaps	.LCPI8_0(%rip), %xmm0   # xmm0 = [115,105]
	movups	%xmm0, (%rax)
	.loc	1 462 37 is_stmt 0      # MatrixMult.c:462:37
	movaps	.LCPI8_1(%rip), %xmm0   # xmm0 = [122,101]
	movups	%xmm0, 16(%rax)
	.loc	1 462 65                # MatrixMult.c:462:65
	movaps	.LCPI8_2(%rip), %xmm0   # xmm0 = [32,61]
	movups	%xmm0, 32(%rax)
	.loc	1 462 91                # MatrixMult.c:462:91
	movq	$32, 48(%rax)
	.loc	1 464 2 is_stmt 1       # MatrixMult.c:464:2
	movl	$7, %esi
	movq	%rax, %rdi
	callq	printf_s
.Ltmp212:
	.loc	1 468 2                 # MatrixMult.c:468:2
	movl	$.L.str.6, %edi
	xorl	%eax, %eax
	movq	%r12, %rsi
	callq	printf
	.loc	1 470 8                 # MatrixMult.c:470:8
	movq	%r12, %rdi
	movq	%r12, %rsi
	callq	init
	movq	%rax, %rbx
.Ltmp213:
	#DEBUG_VALUE: main:A <- %RBX
	#DEBUG_VALUE: main:_15 <- %RBX
	.loc	1 474 8                 # MatrixMult.c:474:8
	movq	%r12, %rdi
	movq	%r12, %rsi
	callq	init
	movq	%rax, %r14
.Ltmp214:
	#DEBUG_VALUE: main:B <- %R14
	#DEBUG_VALUE: main:_16 <- %R14
	.loc	1 478 8                 # MatrixMult.c:478:8
	movq	%rbx, %rdi
	movq	%r14, %rsi
	callq	mat_mult
	movq	%rax, %r15
.Ltmp215:
	#DEBUG_VALUE: main:C <- %R15
	#DEBUG_VALUE: main:_17 <- %R15
	.loc	1 484 3                 # MatrixMult.c:484:3
	movq	(%rbx), %rdi
	movq	8(%rbx), %rsi
	callq	copy
.Ltmp216:
	#DEBUG_VALUE: main:_18 <- %RAX
	#DEBUG_VALUE: main:_19 <- 1
	.loc	1 488 11                # MatrixMult.c:488:11
	leaq	-1(%r12), %rbx
.Ltmp217:
	#DEBUG_VALUE: main:_55 <- %RBX
	#DEBUG_VALUE: main:_41 <- %RBX
	#DEBUG_VALUE: main:_37 <- %RBX
	#DEBUG_VALUE: main:_30 <- %RBX
	#DEBUG_VALUE: main:_27 <- %RBX
	#DEBUG_VALUE: main:_20 <- %RBX
	.loc	1 492 10                # MatrixMult.c:492:10
	movq	%r12, %r13
	imulq	%r13, %r13
.Ltmp218:
	#DEBUG_VALUE: main:_57 <- %R13
	#DEBUG_VALUE: main:_43 <- %R13
	#DEBUG_VALUE: main:_32 <- %R13
	#DEBUG_VALUE: main:_26 <- 1
	#DEBUG_VALUE: main:_23 <- 1
	#DEBUG_VALUE: main:_22 <- %R13
	.loc	1 504 9                 # MatrixMult.c:504:9
	cmpq	%rbx, -8(%rax,%r13,8)
	jne	.LBB8_8
.Ltmp219:
# BB#2:                                 # %blklab20
	#DEBUG_VALUE: main:_22 <- %R13
	#DEBUG_VALUE: main:_32 <- %R13
	#DEBUG_VALUE: main:_43 <- %R13
	#DEBUG_VALUE: main:_57 <- %R13
	#DEBUG_VALUE: main:_20 <- %RBX
	#DEBUG_VALUE: main:_27 <- %RBX
	#DEBUG_VALUE: main:_30 <- %RBX
	#DEBUG_VALUE: main:_37 <- %RBX
	#DEBUG_VALUE: main:_41 <- %RBX
	#DEBUG_VALUE: main:_55 <- %RBX
	#DEBUG_VALUE: main:_18 <- %RAX
	#DEBUG_VALUE: main:_17 <- %R15
	#DEBUG_VALUE: main:C <- %R15
	#DEBUG_VALUE: main:_16 <- %R14
	#DEBUG_VALUE: main:B <- %R14
	#DEBUG_VALUE: main:size <- %R12
	.loc	1 515 3                 # MatrixMult.c:515:3
	movq	(%r14), %rdi
	movq	8(%r14), %rsi
	callq	copy
.Ltmp220:
	#DEBUG_VALUE: main:_28 <- %RAX
	#DEBUG_VALUE: main:_36 <- 1
	#DEBUG_VALUE: main:_33 <- 1
	#DEBUG_VALUE: main:_29 <- 1
	.loc	1 535 9                 # MatrixMult.c:535:9
	cmpq	%rbx, -8(%rax,%r13,8)
	jne	.LBB8_8
.Ltmp221:
# BB#3:                                 # %blklab21
	#DEBUG_VALUE: main:size <- %R12
	#DEBUG_VALUE: main:B <- %R14
	#DEBUG_VALUE: main:_16 <- %R14
	#DEBUG_VALUE: main:C <- %R15
	#DEBUG_VALUE: main:_17 <- %R15
	#DEBUG_VALUE: main:_55 <- %RBX
	#DEBUG_VALUE: main:_41 <- %RBX
	#DEBUG_VALUE: main:_37 <- %RBX
	#DEBUG_VALUE: main:_30 <- %RBX
	#DEBUG_VALUE: main:_27 <- %RBX
	#DEBUG_VALUE: main:_20 <- %RBX
	#DEBUG_VALUE: main:_57 <- %R13
	#DEBUG_VALUE: main:_43 <- %R13
	#DEBUG_VALUE: main:_32 <- %R13
	#DEBUG_VALUE: main:_22 <- %R13
	#DEBUG_VALUE: main:_28 <- %RAX
	#DEBUG_VALUE: main:_38 <- 2000
	.loc	1 546 9                 # MatrixMult.c:546:9
	cmpq	$2000, %r12             # imm = 0x7D0
	jne	.LBB8_4
.Ltmp222:
# BB#5:                                 # %if.end44
	#DEBUG_VALUE: main:_28 <- %RAX
	#DEBUG_VALUE: main:_22 <- %R13
	#DEBUG_VALUE: main:_32 <- %R13
	#DEBUG_VALUE: main:_43 <- %R13
	#DEBUG_VALUE: main:_57 <- %R13
	#DEBUG_VALUE: main:_20 <- %RBX
	#DEBUG_VALUE: main:_27 <- %RBX
	#DEBUG_VALUE: main:_30 <- %RBX
	#DEBUG_VALUE: main:_37 <- %RBX
	#DEBUG_VALUE: main:_41 <- %RBX
	#DEBUG_VALUE: main:_55 <- %RBX
	#DEBUG_VALUE: main:_17 <- %R15
	#DEBUG_VALUE: main:C <- %R15
	#DEBUG_VALUE: main:_16 <- %R14
	#DEBUG_VALUE: main:B <- %R14
	#DEBUG_VALUE: main:size <- %R12
	.loc	1 550 3                 # MatrixMult.c:550:3
	movq	(%r15), %r14
.Ltmp223:
	movq	8(%r15), %r15
.Ltmp224:
	movq	%r14, %rdi
	movq	%r15, %rsi
	callq	copy
.Ltmp225:
	#DEBUG_VALUE: main:_39 <- %RAX
	#DEBUG_VALUE: main:_44 <- 1
	#DEBUG_VALUE: main:_40 <- 1
	.loc	1 568 9                 # MatrixMult.c:568:9
	movl	$3996001000, %ecx       # imm = 0xEE2E22E8
.Ltmp226:
	#DEBUG_VALUE: main:_47 <- 3996001000
	cmpq	%rcx, -8(%rax,%r13,8)
	je	.LBB8_6
.Ltmp227:
.LBB8_8:                                # %if.end24
	#DEBUG_VALUE: main:_22 <- %R13
	#DEBUG_VALUE: main:_32 <- %R13
	#DEBUG_VALUE: main:_43 <- %R13
	#DEBUG_VALUE: main:_57 <- %R13
	#DEBUG_VALUE: main:_20 <- %RBX
	#DEBUG_VALUE: main:_27 <- %RBX
	#DEBUG_VALUE: main:_30 <- %RBX
	#DEBUG_VALUE: main:_37 <- %RBX
	#DEBUG_VALUE: main:_41 <- %RBX
	#DEBUG_VALUE: main:_55 <- %RBX
	#DEBUG_VALUE: main:size <- %R12
	.loc	1 506 11                # MatrixMult.c:506:11
	movq	stderr(%rip), %rcx
	.loc	1 506 3 is_stmt 0       # MatrixMult.c:506:3
	movl	$.L.str.7, %edi
	movl	$4, %esi
	movl	$1, %edx
	callq	fwrite
	.loc	1 507 3 is_stmt 1       # MatrixMult.c:507:3
	movl	$-1, %edi
	callq	exit
.Ltmp228:
.LBB8_4:                                # %blklab21.blklab22_crit_edge
	#DEBUG_VALUE: main:_28 <- %RAX
	#DEBUG_VALUE: main:_22 <- %R13
	#DEBUG_VALUE: main:_32 <- %R13
	#DEBUG_VALUE: main:_43 <- %R13
	#DEBUG_VALUE: main:_57 <- %R13
	#DEBUG_VALUE: main:_20 <- %RBX
	#DEBUG_VALUE: main:_27 <- %RBX
	#DEBUG_VALUE: main:_30 <- %RBX
	#DEBUG_VALUE: main:_37 <- %RBX
	#DEBUG_VALUE: main:_41 <- %RBX
	#DEBUG_VALUE: main:_55 <- %RBX
	#DEBUG_VALUE: main:_17 <- %R15
	#DEBUG_VALUE: main:C <- %R15
	#DEBUG_VALUE: main:_16 <- %R14
	#DEBUG_VALUE: main:B <- %R14
	#DEBUG_VALUE: main:size <- %R12
	.loc	1 588 2                 # MatrixMult.c:588:2
	movq	(%r15), %r14
.Ltmp229:
	movq	8(%r15), %r15
.Ltmp230:
.LBB8_6:                                # %blklab22
	#DEBUG_VALUE: main:size <- %R12
	#DEBUG_VALUE: main:_55 <- %RBX
	#DEBUG_VALUE: main:_41 <- %RBX
	#DEBUG_VALUE: main:_37 <- %RBX
	#DEBUG_VALUE: main:_30 <- %RBX
	#DEBUG_VALUE: main:_27 <- %RBX
	#DEBUG_VALUE: main:_20 <- %RBX
	#DEBUG_VALUE: main:_57 <- %R13
	#DEBUG_VALUE: main:_43 <- %R13
	#DEBUG_VALUE: main:_32 <- %R13
	#DEBUG_VALUE: main:_22 <- %R13
	#DEBUG_VALUE: main:_50_size <- 27
	.loc	1 581 2                 # MatrixMult.c:581:2
	movl	$216, %edi
	callq	malloc
.Ltmp231:
	#DEBUG_VALUE: main:_50 <- %RAX
	.loc	1 582 9                 # MatrixMult.c:582:9
	movaps	.LCPI8_3(%rip), %xmm0   # xmm0 = [77,97]
	movups	%xmm0, (%rax)
	.loc	1 582 35 is_stmt 0      # MatrixMult.c:582:35
	movaps	.LCPI8_4(%rip), %xmm0   # xmm0 = [116,114]
	movups	%xmm0, 16(%rax)
	.loc	1 582 63                # MatrixMult.c:582:63
	movaps	.LCPI8_5(%rip), %xmm0   # xmm0 = [105,120]
	movups	%xmm0, 32(%rax)
	.loc	1 582 91                # MatrixMult.c:582:91
	movaps	.LCPI8_6(%rip), %xmm0   # xmm0 = [32,67]
	movups	%xmm0, 48(%rax)
	.loc	1 582 117               # MatrixMult.c:582:117
	movaps	.LCPI8_7(%rip), %xmm0   # xmm0 = [91,115]
	movups	%xmm0, 64(%rax)
	.loc	1 582 145               # MatrixMult.c:582:145
	movaps	.LCPI8_8(%rip), %xmm1   # xmm1 = [105,122]
	movups	%xmm1, 80(%rax)
	.loc	1 582 175               # MatrixMult.c:582:175
	movaps	.LCPI8_9(%rip), %xmm2   # xmm2 = [101,45]
	movups	%xmm2, 96(%rax)
	.loc	1 582 204               # MatrixMult.c:582:204
	movaps	.LCPI8_10(%rip), %xmm3  # xmm3 = [49,93]
	movups	%xmm3, 112(%rax)
	.loc	1 582 232               # MatrixMult.c:582:232
	movups	%xmm0, 128(%rax)
	.loc	1 582 261               # MatrixMult.c:582:261
	movups	%xmm1, 144(%rax)
	.loc	1 582 291               # MatrixMult.c:582:291
	movups	%xmm2, 160(%rax)
	.loc	1 582 320               # MatrixMult.c:582:320
	movups	%xmm3, 176(%rax)
	.loc	1 462 65 is_stmt 1      # MatrixMult.c:462:65
	movaps	.LCPI8_2(%rip), %xmm0   # xmm0 = [32,61]
	.loc	1 582 348               # MatrixMult.c:582:348
	movups	%xmm0, 192(%rax)
	.loc	1 582 376 is_stmt 0     # MatrixMult.c:582:376
	movq	$32, 208(%rax)
	.loc	1 584 2 is_stmt 1       # MatrixMult.c:584:2
	movl	$27, %esi
	movq	%rax, %rdi
	callq	printf_s
.Ltmp232:
	.loc	1 588 2                 # MatrixMult.c:588:2
	movq	%r14, %rdi
	movq	%r15, %rsi
	callq	copy
.Ltmp233:
	#DEBUG_VALUE: main:_53 <- %RAX
	#DEBUG_VALUE: main:_58 <- 1
	#DEBUG_VALUE: main:_54 <- 1
	.loc	1 602 6                 # MatrixMult.c:602:6
	movq	-8(%rax,%r13,8), %rsi
.Ltmp234:
	#DEBUG_VALUE: main:_60 <- %RSI
	.loc	1 604 2                 # MatrixMult.c:604:2
	movl	$.L.str.6, %edi
	xorl	%eax, %eax
.Ltmp235:
	callq	printf
.Ltmp236:
	#DEBUG_VALUE: main:_63_size <- 25
	.loc	1 608 2                 # MatrixMult.c:608:2
	movl	$200, %edi
	callq	malloc
.Ltmp237:
	#DEBUG_VALUE: main:_63 <- %RAX
	.loc	1 609 9                 # MatrixMult.c:609:9
	movaps	.LCPI8_11(%rip), %xmm0  # xmm0 = [80,97]
	movups	%xmm0, (%rax)
	.loc	1 609 35 is_stmt 0      # MatrixMult.c:609:35
	movaps	.LCPI8_12(%rip), %xmm0  # xmm0 = [115,115]
	movups	%xmm0, 16(%rax)
	.loc	1 609 63                # MatrixMult.c:609:63
	movaps	.LCPI8_13(%rip), %xmm0  # xmm0 = [32,77]
	movups	%xmm0, 32(%rax)
	.loc	1 609 89                # MatrixMult.c:609:89
	movaps	.LCPI8_14(%rip), %xmm0  # xmm0 = [97,116]
	movups	%xmm0, 48(%rax)
	.loc	1 609 116               # MatrixMult.c:609:116
	movaps	.LCPI8_15(%rip), %xmm0  # xmm0 = [114,105]
	movups	%xmm0, 64(%rax)
	.loc	1 609 145               # MatrixMult.c:609:145
	movaps	.LCPI8_16(%rip), %xmm0  # xmm0 = [120,77]
	movups	%xmm0, 80(%rax)
	.loc	1 609 174               # MatrixMult.c:609:174
	movaps	.LCPI8_17(%rip), %xmm0  # xmm0 = [117,108]
	movups	%xmm0, 96(%rax)
	.loc	1 609 204               # MatrixMult.c:609:204
	movaps	.LCPI8_18(%rip), %xmm0  # xmm0 = [116,32]
	movups	%xmm0, 112(%rax)
	.loc	1 609 233               # MatrixMult.c:609:233
	movaps	.LCPI8_19(%rip), %xmm0  # xmm0 = [116,101]
	movups	%xmm0, 128(%rax)
	.loc	1 609 263               # MatrixMult.c:609:263
	movaps	.LCPI8_20(%rip), %xmm0  # xmm0 = [115,116]
	movups	%xmm0, 144(%rax)
	.loc	1 609 293               # MatrixMult.c:609:293
	movaps	.LCPI8_21(%rip), %xmm0  # xmm0 = [32,99]
	movups	%xmm0, 160(%rax)
	.loc	1 609 321               # MatrixMult.c:609:321
	movaps	.LCPI8_22(%rip), %xmm0  # xmm0 = [97,115]
	movups	%xmm0, 176(%rax)
	.loc	1 609 350               # MatrixMult.c:609:350
	movq	$101, 192(%rax)
	.loc	1 611 2 is_stmt 1       # MatrixMult.c:611:2
	movl	$25, %esi
	movq	%rax, %rdi
	callq	println_s
.Ltmp238:
.LBB8_7:                                # %blklab19
	.loc	1 615 2                 # MatrixMult.c:615:2
	xorl	%edi, %edi
	callq	exit
.Ltmp239:
.Lfunc_end8:
	.size	main, .Lfunc_end8-main
	.cfi_endproc

	.type	.L.str.1,@object        # @.str.1
	.section	.rodata.str1.1,"aMS",@progbits,1
.L.str.1:
	.asciz	" data:"
	.size	.L.str.1, 7

	.type	.L.str.2,@object        # @.str.2
.L.str.2:
	.asciz	" width:"
	.size	.L.str.2, 8

	.type	.L.str.3,@object        # @.str.3
.L.str.3:
	.asciz	"%lld"
	.size	.L.str.3, 5

	.type	.L.str.4,@object        # @.str.4
.L.str.4:
	.asciz	" height:"
	.size	.L.str.4, 9

	.type	.L.str.6,@object        # @.str.6
.L.str.6:
	.asciz	"%lld\n"
	.size	.L.str.6, 6

	.type	.L.str.7,@object        # @.str.7
.L.str.7:
	.asciz	"fail"
	.size	.L.str.7, 5

	.file	3 "/usr/include/libio.h"
	.file	4 "/usr/include/x86_64-linux-gnu/bits/types.h"
	.file	5 "/home/mw169/polly/llvm_build/bin/../lib/clang/3.9.0/include/stddef.h"
	.file	6 "/usr/include/stdio.h"
	.section	".note.GNU-stack","",@progbits