	.text
	.file	"MatrixMult.openmp.enablevc.ll"
	.globl	init
	.p2align	4, 0x90
	.type	init,@function
init:                                   # @init
.Lfunc_begin0:
	.file	1 "MatrixMult.c"
	.loc	1 12 0                  # MatrixMult.c:12:0
	.cfi_startproc
# BB#0:                                 # %entry
	pushq	%rbp
.Ltmp0:
	.cfi_def_cfa_offset 16
	pushq	%r15
.Ltmp1:
	.cfi_def_cfa_offset 24
	pushq	%r14
.Ltmp2:
	.cfi_def_cfa_offset 32
	pushq	%r13
.Ltmp3:
	.cfi_def_cfa_offset 40
	pushq	%r12
.Ltmp4:
	.cfi_def_cfa_offset 48
	pushq	%rbx
.Ltmp5:
	.cfi_def_cfa_offset 56
	subq	$56, %rsp
.Ltmp6:
	.cfi_def_cfa_offset 112
.Ltmp7:
	.cfi_offset %rbx, -56
.Ltmp8:
	.cfi_offset %r12, -48
.Ltmp9:
	.cfi_offset %r13, -40
.Ltmp10:
	.cfi_offset %r14, -32
.Ltmp11:
	.cfi_offset %r15, -24
.Ltmp12:
	.cfi_offset %rbp, -16
	#DEBUG_VALUE: init:width <- %EDI
	#DEBUG_VALUE: init:height <- %ESI
	movl	%esi, %ebx
.Ltmp13:
	#DEBUG_VALUE: init:height <- %EBX
	movq	%rbx, 8(%rsp)           # 8-byte Spill
.Ltmp14:
	.loc	1 16 48 prologue_end    # MatrixMult.c:16:48
	movq	%rdi, 16(%rsp)          # 8-byte Spill
	movl	%ebx, %eax
	imull	%edi, %eax
.Ltmp15:
	#DEBUG_VALUE: init:width <- [%RSP+16]
	.loc	1 16 42 is_stmt 0       # MatrixMult.c:16:42
	movslq	%eax, %rdi
	.loc	1 16 54                 # MatrixMult.c:16:54
	shlq	$3, %rdi
	.loc	1 16 35 discriminator 1 # MatrixMult.c:16:35
	callq	malloc
.Ltmp16:
	movq	%rax, 24(%rsp)          # 8-byte Spill
.Ltmp17:
	#DEBUG_VALUE: init:i <- 0
	.loc	1 18 5 is_stmt 1 discriminator 1 # MatrixMult.c:18:5
	testl	%ebx, %ebx
.Ltmp18:
	#DEBUG_VALUE: init:height <- [%RSP+8]
	jle	.LBB0_8
.Ltmp19:
# BB#1:                                 # %entry
	#DEBUG_VALUE: init:height <- [%RSP+8]
	movq	16(%rsp), %rax          # 8-byte Reload
	testl	%eax, %eax
	jle	.LBB0_8
.Ltmp20:
# BB#2:                                 # %for.cond3.preheader.us.preheader
	#DEBUG_VALUE: init:height <- [%RSP+8]
	movq	16(%rsp), %rax          # 8-byte Reload
	movslq	%eax, %r15
.Ltmp21:
	.loc	1 20 19                 # MatrixMult.c:20:19
	leaq	(,%r15,8), %r14
	leal	-1(%rax), %eax
	leaq	8(,%rax,8), %r13
	movq	8(%rsp), %rax           # 8-byte Reload
	leal	-1(%rax), %ecx
	movl	%ecx, 36(%rsp)          # 4-byte Spill
	xorl	%ebp, %ebp
	testb	$7, %al
	je	.LBB0_5
.Ltmp22:
# BB#3:                                 # %for.cond3.preheader.us.prol.preheader
	#DEBUG_VALUE: init:height <- [%RSP+8]
	movq	8(%rsp), %r12           # 8-byte Reload
	andl	$7, %r12d
	xorl	%ebp, %ebp
	movq	24(%rsp), %rbx          # 8-byte Reload
.Ltmp23:
	.p2align	4, 0x90
.LBB0_4:                                # %for.cond3.preheader.us.prol
                                        # =>This Inner Loop Header: Depth=1
	.loc	1 20 29 is_stmt 0       # MatrixMult.c:20:29
	xorl	%esi, %esi
	movq	%rbx, %rdi
	movq	%r13, %rdx
	callq	memset
.Ltmp24:
	.loc	1 18 5 is_stmt 1 discriminator 1 # MatrixMult.c:18:5
	incq	%rbp
	addq	%r14, %rbx
	cmpl	%ebp, %r12d
	jne	.LBB0_4
.LBB0_5:                                # %for.cond3.preheader.us.preheader.split
.Ltmp25:
	.loc	1 20 19                 # MatrixMult.c:20:19
	cmpl	$7, 36(%rsp)            # 4-byte Folded Reload
	jb	.LBB0_8
# BB#6:                                 # %for.cond3.preheader.us.preheader.split.split
	movq	8(%rsp), %rax           # 8-byte Reload
	movl	%eax, %r12d
	subl	%ebp, %r12d
	imulq	%r15, %rbp
	movq	24(%rsp), %rax          # 8-byte Reload
	leaq	(%rax,%rbp,8), %rbx
	shlq	$6, %r15
	.p2align	4, 0x90
.LBB0_7:                                # %for.cond3.preheader.us
                                        # =>This Inner Loop Header: Depth=1
	.loc	1 20 29 is_stmt 0       # MatrixMult.c:20:29
	xorl	%esi, %esi
	movq	%rbx, %rdi
	movq	%r13, %rdx
	callq	memset
	leaq	(%rbx,%r14), %rbp
	xorl	%esi, %esi
	movq	%rbp, %rdi
	movq	%r13, %rdx
	callq	memset
	addq	%r14, %rbp
	xorl	%esi, %esi
	movq	%rbp, %rdi
	movq	%r13, %rdx
	callq	memset
	addq	%r14, %rbp
	xorl	%esi, %esi
	movq	%rbp, %rdi
	movq	%r13, %rdx
	callq	memset
	addq	%r14, %rbp
	xorl	%esi, %esi
	movq	%rbp, %rdi
	movq	%r13, %rdx
	callq	memset
	addq	%r14, %rbp
	xorl	%esi, %esi
	movq	%rbp, %rdi
	movq	%r13, %rdx
	callq	memset
	addq	%r14, %rbp
	xorl	%esi, %esi
	movq	%rbp, %rdi
	movq	%r13, %rdx
	callq	memset
	addq	%r14, %rbp
	xorl	%esi, %esi
	movq	%rbp, %rdi
	movq	%r13, %rdx
	callq	memset
.Ltmp26:
	.loc	1 18 5 is_stmt 1 discriminator 1 # MatrixMult.c:18:5
	addq	%r15, %rbx
	addl	$-8, %r12d
	jne	.LBB0_7
.Ltmp27:
.LBB0_8:                                # %polly.parallel.for
	movq	8(%rsp), %rbp           # 8-byte Reload
	movslq	%ebp, %r8
	decq	%r8
	sarq	$5, %r8
	movl	%ebp, 40(%rsp)
	movq	16(%rsp), %r15          # 8-byte Reload
	movl	%r15d, 44(%rsp)
	movq	24(%rsp), %rbx          # 8-byte Reload
	movq	%rbx, 48(%rsp)
	incq	%r8
	leaq	40(%rsp), %r14
	movl	$init_polly_subfn, %edi
	xorl	%edx, %edx
	xorl	%ecx, %ecx
	movl	$1, %r9d
	movq	%r14, %rsi
	callq	GOMP_parallel_loop_runtime_start
	movq	%r14, %rdi
	callq	init_polly_subfn
	callq	GOMP_parallel_end
	.loc	1 30 17 discriminator 1 # MatrixMult.c:30:17
	movl	$16, %edi
	callq	malloc
.Ltmp28:
	#DEBUG_VALUE: init:m <- %RAX
	.loc	1 31 13                 # MatrixMult.c:31:13
	movq	%rbx, (%rax)
	.loc	1 32 14                 # MatrixMult.c:32:14
	movl	%r15d, 8(%rax)
	.loc	1 33 15                 # MatrixMult.c:33:15
	movl	%ebp, 12(%rax)
	.loc	1 35 5                  # MatrixMult.c:35:5
	addq	$56, %rsp
	popq	%rbx
	popq	%r12
	popq	%r13
	popq	%r14
	popq	%r15
	popq	%rbp
	retq
.Ltmp29:
.Lfunc_end0:
	.size	init, .Lfunc_end0-init
	.cfi_endproc

	.globl	matmult
	.p2align	4, 0x90
	.type	matmult,@function
matmult:                                # @matmult
.Lfunc_begin1:
	.loc	1 38 0                  # MatrixMult.c:38:0
	.cfi_startproc
# BB#0:                                 # %entry
	.loc	1 40 20 prologue_end    # MatrixMult.c:40:20
	pushq	%rbp
.Ltmp30:
	.cfi_def_cfa_offset 16
	pushq	%r15
.Ltmp31:
	.cfi_def_cfa_offset 24
	pushq	%r14
.Ltmp32:
	.cfi_def_cfa_offset 32
	pushq	%r13
.Ltmp33:
	.cfi_def_cfa_offset 40
	pushq	%r12
.Ltmp34:
	.cfi_def_cfa_offset 48
	pushq	%rbx
.Ltmp35:
	.cfi_def_cfa_offset 56
	subq	$184, %rsp
.Ltmp36:
	.cfi_def_cfa_offset 240
.Ltmp37:
	.cfi_offset %rbx, -56
.Ltmp38:
	.cfi_offset %r12, -48
.Ltmp39:
	.cfi_offset %r13, -40
.Ltmp40:
	.cfi_offset %r14, -32
.Ltmp41:
	.cfi_offset %r15, -24
.Ltmp42:
	.cfi_offset %rbp, -16
	#DEBUG_VALUE: matmult:a <- %RDI
	#DEBUG_VALUE: matmult:b <- %RSI
	movl	8(%rsi), %ebx
.Ltmp43:
	#DEBUG_VALUE: matmult:width <- %EBX
	.loc	1 51 2 discriminator 1  # MatrixMult.c:51:2
	movslq	12(%rdi), %rbp
.Ltmp44:
	.loc	1 42 28                 # MatrixMult.c:42:28
	movq	(%rdi), %rax
.Ltmp45:
	#DEBUG_VALUE: matmult:a_data <- [%RSP+88]
	.loc	1 43 28                 # MatrixMult.c:43:28
	movq	%rax, 88(%rsp)          # 8-byte Spill
	movq	(%rsi), %r12
.Ltmp46:
	#DEBUG_VALUE: matmult:b_data <- %R12
	.loc	1 46 45                 # MatrixMult.c:46:45
	movl	%ebp, %eax
	imull	%ebx, %eax
	.loc	1 46 39 is_stmt 0       # MatrixMult.c:46:39
	movslq	%eax, %r14
	.loc	1 46 51                 # MatrixMult.c:46:51
	shlq	$3, %r14
	.loc	1 46 32 discriminator 1 # MatrixMult.c:46:32
	movq	%r14, %rdi
.Ltmp47:
	callq	malloc
.Ltmp48:
	movq	%rax, %r13
	.loc	1 48 22 is_stmt 1 discriminator 1 # MatrixMult.c:48:22
	movq	%r14, %rdi
	callq	malloc
	.loc	1 41 21                 # MatrixMult.c:41:21
	testq	%rbp, %rbp
.Ltmp49:
	#DEBUG_VALUE: matmult:j <- 0
	.loc	1 51 2 discriminator 1  # MatrixMult.c:51:2
	movslq	%ebx, %r15
	jle	.LBB1_1
.Ltmp50:
# BB#2:                                 # %for.cond11.preheader.lr.ph
	#DEBUG_VALUE: matmult:b_data <- %R12
	#DEBUG_VALUE: matmult:width <- %EBX
	leaq	-1(%r15), %r14
	imulq	%r15, %r14
	addq	%rbp, %r14
	leaq	(%r12,%r14,8), %rcx
	cmpq	%rax, %rcx
	setbe	%dl
	leaq	-1(%rbp), %r8
	movq	%r8, %rcx
	imulq	%rbp, %rcx
	addq	%r15, %rcx
	leaq	(%rax,%rcx,8), %rcx
	cmpq	%r12, %rcx
	setbe	%cl
	cmpl	%r15d, %ebp
	movq	%r12, %rsi
	jne	.LBB1_4
.Ltmp51:
# BB#3:                                 # %for.cond11.preheader.lr.ph
	#DEBUG_VALUE: matmult:width <- %EBX
	#DEBUG_VALUE: matmult:b_data <- %R12
	orb	%cl, %dl
	je	.LBB1_4
.Ltmp52:
# BB#40:                                # %polly.parallel.for191
	#DEBUG_VALUE: matmult:b_data <- %R12
	#DEBUG_VALUE: matmult:width <- %EBX
	sarq	$5, %r8
	movl	%ebx, 48(%rsp)
	movl	%ebx, 52(%rsp)
	movq	%rsi, 56(%rsp)
	movq	%rax, 64(%rsp)
	movq	%rax, 16(%rsp)          # 8-byte Spill
	incq	%r8
	leaq	48(%rsp), %r12
.Ltmp53:
	movl	$matmult_polly_subfn_5, %edi
	xorl	%edx, %edx
	xorl	%ecx, %ecx
	movl	$1, %r9d
	movq	%r12, %rsi
	callq	GOMP_parallel_loop_runtime_start
	movq	%r12, %rdi
	callq	matmult_polly_subfn_5
	callq	GOMP_parallel_end
	jmp	.LBB1_25
.Ltmp54:
.LBB1_1:                                # %entry.polly.split_new_and_old_crit_edge
	#DEBUG_VALUE: matmult:b_data <- %R12
	#DEBUG_VALUE: matmult:width <- %EBX
	movq	%rax, 16(%rsp)          # 8-byte Spill
	leaq	-1(%r15), %r14
	imulq	%r15, %r14
	addq	%rbp, %r14
	jmp	.LBB1_25
.Ltmp55:
.LBB1_4:                                # %for.cond11.preheader.preheader
	#DEBUG_VALUE: matmult:width <- %EBX
	#DEBUG_VALUE: matmult:b_data <- %R12
	.loc	1 53 3 discriminator 1  # MatrixMult.c:53:3
	testl	%ebx, %ebx
	jle	.LBB1_5
.Ltmp56:
# BB#6:                                 # %for.cond11.preheader.us.preheader
	#DEBUG_VALUE: matmult:b_data <- %R12
	#DEBUG_VALUE: matmult:width <- %EBX
	movq	%r14, 120(%rsp)         # 8-byte Spill
.Ltmp57:
	.loc	1 54 9                  # MatrixMult.c:54:9
	leal	-1(%rbx), %ecx
	movq	%rcx, 176(%rsp)         # 8-byte Spill
	leaq	1(%rcx), %rdx
	movq	%rdx, 104(%rsp)         # 8-byte Spill
	leaq	(,%rbp,8), %rdi
	movq	%rbp, 24(%rsp)          # 8-byte Spill
	movq	%rdi, 168(%rsp)         # 8-byte Spill
	leaq	(,%rcx,8), %rcx
	.loc	1 54 30 is_stmt 0       # MatrixMult.c:54:30
	movq	%rcx, 160(%rsp)         # 8-byte Spill
	movabsq	$8589934588, %rdi       # imm = 0x1FFFFFFFC
	andq	%rdx, %rdi
	movq	%rdi, 80(%rsp)          # 8-byte Spill
	setne	%r8b
	.loc	1 54 9                  # MatrixMult.c:54:9
	leaq	-4(%rdi), %rdx
	shrq	$2, %rdx
	.loc	1 54 30                 # MatrixMult.c:54:30
	movq	%rdx, 152(%rsp)         # 8-byte Spill
	leal	1(%rbx), %edi
	movl	%edi, 44(%rsp)          # 4-byte Spill
	cmpl	$1, %ebx
	sete	%cl
	andb	%r8b, %cl
	movb	%cl, 15(%rsp)           # 1-byte Spill
	.loc	1 54 22                 # MatrixMult.c:54:22
	andl	$1, %edx
	movq	%rdx, 144(%rsp)         # 8-byte Spill
	.loc	1 54 9                  # MatrixMult.c:54:9
	leaq	16(%rax), %rcx
	movq	%rcx, 136(%rsp)         # 8-byte Spill
	movq	%rax, 16(%rsp)          # 8-byte Spill
	leaq	16(%rsi), %rax
	movq	%rax, 128(%rsp)         # 8-byte Spill
	movq	%rsi, %r14
	leaq	(,%r15,8), %r8
	movq	%r15, %r11
	shlq	$5, %r11
	movl	$4, %eax
	movq	%rax, 96(%rsp)          # 8-byte Spill
	xorl	%eax, %eax
	movq	%rax, 112(%rsp)         # 8-byte Spill
	xorl	%eax, %eax
	movq	%rax, 32(%rsp)          # 8-byte Spill
	xorl	%r12d, %r12d
.Ltmp58:
	.p2align	4, 0x90
.LBB1_7:                                # %for.cond11.preheader.us
                                        # =>This Loop Header: Depth=1
                                        #     Child Loop BB1_15 Depth 2
                                        #     Child Loop BB1_19 Depth 2
                                        #     Child Loop BB1_22 Depth 2
	cmpq	$4, 104(%rsp)           # 8-byte Folded Reload
	movl	$0, %edx
	jb	.LBB1_17
# BB#8:                                 # %min.iters.checked
                                        #   in Loop: Header=BB1_7 Depth=1
	.loc	1 54 30                 # MatrixMult.c:54:30
	cmpb	$0, 15(%rsp)            # 1-byte Folded Reload
	movl	$0, %edx
	je	.LBB1_17
# BB#9:                                 # %vector.memcheck
                                        #   in Loop: Header=BB1_7 Depth=1
	.loc	1 54 9                  # MatrixMult.c:54:9
	movq	168(%rsp), %rax         # 8-byte Reload
	imulq	%r12, %rax
	movq	16(%rsp), %rcx          # 8-byte Reload
	leaq	(%rcx,%rax), %rcx
	movq	176(%rsp), %rdx         # 8-byte Reload
	leaq	(%rdx,%r12), %rdx
	leaq	(%r14,%rdx,8), %rdx
	.loc	1 54 30                 # MatrixMult.c:54:30
	cmpq	%rdx, %rcx
	ja	.LBB1_11
# BB#10:                                # %vector.memcheck
                                        #   in Loop: Header=BB1_7 Depth=1
	.loc	1 54 9                  # MatrixMult.c:54:9
	addq	160(%rsp), %rax         # 8-byte Folded Reload
	addq	16(%rsp), %rax          # 8-byte Folded Reload
	leaq	(%r14,%r12,8), %rcx
	cmpq	%rax, %rcx
	movl	$0, %edx
	jbe	.LBB1_17
.LBB1_11:                               # %vector.body.preheader
                                        #   in Loop: Header=BB1_7 Depth=1
	.loc	1 54 22                 # MatrixMult.c:54:22
	cmpq	$0, 144(%rsp)           # 8-byte Folded Reload
	movl	$0, %eax
	jne	.LBB1_13
# BB#12:                                # %vector.body.prol
                                        #   in Loop: Header=BB1_7 Depth=1
	.loc	1 54 9                  # MatrixMult.c:54:9
	movq	%r12, %rax
	imulq	24(%rsp), %rax          # 8-byte Folded Reload
	.loc	1 54 22                 # MatrixMult.c:54:22
	movups	(%r14,%r12,8), %xmm0
	movups	16(%r14,%r12,8), %xmm1
	movq	16(%rsp), %rcx          # 8-byte Reload
	.loc	1 54 20                 # MatrixMult.c:54:20
	movups	%xmm0, (%rcx,%rax,8)
	movups	%xmm1, 16(%rcx,%rax,8)
	movl	$4, %eax
.LBB1_13:                               # %vector.body.preheader.split
                                        #   in Loop: Header=BB1_7 Depth=1
	cmpq	$0, 152(%rsp)           # 8-byte Folded Reload
	je	.LBB1_16
# BB#14:                                # %vector.body.preheader.split.split
                                        #   in Loop: Header=BB1_7 Depth=1
	.loc	1 54 22                 # MatrixMult.c:54:22
	movq	80(%rsp), %rcx          # 8-byte Reload
	subq	%rax, %rcx
	movq	32(%rsp), %rdx          # 8-byte Reload
	leaq	(%rax,%rdx), %rdx
	movq	136(%rsp), %rsi         # 8-byte Reload
	leaq	(%rsi,%rdx,8), %rdx
	addq	96(%rsp), %rax          # 8-byte Folded Reload
	movq	128(%rsp), %rsi         # 8-byte Reload
	leaq	(%rsi,%rax,8), %rax
	.p2align	4, 0x90
.LBB1_15:                               # %vector.body
                                        #   Parent Loop BB1_7 Depth=1
                                        # =>  This Inner Loop Header: Depth=2
	movups	-48(%rax), %xmm0
	movups	-32(%rax), %xmm1
	.loc	1 54 20                 # MatrixMult.c:54:20
	movups	%xmm0, -16(%rdx)
	movups	%xmm1, (%rdx)
	.loc	1 54 22                 # MatrixMult.c:54:22
	movups	-16(%rax), %xmm0
	movups	(%rax), %xmm1
	.loc	1 54 20                 # MatrixMult.c:54:20
	movups	%xmm0, 16(%rdx)
	movups	%xmm1, 32(%rdx)
	.loc	1 54 30                 # MatrixMult.c:54:30
	addq	$64, %rdx
	addq	$64, %rax
	addq	$-8, %rcx
	jne	.LBB1_15
.LBB1_16:                               # %middle.block
                                        #   in Loop: Header=BB1_7 Depth=1
	movq	80(%rsp), %rdx          # 8-byte Reload
	cmpq	%rdx, 104(%rsp)         # 8-byte Folded Reload
	je	.LBB1_23
	.p2align	4, 0x90
.LBB1_17:                               # %for.body14.us.preheader
                                        #   in Loop: Header=BB1_7 Depth=1
	movl	%edx, %eax
	orl	$1, %eax
	movl	44(%rsp), %ecx          # 4-byte Reload
	subl	%eax, %ecx
	movl	%ebx, %esi
	subl	%eax, %esi
	andl	$3, %ecx
	je	.LBB1_20
# BB#18:                                # %for.body14.us.prol.preheader
                                        #   in Loop: Header=BB1_7 Depth=1
	movq	32(%rsp), %rax          # 8-byte Reload
	leaq	(%rdx,%rax), %rax
	movq	16(%rsp), %rdi          # 8-byte Reload
	leaq	(%rdi,%rax,8), %rbp
	movq	%r15, %rax
	imulq	%rdx, %rax
	addq	%r12, %rax
	leaq	(%r14,%rax,8), %rax
	negl	%ecx
	.p2align	4, 0x90
.LBB1_19:                               # %for.body14.us.prol
                                        #   Parent Loop BB1_7 Depth=1
                                        # =>  This Inner Loop Header: Depth=2
	.loc	1 54 22                 # MatrixMult.c:54:22
	movq	(%rax), %rdi
	.loc	1 54 20                 # MatrixMult.c:54:20
	movq	%rdi, (%rbp)
.Ltmp59:
	.loc	1 53 3 is_stmt 1 discriminator 1 # MatrixMult.c:53:3
	incq	%rdx
	addq	$8, %rbp
	addq	%r8, %rax
	incl	%ecx
	jne	.LBB1_19
.LBB1_20:                               # %for.body14.us.preheader.split
                                        #   in Loop: Header=BB1_7 Depth=1
.Ltmp60:
	.loc	1 54 30                 # MatrixMult.c:54:30
	cmpl	$3, %esi
	jb	.LBB1_23
# BB#21:                                # %for.body14.us.preheader.split.split
                                        #   in Loop: Header=BB1_7 Depth=1
	movl	%ebx, %esi
	subl	%edx, %esi
	movq	32(%rsp), %rax          # 8-byte Reload
	leaq	(%rdx,%rax), %rax
	movq	16(%rsp), %rcx          # 8-byte Reload
	leaq	(%rcx,%rax,8), %rcx
	leaq	3(%rdx), %rax
	imulq	%r15, %rax
	leaq	(%r14,%rax,8), %rbp
	leaq	2(%rdx), %rax
	imulq	%r15, %rax
	leaq	(%r14,%rax,8), %r9
	leaq	1(%rdx), %rax
	imulq	%r15, %rax
	leaq	(%r14,%rax,8), %r10
	imulq	%r15, %rdx
	leaq	(%r14,%rdx,8), %rax
	movq	112(%rsp), %rdx         # 8-byte Reload
	.p2align	4, 0x90
.LBB1_22:                               # %for.body14.us
                                        #   Parent Loop BB1_7 Depth=1
                                        # =>  This Inner Loop Header: Depth=2
	.loc	1 54 22 is_stmt 0       # MatrixMult.c:54:22
	movq	(%rax,%rdx), %rdi
	.loc	1 54 20                 # MatrixMult.c:54:20
	movq	%rdi, (%rcx)
	.loc	1 54 22                 # MatrixMult.c:54:22
	movq	(%r10,%rdx), %rdi
	.loc	1 54 20                 # MatrixMult.c:54:20
	movq	%rdi, 8(%rcx)
	.loc	1 54 22                 # MatrixMult.c:54:22
	movq	(%r9,%rdx), %rdi
	.loc	1 54 20                 # MatrixMult.c:54:20
	movq	%rdi, 16(%rcx)
	.loc	1 54 22                 # MatrixMult.c:54:22
	movq	(%rbp,%rdx), %rdi
	.loc	1 54 20                 # MatrixMult.c:54:20
	movq	%rdi, 24(%rcx)
.Ltmp61:
	.loc	1 53 3 is_stmt 1 discriminator 1 # MatrixMult.c:53:3
	addq	$32, %rcx
	addq	%r11, %rdx
	addl	$-4, %esi
	jne	.LBB1_22
.Ltmp62:
.LBB1_23:                               # %for.inc20.loopexit.us
                                        #   in Loop: Header=BB1_7 Depth=1
	.loc	1 51 2 discriminator 1  # MatrixMult.c:51:2
	incq	%r12
	movq	24(%rsp), %rax          # 8-byte Reload
	addq	%rax, 32(%rsp)          # 8-byte Folded Spill
	incq	96(%rsp)                # 8-byte Folded Spill
	addq	$8, 112(%rsp)           # 8-byte Folded Spill
	cmpl	%eax, %r12d
	jne	.LBB1_7
.Ltmp63:
# BB#24:
	movq	120(%rsp), %r14         # 8-byte Reload
	movq	24(%rsp), %rbp          # 8-byte Reload
	jmp	.LBB1_25
.LBB1_5:
.Ltmp64:
	#DEBUG_VALUE: matmult:b_data <- %R12
	#DEBUG_VALUE: matmult:width <- %EBX
	movq	%rax, 16(%rsp)          # 8-byte Spill
.Ltmp65:
.LBB1_25:                               # %polly.split_new_and_old
	movq	%rbp, 24(%rsp)          # 8-byte Spill
	movq	%r15, %rax
	imulq	%rax, %rax
	movq	88(%rsp), %rdx          # 8-byte Reload
	leaq	(%rdx,%rax,8), %rax
	cmpq	%r13, %rax
	setbe	%al
	leaq	(%r13,%r14,8), %rcx
	cmpq	%rdx, %rcx
	movq	%rdx, %r14
	setbe	%cl
	cmpl	%ebp, %ebx
	jl	.LBB1_27
# BB#26:                                # %polly.split_new_and_old
	orb	%cl, %al
	je	.LBB1_27
# BB#39:                                # %polly.parallel.for
	movq	%rbp, %r15
	decq	%r15
	sarq	$5, %r15
	movl	%ebp, 48(%rsp)
	movl	%ebx, 52(%rsp)
	movq	%r13, 56(%rsp)
	incq	%r15
	leaq	48(%rsp), %r12
	movl	$matmult_polly_subfn, %edi
	xorl	%edx, %edx
	xorl	%ecx, %ecx
	movl	$1, %r9d
	movq	%r12, %rsi
	movq	%r15, %r8
	callq	GOMP_parallel_loop_runtime_start
	movq	%r12, %rdi
	callq	matmult_polly_subfn
	callq	GOMP_parallel_end
	movl	%ebp, 48(%rsp)
	movl	%ebx, 52(%rsp)
	movq	%r13, 56(%rsp)
	movq	%r14, 64(%rsp)
	movq	16(%rsp), %rax          # 8-byte Reload
	movq	%rax, 72(%rsp)
	leaq	48(%rsp), %r14
	movl	$matmult_polly_subfn_4, %edi
	xorl	%edx, %edx
	xorl	%ecx, %ecx
	movl	$1, %r9d
	movq	%r14, %rsi
	movq	%r15, %r8
	callq	GOMP_parallel_loop_runtime_start
	movq	%r14, %rdi
	callq	matmult_polly_subfn_4
	callq	GOMP_parallel_end
	jmp	.LBB1_38
.LBB1_27:                               # %for.cond23.preheader
.Ltmp66:
	.loc	1 57 2 discriminator 1  # MatrixMult.c:57:2
	testl	%ebp, %ebp
	jle	.LBB1_38
# BB#28:                                # %for.cond23.preheader
	testl	%ebx, %ebx
	jle	.LBB1_38
# BB#29:                                # %for.cond27.preheader.us.preheader
.Ltmp67:
	.loc	1 62 23                 # MatrixMult.c:62:23
	movl	%ebx, %r8d
	andl	$1, %r8d
	xorl	%r9d, %r9d
.Ltmp68:
	.p2align	4, 0x90
.LBB1_30:                               # %for.cond27.preheader.us
                                        # =>This Loop Header: Depth=1
                                        #     Child Loop BB1_31 Depth 2
                                        #       Child Loop BB1_35 Depth 3
	movl	$1, %r10d
	xorl	%r11d, %r11d
	xorl	%edi, %edi
	.p2align	4, 0x90
.LBB1_31:                               # %for.body30.us.us
                                        #   Parent Loop BB1_30 Depth=1
                                        # =>  This Loop Header: Depth=2
                                        #       Child Loop BB1_35 Depth 3
	.loc	1 60 10                 # MatrixMult.c:60:10
	movq	%rdi, %rcx
	imulq	%r15, %rcx
	.loc	1 60 16 is_stmt 0       # MatrixMult.c:60:16
	leaq	(%rcx,%r9), %rbp
	testl	%r8d, %r8d
	.loc	1 60 20                 # MatrixMult.c:60:20
	movq	$0, (%r13,%rbp,8)
.Ltmp69:
	#DEBUG_VALUE: matmult:k <- 0
	movl	$0, %eax
	movl	$0, %esi
	je	.LBB1_33
# BB#32:                                # %for.body38.us.us.prol
                                        #   in Loop: Header=BB1_31 Depth=2
.Ltmp70:
	.loc	1 62 59 is_stmt 1       # MatrixMult.c:62:59
	movq	16(%rsp), %rax          # 8-byte Reload
	movq	(%rax,%rcx,8), %rax
	.loc	1 62 58 is_stmt 0       # MatrixMult.c:62:58
	imulq	(%r14,%rcx,8), %rax
	.loc	1 62 21                 # MatrixMult.c:62:21
	movq	%rax, (%r13,%rbp,8)
	movl	$1, %esi
.LBB1_33:                               # %for.body30.us.us.split
                                        #   in Loop: Header=BB1_31 Depth=2
	cmpl	$1, %ebx
	je	.LBB1_36
# BB#34:                                # %for.body30.us.us.split.split
                                        #   in Loop: Header=BB1_31 Depth=2
	.loc	1 62 23                 # MatrixMult.c:62:23
	movl	%ebx, %ecx
	subl	%esi, %ecx
	leaq	(%rsi,%r11), %rdx
	movq	%rbx, %r12
	movq	16(%rsp), %rbx          # 8-byte Reload
	leaq	(%rbx,%rdx,8), %rdx
	movq	%r12, %rbx
	addq	%r10, %rsi
	leaq	(%r14,%rsi,8), %rsi
	.p2align	4, 0x90
.LBB1_35:                               # %for.body38.us.us
                                        #   Parent Loop BB1_30 Depth=1
                                        #     Parent Loop BB1_31 Depth=2
                                        # =>    This Inner Loop Header: Depth=3
	.loc	1 62 59                 # MatrixMult.c:62:59
	movq	(%rdx), %r12
	.loc	1 62 58                 # MatrixMult.c:62:58
	imulq	-8(%rsi), %r12
	.loc	1 62 39                 # MatrixMult.c:62:39
	addq	%rax, %r12
	.loc	1 62 21                 # MatrixMult.c:62:21
	movq	%r12, (%r13,%rbp,8)
	.loc	1 62 59                 # MatrixMult.c:62:59
	movq	8(%rdx), %rax
	.loc	1 62 58                 # MatrixMult.c:62:58
	imulq	(%rsi), %rax
	.loc	1 62 39                 # MatrixMult.c:62:39
	addq	%r12, %rax
	.loc	1 62 21                 # MatrixMult.c:62:21
	movq	%rax, (%r13,%rbp,8)
.Ltmp71:
	.loc	1 61 4 is_stmt 1 discriminator 1 # MatrixMult.c:61:4
	addq	$16, %rdx
	addq	$16, %rsi
	addl	$-2, %ecx
	jne	.LBB1_35
.Ltmp72:
.LBB1_36:                               # %for.inc60.loopexit.us.us
                                        #   in Loop: Header=BB1_31 Depth=2
	.loc	1 59 3 discriminator 1  # MatrixMult.c:59:3
	incq	%rdi
	addq	%r15, %r11
	addq	%r15, %r10
	cmpl	%ebx, %edi
	jne	.LBB1_31
.Ltmp73:
# BB#37:                                # %for.inc63.loopexit.us-lcssa.us.us
                                        #   in Loop: Header=BB1_30 Depth=1
	.loc	1 57 2 discriminator 1  # MatrixMult.c:57:2
	incq	%r9
	movq	24(%rsp), %rbp          # 8-byte Reload
	cmpl	%ebp, %r9d
	jne	.LBB1_30
.Ltmp74:
.LBB1_38:                               # %for.end65
	.loc	1 68 17 discriminator 1 # MatrixMult.c:68:17
	movl	$16, %edi
	callq	malloc
.Ltmp75:
	#DEBUG_VALUE: matmult:m <- %RAX
	.loc	1 69 14                 # MatrixMult.c:69:14
	movl	%ebx, 8(%rax)
	.loc	1 70 15                 # MatrixMult.c:70:15
	movl	%ebp, 12(%rax)
	.loc	1 71 13                 # MatrixMult.c:71:13
	movq	%r13, (%rax)
	.loc	1 72 5                  # MatrixMult.c:72:5
	addq	$184, %rsp
	popq	%rbx
	popq	%r12
	popq	%r13
	popq	%r14
	popq	%r15
	popq	%rbp
	retq
.Ltmp76:
.Lfunc_end1:
	.size	matmult, .Lfunc_end1-matmult
	.cfi_endproc

	.globl	main
	.p2align	4, 0x90
	.type	main,@function
main:                                   # @main
.Lfunc_begin2:
	.loc	1 75 0                  # MatrixMult.c:75:0
	.cfi_startproc
# BB#0:                                 # %entry
	.loc	1 78 12 prologue_end    # MatrixMult.c:78:12
	pushq	%r15
.Ltmp77:
	.cfi_def_cfa_offset 16
	pushq	%r14
.Ltmp78:
	.cfi_def_cfa_offset 24
	pushq	%rbx
.Ltmp79:
	.cfi_def_cfa_offset 32
	subq	$64, %rsp
.Ltmp80:
	.cfi_def_cfa_offset 96
.Ltmp81:
	.cfi_offset %rbx, -32
.Ltmp82:
	.cfi_offset %r14, -24
.Ltmp83:
	.cfi_offset %r15, -16
	#DEBUG_VALUE: main:argc <- %EDI
	#DEBUG_VALUE: main:args <- %RSI
	movq	8(%rsi), %rdi
.Ltmp84:
	leaq	60(%rsp), %rdx
.Ltmp85:
	#DEBUG_VALUE: main:max <- [%RDX+0]
	.loc	1 78 5 is_stmt 0        # MatrixMult.c:78:5
	movl	$.L.str, %esi
.Ltmp86:
	xorl	%eax, %eax
	callq	__isoc99_sscanf
.Ltmp87:
	.loc	1 79 24 is_stmt 1       # MatrixMult.c:79:24
	movl	60(%rsp), %esi
.Ltmp88:
	#DEBUG_VALUE: main:max <- %ESI
	.loc	1 79 5 is_stmt 0        # MatrixMult.c:79:5
	movl	$.L.str.1, %edi
	xorl	%eax, %eax
	callq	printf
.Ltmp89:
	.loc	1 81 22 is_stmt 1       # MatrixMult.c:81:22
	movl	60(%rsp), %edi
.Ltmp90:
	#DEBUG_VALUE: main:max <- %EDI
	.loc	1 81 17 is_stmt 0 discriminator 1 # MatrixMult.c:81:17
	movl	%edi, %esi
	callq	init
.Ltmp91:
	movq	%rax, %r14
.Ltmp92:
	#DEBUG_VALUE: main:a <- %R14
	.loc	1 82 22 is_stmt 1       # MatrixMult.c:82:22
	movl	60(%rsp), %edi
.Ltmp93:
	#DEBUG_VALUE: main:max <- %EDI
	.loc	1 82 17 is_stmt 0 discriminator 1 # MatrixMult.c:82:17
	movl	%edi, %esi
	callq	init
.Ltmp94:
	movq	%rax, %rbx
.Ltmp95:
	#DEBUG_VALUE: main:b <- %RBX
	.loc	1 84 17 is_stmt 1 discriminator 1 # MatrixMult.c:84:17
	movq	%r14, %rdi
	movq	%rbx, %rsi
	callq	matmult
	movq	%rax, %r15
.Ltmp96:
	#DEBUG_VALUE: main:c <- %R15
	.loc	1 89 48                 # MatrixMult.c:89:48
	movl	60(%rsp), %esi
.Ltmp97:
	#DEBUG_VALUE: main:max <- %ESI
	.loc	1 89 5 is_stmt 0        # MatrixMult.c:89:5
	movl	$.L.str.2, %edi
	xorl	%eax, %eax
	movl	%esi, %edx
	callq	printf
.Ltmp98:
	.loc	1 91 9 is_stmt 1        # MatrixMult.c:91:9
	movl	60(%rsp), %edx
.Ltmp99:
	#DEBUG_VALUE: main:max <- %EDX
	.loc	1 91 12 is_stmt 0       # MatrixMult.c:91:12
	leal	-1(%rdx), %esi
	.loc	1 91 47                 # MatrixMult.c:91:47
	movl	%edx, %eax
	imull	%eax, %eax
	.loc	1 91 28                 # MatrixMult.c:91:28
	cltq
	.loc	1 91 31                 # MatrixMult.c:91:31
	movq	(%r14), %rcx
	.loc	1 91 28                 # MatrixMult.c:91:28
	movq	-8(%rcx,%rax,8), %r8
	.loc	1 92 31 is_stmt 1       # MatrixMult.c:92:31
	movq	(%rbx), %rcx
	.loc	1 92 28 is_stmt 0       # MatrixMult.c:92:28
	movq	-8(%rcx,%rax,8), %rcx
	.loc	1 93 31 is_stmt 1       # MatrixMult.c:93:31
	movq	(%r15), %rdi
	.loc	1 93 28 is_stmt 0       # MatrixMult.c:93:28
	movq	-8(%rdi,%rax,8), %rax
	.loc	1 90 5 is_stmt 1        # MatrixMult.c:90:5
	movq	%rax, 48(%rsp)
	movl	%esi, 40(%rsp)
	movl	%edx, 32(%rsp)
	movl	%esi, 24(%rsp)
	movq	%rcx, 16(%rsp)
	movl	%esi, 8(%rsp)
	movl	%edx, (%rsp)
	movl	$.L.str.3, %edi
	xorl	%eax, %eax
	movl	%esi, %ecx
	movl	%esi, %r9d
	callq	printf
.Ltmp100:
	.loc	1 95 5                  # MatrixMult.c:95:5
	xorl	%eax, %eax
	addq	$64, %rsp
	popq	%rbx
.Ltmp101:
	popq	%r14
.Ltmp102:
	popq	%r15
.Ltmp103:
	retq
.Ltmp104:
.Lfunc_end2:
	.size	main, .Lfunc_end2-main
	.cfi_endproc

	.p2align	4, 0x90
	.type	init_polly_subfn,@function
init_polly_subfn:                       # @init_polly_subfn
.Lfunc_begin3:
	.cfi_startproc
# BB#0:                                 # %polly.par.setup
	pushq	%rbp
.Ltmp105:
	.cfi_def_cfa_offset 16
	pushq	%r15
.Ltmp106:
	.cfi_def_cfa_offset 24
	pushq	%r14
.Ltmp107:
	.cfi_def_cfa_offset 32
	pushq	%r13
.Ltmp108:
	.cfi_def_cfa_offset 40
	pushq	%r12
.Ltmp109:
	.cfi_def_cfa_offset 48
	pushq	%rbx
.Ltmp110:
	.cfi_def_cfa_offset 56
	subq	$136, %rsp
.Ltmp111:
	.cfi_def_cfa_offset 192
.Ltmp112:
	.cfi_offset %rbx, -56
.Ltmp113:
	.cfi_offset %r12, -48
.Ltmp114:
	.cfi_offset %r13, -40
.Ltmp115:
	.cfi_offset %r14, -32
.Ltmp116:
	.cfi_offset %r15, -24
.Ltmp117:
	.cfi_offset %rbp, -16
	movslq	(%rdi), %rax
	movq	%rax, 96(%rsp)          # 8-byte Spill
	movl	4(%rdi), %ebx
	movq	8(%rdi), %rbp
	leaq	72(%rsp), %rdi
	leaq	64(%rsp), %rsi
	callq	GOMP_loop_runtime_next
	testb	%al, %al
	je	.LBB3_2
# BB#1:                                 # %polly.par.loadIVBounds.lr.ph
	movslq	%ebx, %rcx
	movq	%rcx, 120(%rsp)         # 8-byte Spill
	andl	$3, %ebx
	leaq	-1(%rcx), %rax
	sarq	$5, %rax
	movq	%rax, 40(%rsp)          # 8-byte Spill
	movq	%rcx, %rax
	shrq	$2, %rax
	decq	%rax
	movq	%rax, 112(%rsp)         # 8-byte Spill
	leaq	-1(%rbx), %rax
	movq	%rax, 56(%rsp)          # 8-byte Spill
	leaq	(,%rbx,8), %rax
	movq	%rbp, %rdx
	subq	%rax, %rdx
	movq	%rdx, 80(%rsp)          # 8-byte Spill
	leaq	(,%rcx,8), %r12
	shlq	$8, %rcx
	movq	%rcx, 24(%rsp)          # 8-byte Spill
	addq	$16, %rbp
	movq	%rbp, 88(%rsp)          # 8-byte Spill
	.p2align	4, 0x90
.LBB3_4:                                # %polly.par.loadIVBounds
                                        # =>This Loop Header: Depth=1
                                        #     Child Loop BB3_5 Depth 2
                                        #       Child Loop BB3_7 Depth 3
                                        #         Child Loop BB3_21 Depth 4
                                        #           Child Loop BB3_22 Depth 5
                                        #           Child Loop BB3_25 Depth 5
                                        #         Child Loop BB3_10 Depth 4
                                        #           Child Loop BB3_11 Depth 5
                                        #           Child Loop BB3_14 Depth 5
                                        #           Child Loop BB3_16 Depth 5
	movq	64(%rsp), %rax
	movq	72(%rsp), %rcx
	movq	%rcx, 8(%rsp)           # 8-byte Spill
	addq	$-2, %rax
	movq	%rax, 104(%rsp)         # 8-byte Spill
	movq	%rcx, %rax
	shlq	$5, %rax
	orq	$1, %rax
	imulq	%r12, %rax
	addq	80(%rsp), %rax          # 8-byte Folded Reload
	movq	%rax, 16(%rsp)          # 8-byte Spill
	movq	24(%rsp), %rax          # 8-byte Reload
	imulq	%rcx, %rax
	addq	88(%rsp), %rax          # 8-byte Folded Reload
	movq	%rax, 32(%rsp)          # 8-byte Spill
	.p2align	4, 0x90
.LBB3_5:                                # %polly.loop_header
                                        #   Parent Loop BB3_4 Depth=1
                                        # =>  This Loop Header: Depth=2
                                        #       Child Loop BB3_7 Depth 3
                                        #         Child Loop BB3_21 Depth 4
                                        #           Child Loop BB3_22 Depth 5
                                        #           Child Loop BB3_25 Depth 5
                                        #         Child Loop BB3_10 Depth 4
                                        #           Child Loop BB3_11 Depth 5
                                        #           Child Loop BB3_14 Depth 5
                                        #           Child Loop BB3_16 Depth 5
	cmpq	$0, 40(%rsp)            # 8-byte Folded Reload
	js	.LBB3_20
# BB#6:                                 # %polly.loop_header2.preheader
                                        #   in Loop: Header=BB3_5 Depth=2
	movq	8(%rsp), %r13           # 8-byte Reload
	shlq	$5, %r13
	movq	96(%rsp), %rcx          # 8-byte Reload
	subq	%r13, %rcx
	decq	%rcx
	cmpq	$31, %rcx
	movl	$31, %eax
	cmovgq	%rax, %rcx
	movq	%rcx, 128(%rsp)         # 8-byte Spill
	leaq	-1(%rcx), %rsi
	movq	32(%rsp), %rax          # 8-byte Reload
	movq	%rax, 48(%rsp)          # 8-byte Spill
	xorl	%r11d, %r11d
	.p2align	4, 0x90
.LBB3_7:                                # %polly.loop_header2
                                        #   Parent Loop BB3_4 Depth=1
                                        #     Parent Loop BB3_5 Depth=2
                                        # =>    This Loop Header: Depth=3
                                        #         Child Loop BB3_21 Depth 4
                                        #           Child Loop BB3_22 Depth 5
                                        #           Child Loop BB3_25 Depth 5
                                        #         Child Loop BB3_10 Depth 4
                                        #           Child Loop BB3_11 Depth 5
                                        #           Child Loop BB3_14 Depth 5
                                        #           Child Loop BB3_16 Depth 5
	cmpq	$0, 128(%rsp)           # 8-byte Folded Reload
	js	.LBB3_19
# BB#8:                                 # %polly.loop_header10.preheader
                                        #   in Loop: Header=BB3_7 Depth=3
	testl	%ebx, %ebx
	sete	%al
	leaq	(,%r11,8), %rcx
	movq	112(%rsp), %rdx         # 8-byte Reload
	subq	%rcx, %rdx
	cmpq	$7, %rdx
	movl	$7, %ecx
	cmovgq	%rcx, %rdx
	movq	%r11, %rcx
	shlq	$5, %rcx
	orq	$31, %rcx
	cmpq	120(%rsp), %rcx         # 8-byte Folded Reload
	setl	%r8b
	orb	%al, %r8b
	testq	%rdx, %rdx
	js	.LBB3_18
# BB#9:                                 #   in Loop: Header=BB3_7 Depth=3
	decq	%rdx
	movq	16(%rsp), %r9           # 8-byte Reload
	movq	48(%rsp), %r10          # 8-byte Reload
	xorl	%r15d, %r15d
	.p2align	4, 0x90
.LBB3_10:                               # %polly.loop_header10.us
                                        #   Parent Loop BB3_4 Depth=1
                                        #     Parent Loop BB3_5 Depth=2
                                        #       Parent Loop BB3_7 Depth=3
                                        # =>      This Loop Header: Depth=4
                                        #           Child Loop BB3_11 Depth 5
                                        #           Child Loop BB3_14 Depth 5
                                        #           Child Loop BB3_16 Depth 5
	leaq	(%r15,%r13), %r14
	.loc	1 26 47                 # MatrixMult.c:26:47
	movd	%r14, %xmm0
	pshufd	$68, %xmm0, %xmm0       # xmm0 = xmm0[0,1,0,1]
	movq	$-1, %rax
	movq	%r10, %rcx
	.p2align	4, 0x90
.LBB3_11:                               # %polly.loop_header19.us
                                        #   Parent Loop BB3_4 Depth=1
                                        #     Parent Loop BB3_5 Depth=2
                                        #       Parent Loop BB3_7 Depth=3
                                        #         Parent Loop BB3_10 Depth=4
                                        # =>        This Inner Loop Header: Depth=5
	movdqu	-16(%rcx), %xmm1
	paddq	%xmm0, %xmm1
	movdqu	%xmm1, -16(%rcx)
	movdqu	(%rcx), %xmm1
	paddq	%xmm0, %xmm1
	movdqu	%xmm1, (%rcx)
	incq	%rax
	addq	$32, %rcx
	cmpq	%rdx, %rax
	jle	.LBB3_11
# BB#12:                                # %polly.cond.loopexit.us
                                        #   in Loop: Header=BB3_10 Depth=4
	testb	%r8b, %r8b
	jne	.LBB3_17
# BB#13:                                # %polly.loop_header35.preheader.us
                                        #   in Loop: Header=BB3_10 Depth=4
	testq	%rbx, %rbx
	movq	%r9, %rcx
	movl	$0, %eax
	je	.LBB3_15
	.p2align	4, 0x90
.LBB3_14:                               # %polly.loop_header35.us.prol
                                        #   Parent Loop BB3_4 Depth=1
                                        #     Parent Loop BB3_5 Depth=2
                                        #       Parent Loop BB3_7 Depth=3
                                        #         Parent Loop BB3_10 Depth=4
                                        # =>        This Inner Loop Header: Depth=5
	addq	%r14, (%rcx)
	incq	%rax
	addq	$8, %rcx
	cmpq	%rax, %rbx
	jne	.LBB3_14
.LBB3_15:                               # %polly.loop_header35.preheader.us.split
                                        #   in Loop: Header=BB3_10 Depth=4
	cmpq	$3, 56(%rsp)            # 8-byte Folded Reload
	jb	.LBB3_17
	.p2align	4, 0x90
.LBB3_16:                               # %polly.loop_header35.us
                                        #   Parent Loop BB3_4 Depth=1
                                        #     Parent Loop BB3_5 Depth=2
                                        #       Parent Loop BB3_7 Depth=3
                                        #         Parent Loop BB3_10 Depth=4
                                        # =>        This Inner Loop Header: Depth=5
	addq	%r14, (%r9,%rax,8)
	addq	%r14, 8(%r9,%rax,8)
	addq	%r14, 16(%r9,%rax,8)
	addq	%r14, 24(%r9,%rax,8)
	addq	$4, %rax
	cmpq	%rax, %rbx
	jne	.LBB3_16
.LBB3_17:                               # %polly.merge.us
                                        #   in Loop: Header=BB3_10 Depth=4
	addq	%r12, %r10
	addq	%r12, %r9
	cmpq	%rsi, %r15
	leaq	1(%r15), %r15
	jle	.LBB3_10
	jmp	.LBB3_19
	.p2align	4, 0x90
.LBB3_18:                               # %polly.loop_header10.preheader.split
                                        #   in Loop: Header=BB3_7 Depth=3
	testb	%r8b, %r8b
	movq	16(%rsp), %rdi          # 8-byte Reload
	movl	$0, %eax
	jne	.LBB3_19
	.p2align	4, 0x90
.LBB3_21:                               # %polly.loop_header10
                                        #   Parent Loop BB3_4 Depth=1
                                        #     Parent Loop BB3_5 Depth=2
                                        #       Parent Loop BB3_7 Depth=3
                                        # =>      This Loop Header: Depth=4
                                        #           Child Loop BB3_22 Depth 5
                                        #           Child Loop BB3_25 Depth 5
	leaq	(%rax,%r13), %rcx
	testq	%rbx, %rbx
	movq	%rdi, %rdx
	movl	$0, %ebp
	je	.LBB3_23
	.p2align	4, 0x90
.LBB3_22:                               # %polly.loop_header35.prol
                                        #   Parent Loop BB3_4 Depth=1
                                        #     Parent Loop BB3_5 Depth=2
                                        #       Parent Loop BB3_7 Depth=3
                                        #         Parent Loop BB3_21 Depth=4
                                        # =>        This Inner Loop Header: Depth=5
	addq	%rcx, (%rdx)
	incq	%rbp
	addq	$8, %rdx
	cmpq	%rbp, %rbx
	jne	.LBB3_22
.LBB3_23:                               # %polly.loop_header10.split
                                        #   in Loop: Header=BB3_21 Depth=4
	cmpq	$2, 56(%rsp)            # 8-byte Folded Reload
	jbe	.LBB3_24
	.p2align	4, 0x90
.LBB3_25:                               # %polly.loop_header35
                                        #   Parent Loop BB3_4 Depth=1
                                        #     Parent Loop BB3_5 Depth=2
                                        #       Parent Loop BB3_7 Depth=3
                                        #         Parent Loop BB3_21 Depth=4
                                        # =>        This Inner Loop Header: Depth=5
	addq	%rcx, (%rdi,%rbp,8)
	addq	%rcx, 8(%rdi,%rbp,8)
	addq	%rcx, 16(%rdi,%rbp,8)
	addq	%rcx, 24(%rdi,%rbp,8)
	addq	$4, %rbp
	cmpq	%rbp, %rbx
	jne	.LBB3_25
.LBB3_24:                               # %polly.merge
                                        #   in Loop: Header=BB3_21 Depth=4
	addq	%r12, %rdi
	cmpq	%rsi, %rax
	leaq	1(%rax), %rax
	jle	.LBB3_21
	.p2align	4, 0x90
.LBB3_19:                               # %polly.loop_exit12
                                        #   in Loop: Header=BB3_7 Depth=3
	addq	$256, 48(%rsp)          # 8-byte Folded Spill
                                        # imm = 0x100
	cmpq	40(%rsp), %r11          # 8-byte Folded Reload
	leaq	1(%r11), %r11
	jne	.LBB3_7
.LBB3_20:                               # %polly.loop_exit4
                                        #   in Loop: Header=BB3_5 Depth=2
	movq	24(%rsp), %rax          # 8-byte Reload
	addq	%rax, 16(%rsp)          # 8-byte Folded Spill
	addq	%rax, 32(%rsp)          # 8-byte Folded Spill
	movq	8(%rsp), %rax           # 8-byte Reload
	cmpq	104(%rsp), %rax         # 8-byte Folded Reload
	leaq	1(%rax), %rax
	movq	%rax, 8(%rsp)           # 8-byte Spill
	jle	.LBB3_5
# BB#3:                                 # %polly.par.checkNext.loopexit
                                        #   in Loop: Header=BB3_4 Depth=1
	leaq	72(%rsp), %rdi
	leaq	64(%rsp), %rsi
	callq	GOMP_loop_runtime_next
	testb	%al, %al
	jne	.LBB3_4
.LBB3_2:                                # %polly.par.exit
	callq	GOMP_loop_end_nowait
	addq	$136, %rsp
	popq	%rbx
	popq	%r12
	popq	%r13
	popq	%r14
	popq	%r15
	popq	%rbp
	retq
.Lfunc_end3:
	.size	init_polly_subfn, .Lfunc_end3-init_polly_subfn
	.cfi_endproc

	.p2align	4, 0x90
	.type	matmult_polly_subfn,@function
matmult_polly_subfn:                    # @matmult_polly_subfn
.Lfunc_begin4:
	.cfi_startproc
# BB#0:                                 # %polly.par.setup
	pushq	%rbp
.Ltmp118:
	.cfi_def_cfa_offset 16
	pushq	%r15
.Ltmp119:
	.cfi_def_cfa_offset 24
	pushq	%r14
.Ltmp120:
	.cfi_def_cfa_offset 32
	pushq	%r13
.Ltmp121:
	.cfi_def_cfa_offset 40
	pushq	%r12
.Ltmp122:
	.cfi_def_cfa_offset 48
	pushq	%rbx
.Ltmp123:
	.cfi_def_cfa_offset 56
	subq	$296, %rsp              # imm = 0x128
.Ltmp124:
	.cfi_def_cfa_offset 352
.Ltmp125:
	.cfi_offset %rbx, -56
.Ltmp126:
	.cfi_offset %r12, -48
.Ltmp127:
	.cfi_offset %r13, -40
.Ltmp128:
	.cfi_offset %r14, -32
.Ltmp129:
	.cfi_offset %r15, -24
.Ltmp130:
	.cfi_offset %rbp, -16
	movslq	(%rdi), %rax
	movq	%rax, 240(%rsp)         # 8-byte Spill
	movl	4(%rdi), %ebp
	movq	8(%rdi), %rbx
	leaq	200(%rsp), %rdi
	leaq	192(%rsp), %rsi
	callq	GOMP_loop_runtime_next
	testb	%al, %al
	je	.LBB4_2
# BB#1:                                 # %polly.par.loadIVBounds.lr.ph
	movslq	%ebp, %rcx
	movq	%rcx, 264(%rsp)         # 8-byte Spill
	andl	$3, %ebp
	movq	%rbp, 48(%rsp)          # 8-byte Spill
	leaq	-1(%rcx), %rax
	sarq	$5, %rax
	movq	%rax, 96(%rsp)          # 8-byte Spill
	movq	%rcx, %rax
	shrq	$2, %rax
	decq	%rax
	movq	%rax, 256(%rsp)         # 8-byte Spill
	leaq	-1(%rbp), %rax
	movq	%rax, 176(%rsp)         # 8-byte Spill
	movq	%rcx, %rax
	subq	%rbp, %rax
	movq	%rax, 160(%rsp)         # 8-byte Spill
	imulq	%rcx, %rax
	movq	%rbx, 40(%rsp)          # 8-byte Spill
	leaq	(%rbx,%rax,8), %rax
	movq	%rax, 232(%rsp)         # 8-byte Spill
	leaq	(,%rcx,8), %rax
	movq	%rax, 168(%rsp)         # 8-byte Spill
	leaq	3(%rcx), %rax
	subq	%rbp, %rax
	movq	%rax, 152(%rsp)         # 8-byte Spill
	movq	%rcx, %r13
	shlq	$5, %r13
	leaq	2(%rcx), %rax
	subq	%rbp, %rax
	movq	%rax, 144(%rsp)         # 8-byte Spill
	leaq	1(%rcx), %rax
	subq	%rbp, %rax
	movq	%rax, 136(%rsp)         # 8-byte Spill
	leaq	(%rcx,%rcx,2), %rax
	leaq	(%rbx,%rax,8), %rax
	movq	%rax, 224(%rsp)         # 8-byte Spill
	movq	%rcx, %rax
	shlq	$8, %rax
	movq	%rax, 272(%rsp)         # 8-byte Spill
	movq	%rcx, %rax
	shlq	$4, %rax
	addq	%rbx, %rax
	movq	%rax, 216(%rsp)         # 8-byte Spill
	leaq	(%rbx,%rcx,8), %rax
	movq	%rax, 208(%rsp)         # 8-byte Spill
	.p2align	4, 0x90
.LBB4_4:                                # %polly.par.loadIVBounds
                                        # =>This Loop Header: Depth=1
                                        #     Child Loop BB4_5 Depth 2
                                        #       Child Loop BB4_7 Depth 3
                                        #         Child Loop BB4_24 Depth 4
                                        #           Child Loop BB4_25 Depth 5
                                        #           Child Loop BB4_28 Depth 5
                                        #         Child Loop BB4_13 Depth 4
                                        #           Child Loop BB4_14 Depth 5
                                        #           Child Loop BB4_16 Depth 5
                                        #           Child Loop BB4_19 Depth 5
                                        #         Child Loop BB4_10 Depth 4
                                        #           Child Loop BB4_11 Depth 5
	movq	192(%rsp), %rax
	movq	200(%rsp), %rcx
	movq	%rcx, 8(%rsp)           # 8-byte Spill
	addq	$-2, %rax
	movq	%rax, 248(%rsp)         # 8-byte Spill
	shlq	$8, %rcx
	movq	%rcx, 24(%rsp)          # 8-byte Spill
	movq	232(%rsp), %rax         # 8-byte Reload
	leaq	(%rax,%rcx), %rax
	movq	%rax, 16(%rsp)          # 8-byte Spill
	movq	224(%rsp), %rax         # 8-byte Reload
	leaq	(%rax,%rcx), %rax
	movq	%rax, 88(%rsp)          # 8-byte Spill
	movq	216(%rsp), %rax         # 8-byte Reload
	leaq	(%rax,%rcx), %rax
	movq	%rax, 80(%rsp)          # 8-byte Spill
	movq	208(%rsp), %rax         # 8-byte Reload
	leaq	(%rax,%rcx), %rax
	movq	%rax, 72(%rsp)          # 8-byte Spill
	movq	40(%rsp), %rax          # 8-byte Reload
	leaq	(%rax,%rcx), %rax
	movq	%rax, 64(%rsp)          # 8-byte Spill
	.p2align	4, 0x90
.LBB4_5:                                # %polly.loop_header
                                        #   Parent Loop BB4_4 Depth=1
                                        # =>  This Loop Header: Depth=2
                                        #       Child Loop BB4_7 Depth 3
                                        #         Child Loop BB4_24 Depth 4
                                        #           Child Loop BB4_25 Depth 5
                                        #           Child Loop BB4_28 Depth 5
                                        #         Child Loop BB4_13 Depth 4
                                        #           Child Loop BB4_14 Depth 5
                                        #           Child Loop BB4_16 Depth 5
                                        #           Child Loop BB4_19 Depth 5
                                        #         Child Loop BB4_10 Depth 4
                                        #           Child Loop BB4_11 Depth 5
	cmpq	$0, 96(%rsp)            # 8-byte Folded Reload
	js	.LBB4_23
# BB#6:                                 # %polly.loop_header3.preheader
                                        #   in Loop: Header=BB4_5 Depth=2
	movq	8(%rsp), %rax           # 8-byte Reload
	shlq	$5, %rax
	movq	240(%rsp), %rcx         # 8-byte Reload
	subq	%rax, %rcx
	decq	%rcx
	cmpq	$31, %rcx
	movl	$31, %eax
	cmovgq	%rax, %rcx
	movq	%rcx, 280(%rsp)         # 8-byte Spill
	leaq	-1(%rcx), %rax
	movq	%rax, 56(%rsp)          # 8-byte Spill
	movq	64(%rsp), %rax          # 8-byte Reload
	movq	%rax, 128(%rsp)         # 8-byte Spill
	movq	72(%rsp), %rax          # 8-byte Reload
	movq	%rax, 120(%rsp)         # 8-byte Spill
	movq	80(%rsp), %rax          # 8-byte Reload
	movq	%rax, 112(%rsp)         # 8-byte Spill
	movq	88(%rsp), %rax          # 8-byte Reload
	movq	%rax, 104(%rsp)         # 8-byte Spill
	xorl	%eax, %eax
	movq	%rax, 32(%rsp)          # 8-byte Spill
	.p2align	4, 0x90
.LBB4_7:                                # %polly.loop_header3
                                        #   Parent Loop BB4_4 Depth=1
                                        #     Parent Loop BB4_5 Depth=2
                                        # =>    This Loop Header: Depth=3
                                        #         Child Loop BB4_24 Depth 4
                                        #           Child Loop BB4_25 Depth 5
                                        #           Child Loop BB4_28 Depth 5
                                        #         Child Loop BB4_13 Depth 4
                                        #           Child Loop BB4_14 Depth 5
                                        #           Child Loop BB4_16 Depth 5
                                        #           Child Loop BB4_19 Depth 5
                                        #         Child Loop BB4_10 Depth 4
                                        #           Child Loop BB4_11 Depth 5
	cmpq	$0, 280(%rsp)           # 8-byte Folded Reload
	js	.LBB4_22
# BB#8:                                 # %polly.loop_header11.preheader
                                        #   in Loop: Header=BB4_7 Depth=3
	movq	48(%rsp), %rax          # 8-byte Reload
	testl	%eax, %eax
	sete	%cl
	movq	32(%rsp), %rdx          # 8-byte Reload
	leaq	(,%rdx,8), %rax
	movq	256(%rsp), %r14         # 8-byte Reload
	subq	%rax, %r14
	cmpq	$7, %r14
	movl	$7, %eax
	cmovgq	%rax, %r14
	movq	%rdx, %rax
	shlq	$5, %rax
	orq	$31, %rax
	cmpq	264(%rsp), %rax         # 8-byte Folded Reload
	setl	%al
	orb	%cl, %al
	testq	%r14, %r14
	js	.LBB4_21
# BB#9:                                 # %polly.loop_header11.preheader.split.us
                                        #   in Loop: Header=BB4_7 Depth=3
	decq	%r14
	testb	%al, %al
	movq	128(%rsp), %r9          # 8-byte Reload
	movq	%r9, %r15
	movq	120(%rsp), %r11         # 8-byte Reload
	movq	%r11, %rsi
	movq	112(%rsp), %rbp         # 8-byte Reload
	movq	%rbp, %r10
	movq	104(%rsp), %r12         # 8-byte Reload
	movq	%r12, %r8
	movl	$0, %edi
	movq	24(%rsp), %rdx          # 8-byte Reload
	movq	%rdx, 184(%rsp)         # 8-byte Spill
	movq	16(%rsp), %rdx          # 8-byte Reload
	movl	$0, %eax
	je	.LBB4_13
	.p2align	4, 0x90
.LBB4_10:                               # %polly.loop_header11.us.us
                                        #   Parent Loop BB4_4 Depth=1
                                        #     Parent Loop BB4_5 Depth=2
                                        #       Parent Loop BB4_7 Depth=3
                                        # =>      This Loop Header: Depth=4
                                        #           Child Loop BB4_11 Depth 5
	movq	$-1, %rdx
	movq	%r15, %rax
	movq	%rsi, %rbx
	movq	%r10, %rcx
	movq	%r8, %rbp
	.p2align	4, 0x90
.LBB4_11:                               # %polly.loop_header20.us.us
                                        #   Parent Loop BB4_4 Depth=1
                                        #     Parent Loop BB4_5 Depth=2
                                        #       Parent Loop BB4_7 Depth=3
                                        #         Parent Loop BB4_10 Depth=4
                                        # =>        This Inner Loop Header: Depth=5
	movq	$0, (%rax)
	movq	$0, (%rbx)
	movq	$0, (%rcx)
	movq	$0, (%rbp)
	incq	%rdx
	addq	%r13, %rbp
	addq	%r13, %rcx
	addq	%r13, %rbx
	addq	%r13, %rax
	cmpq	%r14, %rdx
	jle	.LBB4_11
# BB#12:                                # %polly.cond.loopexit.us.us
                                        #   in Loop: Header=BB4_10 Depth=4
	addq	$8, %r8
	addq	$8, %r10
	addq	$8, %rsi
	addq	$8, %r15
	cmpq	56(%rsp), %rdi          # 8-byte Folded Reload
	leaq	1(%rdi), %rdi
	jle	.LBB4_10
	jmp	.LBB4_22
	.p2align	4, 0x90
.LBB4_13:                               # %polly.loop_header11.us
                                        #   Parent Loop BB4_4 Depth=1
                                        #     Parent Loop BB4_5 Depth=2
                                        #       Parent Loop BB4_7 Depth=3
                                        # =>      This Loop Header: Depth=4
                                        #           Child Loop BB4_14 Depth 5
                                        #           Child Loop BB4_16 Depth 5
                                        #           Child Loop BB4_19 Depth 5
	movq	%rax, 288(%rsp)         # 8-byte Spill
	movq	$-1, %rax
	movq	%r9, %rcx
	movq	%r11, %rdi
	movq	%rbp, %rbx
	movq	%rbx, %r15
	movq	%r12, %rbx
	.p2align	4, 0x90
.LBB4_14:                               # %polly.loop_header20.us
                                        #   Parent Loop BB4_4 Depth=1
                                        #     Parent Loop BB4_5 Depth=2
                                        #       Parent Loop BB4_7 Depth=3
                                        #         Parent Loop BB4_13 Depth=4
                                        # =>        This Inner Loop Header: Depth=5
	movq	$0, (%rcx)
	movq	$0, (%rdi)
	movq	$0, (%rbp)
	movq	$0, (%rbx)
	incq	%rax
	addq	%r13, %rbx
	addq	%r13, %rbp
	addq	%r13, %rdi
	addq	%r13, %rcx
	cmpq	%r14, %rax
	jle	.LBB4_14
# BB#15:                                # %polly.loop_header36.us.preheader
                                        #   in Loop: Header=BB4_13 Depth=4
	movq	48(%rsp), %rdi          # 8-byte Reload
	testq	%rdi, %rdi
	movq	%rdx, %r8
	movq	%r8, %rcx
	movl	$0, %eax
	movq	184(%rsp), %r10         # 8-byte Reload
	movq	168(%rsp), %rsi         # 8-byte Reload
	je	.LBB4_17
	.p2align	4, 0x90
.LBB4_16:                               # %polly.loop_header36.us.prol
                                        #   Parent Loop BB4_4 Depth=1
                                        #     Parent Loop BB4_5 Depth=2
                                        #       Parent Loop BB4_7 Depth=3
                                        #         Parent Loop BB4_13 Depth=4
                                        # =>        This Inner Loop Header: Depth=5
	movq	$0, (%rcx)
	incq	%rax
	addq	%rsi, %rcx
	cmpq	%rax, %rdi
	jne	.LBB4_16
.LBB4_17:                               # %polly.loop_header36.us.preheader.split
                                        #   in Loop: Header=BB4_13 Depth=4
	cmpq	$3, 176(%rsp)           # 8-byte Folded Reload
	jb	.LBB4_20
# BB#18:                                # %polly.loop_header36.us.preheader.split.split
                                        #   in Loop: Header=BB4_13 Depth=4
	movq	%rdi, %rcx
	subq	%rax, %rcx
	movq	152(%rsp), %rdx         # 8-byte Reload
	leaq	(%rdx,%rax), %rdi
	imulq	%rsi, %rdi
	addq	%r10, %rdi
	movq	144(%rsp), %rdx         # 8-byte Reload
	leaq	(%rdx,%rax), %rbp
	imulq	%rsi, %rbp
	addq	%r10, %rbp
	movq	136(%rsp), %rdx         # 8-byte Reload
	leaq	(%rdx,%rax), %rbx
	imulq	%rsi, %rbx
	addq	%r10, %rbx
	addq	160(%rsp), %rax         # 8-byte Folded Reload
	imulq	%rsi, %rax
	addq	%r10, %rax
	movq	40(%rsp), %rdx          # 8-byte Reload
	.p2align	4, 0x90
.LBB4_19:                               # %polly.loop_header36.us
                                        #   Parent Loop BB4_4 Depth=1
                                        #     Parent Loop BB4_5 Depth=2
                                        #       Parent Loop BB4_7 Depth=3
                                        #         Parent Loop BB4_13 Depth=4
                                        # =>        This Inner Loop Header: Depth=5
	movq	$0, (%rax,%rdx)
	movq	$0, (%rbx,%rdx)
	movq	$0, (%rbp,%rdx)
	movq	$0, (%rdi,%rdx)
	addq	%r13, %rdx
	addq	$-4, %rcx
	jne	.LBB4_19
.LBB4_20:                               # %polly.merge.loopexit.us
                                        #   in Loop: Header=BB4_13 Depth=4
	addq	$8, %r12
	movq	%r15, %rbp
	addq	$8, %rbp
	addq	$8, %r11
	addq	$8, %r9
	addq	$8, %r8
	movq	%r8, %rdx
	addq	$8, %r10
	movq	%r10, 184(%rsp)         # 8-byte Spill
	movq	288(%rsp), %rax         # 8-byte Reload
	cmpq	56(%rsp), %rax          # 8-byte Folded Reload
	leaq	1(%rax), %rax
	jle	.LBB4_13
	jmp	.LBB4_22
	.p2align	4, 0x90
.LBB4_21:                               # %polly.loop_header11.preheader.split
                                        #   in Loop: Header=BB4_7 Depth=3
	testb	%al, %al
	movq	24(%rsp), %r10          # 8-byte Reload
	movq	16(%rsp), %r9           # 8-byte Reload
	movl	$0, %r8d
	jne	.LBB4_22
	.p2align	4, 0x90
.LBB4_24:                               # %polly.loop_header11
                                        #   Parent Loop BB4_4 Depth=1
                                        #     Parent Loop BB4_5 Depth=2
                                        #       Parent Loop BB4_7 Depth=3
                                        # =>      This Loop Header: Depth=4
                                        #           Child Loop BB4_25 Depth 5
                                        #           Child Loop BB4_28 Depth 5
	movq	48(%rsp), %rsi          # 8-byte Reload
	testq	%rsi, %rsi
	movq	%r9, %rcx
	movl	$0, %eax
	movq	168(%rsp), %rdx         # 8-byte Reload
	je	.LBB4_26
	.p2align	4, 0x90
.LBB4_25:                               # %polly.loop_header36.prol
                                        #   Parent Loop BB4_4 Depth=1
                                        #     Parent Loop BB4_5 Depth=2
                                        #       Parent Loop BB4_7 Depth=3
                                        #         Parent Loop BB4_24 Depth=4
                                        # =>        This Inner Loop Header: Depth=5
	movq	$0, (%rcx)
	incq	%rax
	addq	%rdx, %rcx
	cmpq	%rax, %rsi
	jne	.LBB4_25
.LBB4_26:                               # %polly.loop_header11.split
                                        #   in Loop: Header=BB4_24 Depth=4
	cmpq	$3, 176(%rsp)           # 8-byte Folded Reload
	jb	.LBB4_29
# BB#27:                                # %polly.loop_header11.split.split
                                        #   in Loop: Header=BB4_24 Depth=4
	movq	%rsi, %rcx
	subq	%rax, %rcx
	movq	152(%rsp), %rsi         # 8-byte Reload
	leaq	(%rsi,%rax), %rbp
	imulq	%rdx, %rbp
	addq	%r10, %rbp
	movq	144(%rsp), %rsi         # 8-byte Reload
	leaq	(%rsi,%rax), %rdi
	imulq	%rdx, %rdi
	addq	%r10, %rdi
	movq	136(%rsp), %rsi         # 8-byte Reload
	leaq	(%rsi,%rax), %rbx
	imulq	%rdx, %rbx
	addq	%r10, %rbx
	addq	160(%rsp), %rax         # 8-byte Folded Reload
	imulq	%rdx, %rax
	addq	%r10, %rax
	movq	40(%rsp), %rsi          # 8-byte Reload
	.p2align	4, 0x90
.LBB4_28:                               # %polly.loop_header36
                                        #   Parent Loop BB4_4 Depth=1
                                        #     Parent Loop BB4_5 Depth=2
                                        #       Parent Loop BB4_7 Depth=3
                                        #         Parent Loop BB4_24 Depth=4
                                        # =>        This Inner Loop Header: Depth=5
	movq	$0, (%rax,%rsi)
	movq	$0, (%rbx,%rsi)
	movq	$0, (%rdi,%rsi)
	movq	$0, (%rbp,%rsi)
	addq	%r13, %rsi
	addq	$-4, %rcx
	jne	.LBB4_28
.LBB4_29:                               # %polly.merge
                                        #   in Loop: Header=BB4_24 Depth=4
	addq	$8, %r9
	addq	$8, %r10
	cmpq	56(%rsp), %r8           # 8-byte Folded Reload
	leaq	1(%r8), %r8
	jle	.LBB4_24
	.p2align	4, 0x90
.LBB4_22:                               # %polly.loop_exit13
                                        #   in Loop: Header=BB4_7 Depth=3
	movq	272(%rsp), %rax         # 8-byte Reload
	addq	%rax, 104(%rsp)         # 8-byte Folded Spill
	addq	%rax, 112(%rsp)         # 8-byte Folded Spill
	addq	%rax, 120(%rsp)         # 8-byte Folded Spill
	addq	%rax, 128(%rsp)         # 8-byte Folded Spill
	movq	32(%rsp), %rax          # 8-byte Reload
	cmpq	96(%rsp), %rax          # 8-byte Folded Reload
	leaq	1(%rax), %rax
	movq	%rax, 32(%rsp)          # 8-byte Spill
	jne	.LBB4_7
.LBB4_23:                               # %polly.loop_exit5
                                        #   in Loop: Header=BB4_5 Depth=2
	addq	$256, 16(%rsp)          # 8-byte Folded Spill
                                        # imm = 0x100
	addq	$256, 24(%rsp)          # 8-byte Folded Spill
                                        # imm = 0x100
	addq	$256, 88(%rsp)          # 8-byte Folded Spill
                                        # imm = 0x100
	addq	$256, 80(%rsp)          # 8-byte Folded Spill
                                        # imm = 0x100
	addq	$256, 72(%rsp)          # 8-byte Folded Spill
                                        # imm = 0x100
	addq	$256, 64(%rsp)          # 8-byte Folded Spill
                                        # imm = 0x100
	movq	8(%rsp), %rax           # 8-byte Reload
	cmpq	248(%rsp), %rax         # 8-byte Folded Reload
	leaq	1(%rax), %rax
	movq	%rax, 8(%rsp)           # 8-byte Spill
	jle	.LBB4_5
# BB#3:                                 # %polly.par.checkNext.loopexit
                                        #   in Loop: Header=BB4_4 Depth=1
	leaq	200(%rsp), %rdi
	leaq	192(%rsp), %rsi
	callq	GOMP_loop_runtime_next
	testb	%al, %al
	jne	.LBB4_4
.LBB4_2:                                # %polly.par.exit
	callq	GOMP_loop_end_nowait
	addq	$296, %rsp              # imm = 0x128
	popq	%rbx
	popq	%r12
	popq	%r13
	popq	%r14
	popq	%r15
	popq	%rbp
	retq
.Lfunc_end4:
	.size	matmult_polly_subfn, .Lfunc_end4-matmult_polly_subfn
	.cfi_endproc

	.p2align	4, 0x90
	.type	matmult_polly_subfn_4,@function
matmult_polly_subfn_4:                  # @matmult_polly_subfn_4
.Lfunc_begin5:
	.cfi_startproc
# BB#0:                                 # %polly.par.setup
	pushq	%rbp
.Ltmp131:
	.cfi_def_cfa_offset 16
	pushq	%r15
.Ltmp132:
	.cfi_def_cfa_offset 24
	pushq	%r14
.Ltmp133:
	.cfi_def_cfa_offset 32
	pushq	%r13
.Ltmp134:
	.cfi_def_cfa_offset 40
	pushq	%r12
.Ltmp135:
	.cfi_def_cfa_offset 48
	pushq	%rbx
.Ltmp136:
	.cfi_def_cfa_offset 56
	subq	$312, %rsp              # imm = 0x138
.Ltmp137:
	.cfi_def_cfa_offset 368
.Ltmp138:
	.cfi_offset %rbx, -56
.Ltmp139:
	.cfi_offset %r12, -48
.Ltmp140:
	.cfi_offset %r13, -40
.Ltmp141:
	.cfi_offset %r14, -32
.Ltmp142:
	.cfi_offset %r15, -24
.Ltmp143:
	.cfi_offset %rbp, -16
	movslq	(%rdi), %rax
	movq	%rax, 184(%rsp)         # 8-byte Spill
	movl	4(%rdi), %ebx
	movq	8(%rdi), %rbp
	movq	16(%rdi), %rax
	movq	%rax, 16(%rsp)          # 8-byte Spill
	movq	24(%rdi), %rax
	movq	%rax, 8(%rsp)           # 8-byte Spill
	leaq	152(%rsp), %rdi
	leaq	144(%rsp), %rsi
	callq	GOMP_loop_runtime_next
	testb	%al, %al
	je	.LBB5_2
# BB#1:                                 # %polly.par.loadIVBounds.lr.ph
	movslq	%ebx, %r12
	movq	%r12, 304(%rsp)         # 8-byte Spill
	movl	%ebx, %eax
	andl	$3, %eax
	movq	%rax, 72(%rsp)          # 8-byte Spill
	leaq	-1(%r12), %rcx
	movq	%rcx, %rdx
	shrq	$5, %rdx
	movq	%rdx, 248(%rsp)         # 8-byte Spill
	sarq	$5, %rcx
	movq	%rcx, 80(%rsp)          # 8-byte Spill
	movq	%r12, %rcx
	shrq	$2, %rcx
	decq	%rcx
	movq	%rcx, 240(%rsp)         # 8-byte Spill
	movq	%r12, %rcx
	subq	%rax, %rcx
	movq	%rcx, 64(%rsp)          # 8-byte Spill
	leaq	-1(%rax), %rcx
	movq	%rcx, 104(%rsp)         # 8-byte Spill
	andl	$1, %ebx
	movq	%rbx, 112(%rsp)         # 8-byte Spill
	movq	%r12, %rcx
	shlq	$5, %rcx
	movq	%rcx, 208(%rsp)         # 8-byte Spill
	leaq	1(%r12), %rcx
	subq	%rax, %rcx
	movq	%rcx, 176(%rsp)         # 8-byte Spill
	movq	8(%rsp), %rax           # 8-byte Reload
	leaq	24(%rax), %rax
	movq	%rax, 168(%rsp)         # 8-byte Spill
	movq	%r12, %rax
	shlq	$8, %rax
	movq	%rax, 200(%rsp)         # 8-byte Spill
	leaq	(,%r12,8), %rax
	movq	%rax, 296(%rsp)         # 8-byte Spill
	movq	16(%rsp), %rax          # 8-byte Reload
	leaq	24(%rax), %rax
	movq	%rax, 160(%rsp)         # 8-byte Spill
	.p2align	4, 0x90
.LBB5_4:                                # %polly.par.loadIVBounds
                                        # =>This Loop Header: Depth=1
                                        #     Child Loop BB5_5 Depth 2
                                        #       Child Loop BB5_7 Depth 3
                                        #         Child Loop BB5_8 Depth 4
                                        #           Child Loop BB5_10 Depth 5
                                        #             Child Loop BB5_28 Depth 6
                                        #               Child Loop BB5_33 Depth 7
                                        #             Child Loop BB5_12 Depth 6
                                        #               Child Loop BB5_13 Depth 7
                                        #               Child Loop BB5_22 Depth 7
	movq	144(%rsp), %rax
	movq	152(%rsp), %rcx
	movq	%rcx, 24(%rsp)          # 8-byte Spill
	addq	$-2, %rax
	movq	%rax, 192(%rsp)         # 8-byte Spill
	.p2align	4, 0x90
.LBB5_5:                                # %polly.loop_header
                                        #   Parent Loop BB5_4 Depth=1
                                        # =>  This Loop Header: Depth=2
                                        #       Child Loop BB5_7 Depth 3
                                        #         Child Loop BB5_8 Depth 4
                                        #           Child Loop BB5_10 Depth 5
                                        #             Child Loop BB5_28 Depth 6
                                        #               Child Loop BB5_33 Depth 7
                                        #             Child Loop BB5_12 Depth 6
                                        #               Child Loop BB5_13 Depth 7
                                        #               Child Loop BB5_22 Depth 7
	cmpq	$0, 80(%rsp)            # 8-byte Folded Reload
	js	.LBB5_18
# BB#6:                                 # %polly.loop_header4.preheader
                                        #   in Loop: Header=BB5_5 Depth=2
	movq	24(%rsp), %rax          # 8-byte Reload
	shlq	$5, %rax
	movq	%rax, 264(%rsp)         # 8-byte Spill
	movq	184(%rsp), %rcx         # 8-byte Reload
	subq	%rax, %rcx
	decq	%rcx
	cmpq	$31, %rcx
	movl	$31, %eax
	cmovgq	%rax, %rcx
	movq	%rcx, 256(%rsp)         # 8-byte Spill
	leaq	-1(%rcx), %rax
	movq	%rax, 280(%rsp)         # 8-byte Spill
	movq	160(%rsp), %rcx         # 8-byte Reload
	movq	168(%rsp), %rdx         # 8-byte Reload
	movq	176(%rsp), %rax         # 8-byte Reload
	movq	%rax, 48(%rsp)          # 8-byte Spill
	movq	64(%rsp), %rax          # 8-byte Reload
	movq	%rax, 40(%rsp)          # 8-byte Spill
	xorl	%eax, %eax
	.p2align	4, 0x90
.LBB5_7:                                # %polly.loop_header4
                                        #   Parent Loop BB5_4 Depth=1
                                        #     Parent Loop BB5_5 Depth=2
                                        # =>    This Loop Header: Depth=3
                                        #         Child Loop BB5_8 Depth 4
                                        #           Child Loop BB5_10 Depth 5
                                        #             Child Loop BB5_28 Depth 6
                                        #               Child Loop BB5_33 Depth 7
                                        #             Child Loop BB5_12 Depth 6
                                        #               Child Loop BB5_13 Depth 7
                                        #               Child Loop BB5_22 Depth 7
	movq	%rax, 216(%rsp)         # 8-byte Spill
	movq	%rdx, 224(%rsp)         # 8-byte Spill
	movq	%rcx, 232(%rsp)         # 8-byte Spill
	movq	%rax, %rsi
	shlq	$5, %rsi
	movq	%rsi, 128(%rsp)         # 8-byte Spill
	movq	%r12, %rax
	subq	%rsi, %rax
	decq	%rax
	cmpq	$31, %rax
	movl	$31, %esi
	cmovleq	%rax, %rsi
	movq	%rsi, 288(%rsp)         # 8-byte Spill
	leaq	-1(%rsi), %rax
	movq	%rax, 120(%rsp)         # 8-byte Spill
	movq	%rcx, 96(%rsp)          # 8-byte Spill
	movq	%rdx, 88(%rsp)          # 8-byte Spill
	xorl	%eax, %eax
	movq	%rax, 32(%rsp)          # 8-byte Spill
	.p2align	4, 0x90
.LBB5_8:                                # %polly.loop_header11
                                        #   Parent Loop BB5_4 Depth=1
                                        #     Parent Loop BB5_5 Depth=2
                                        #       Parent Loop BB5_7 Depth=3
                                        # =>      This Loop Header: Depth=4
                                        #           Child Loop BB5_10 Depth 5
                                        #             Child Loop BB5_28 Depth 6
                                        #               Child Loop BB5_33 Depth 7
                                        #             Child Loop BB5_12 Depth 6
                                        #               Child Loop BB5_13 Depth 7
                                        #               Child Loop BB5_22 Depth 7
	cmpq	$0, 256(%rsp)           # 8-byte Folded Reload
	js	.LBB5_27
# BB#9:                                 # %polly.loop_header19.preheader
                                        #   in Loop: Header=BB5_8 Depth=4
	movq	72(%rsp), %rax          # 8-byte Reload
	testl	%eax, %eax
	sete	%al
	movq	32(%rsp), %rdx          # 8-byte Reload
	leaq	(,%rdx,8), %rcx
	movq	240(%rsp), %rsi         # 8-byte Reload
	subq	%rcx, %rsi
	cmpq	$7, %rsi
	movl	$7, %ecx
	cmovgq	%rcx, %rsi
	movq	%rsi, 272(%rsp)         # 8-byte Spill
	movq	%rdx, %rcx
	shlq	$5, %rcx
	orq	$31, %rcx
	cmpq	%r12, %rcx
	setl	%cl
	orb	%al, %cl
	movb	%cl, 7(%rsp)            # 1-byte Spill
	leaq	-1(%rsi), %rcx
	xorl	%eax, %eax
	movq	%rax, 56(%rsp)          # 8-byte Spill
	.p2align	4, 0x90
.LBB5_10:                               # %polly.loop_header19
                                        #   Parent Loop BB5_4 Depth=1
                                        #     Parent Loop BB5_5 Depth=2
                                        #       Parent Loop BB5_7 Depth=3
                                        #         Parent Loop BB5_8 Depth=4
                                        # =>        This Loop Header: Depth=5
                                        #             Child Loop BB5_28 Depth 6
                                        #               Child Loop BB5_33 Depth 7
                                        #             Child Loop BB5_12 Depth 6
                                        #               Child Loop BB5_13 Depth 7
                                        #               Child Loop BB5_22 Depth 7
	cmpq	$0, 288(%rsp)           # 8-byte Folded Reload
	js	.LBB5_26
# BB#11:                                # %polly.loop_header28.preheader
                                        #   in Loop: Header=BB5_10 Depth=5
	movq	264(%rsp), %rax         # 8-byte Reload
	movq	56(%rsp), %rdx          # 8-byte Reload
	leaq	(%rdx,%rax), %rax
	movq	%rax, 136(%rsp)         # 8-byte Spill
	cmpq	$0, 272(%rsp)           # 8-byte Folded Reload
	movq	48(%rsp), %r9           # 8-byte Reload
	movq	40(%rsp), %r8           # 8-byte Reload
	movq	96(%rsp), %r10          # 8-byte Reload
	movq	88(%rsp), %r11          # 8-byte Reload
	movl	$0, %r15d
	js	.LBB5_25
	.p2align	4, 0x90
.LBB5_12:                               # %polly.loop_header28.us
                                        #   Parent Loop BB5_4 Depth=1
                                        #     Parent Loop BB5_5 Depth=2
                                        #       Parent Loop BB5_7 Depth=3
                                        #         Parent Loop BB5_8 Depth=4
                                        #           Parent Loop BB5_10 Depth=5
                                        # =>          This Loop Header: Depth=6
                                        #               Child Loop BB5_13 Depth 7
                                        #               Child Loop BB5_22 Depth 7
	movq	128(%rsp), %rax         # 8-byte Reload
	leaq	(%r15,%rax), %rax
	imulq	%r12, %rax
	movq	136(%rsp), %rdx         # 8-byte Reload
	leaq	(%rdx,%rax), %r14
	movq	(%rbp,%r14,8), %rdi
	movq	$-1, %rdx
	movq	%r10, %rbx
	movq	%r11, %r12
	.p2align	4, 0x90
.LBB5_13:                               # %polly.loop_header38.us
                                        #   Parent Loop BB5_4 Depth=1
                                        #     Parent Loop BB5_5 Depth=2
                                        #       Parent Loop BB5_7 Depth=3
                                        #         Parent Loop BB5_8 Depth=4
                                        #           Parent Loop BB5_10 Depth=5
                                        #             Parent Loop BB5_12 Depth=6
                                        # =>            This Inner Loop Header: Depth=7
	movq	-24(%r12), %rsi
	movq	-16(%r12), %r13
	.loc	1 62 58                 # MatrixMult.c:62:58
	imulq	-24(%rbx), %rsi
	.loc	1 62 39 is_stmt 0       # MatrixMult.c:62:39
	addq	%rdi, %rsi
	.loc	1 62 58                 # MatrixMult.c:62:58
	imulq	-16(%rbx), %r13
	.loc	1 62 39                 # MatrixMult.c:62:39
	addq	%rsi, %r13
	movq	-8(%r12), %rsi
	.loc	1 62 58                 # MatrixMult.c:62:58
	imulq	-8(%rbx), %rsi
	.loc	1 62 39                 # MatrixMult.c:62:39
	addq	%r13, %rsi
	movq	(%r12), %rdi
	.loc	1 62 58                 # MatrixMult.c:62:58
	imulq	(%rbx), %rdi
	.loc	1 62 39                 # MatrixMult.c:62:39
	addq	%rsi, %rdi
	incq	%rdx
	addq	$32, %r12
	addq	$32, %rbx
	cmpq	%rcx, %rdx
	jle	.LBB5_13
# BB#14:                                # %polly.cond.loopexit.us
                                        #   in Loop: Header=BB5_12 Depth=6
	movq	%rdi, (%rbp,%r14,8)
	cmpb	$0, 7(%rsp)             # 1-byte Folded Reload
	jne	.LBB5_24
# BB#15:                                # %polly.loop_header59.preheader.us
                                        #   in Loop: Header=BB5_12 Depth=6
	cmpq	$0, 112(%rsp)           # 8-byte Folded Reload
	jne	.LBB5_19
# BB#16:                                #   in Loop: Header=BB5_12 Depth=6
	movq	%rbp, %r12
                                        # implicit-def: %RDX
	xorl	%esi, %esi
	jmp	.LBB5_20
	.p2align	4, 0x90
.LBB5_19:                               # %polly.loop_header59.us.prol
                                        #   in Loop: Header=BB5_12 Depth=6
	movq	%rbp, %r12
	addq	64(%rsp), %rax          # 8-byte Folded Reload
	movq	8(%rsp), %rdx           # 8-byte Reload
	movq	(%rdx,%rax,8), %rdx
	.loc	1 62 58                 # MatrixMult.c:62:58
	movq	16(%rsp), %rsi          # 8-byte Reload
	imulq	(%rsi,%rax,8), %rdx
	.loc	1 62 39                 # MatrixMult.c:62:39
	addq	%rdi, %rdx
	movq	%rdx, %rdi
	movl	$1, %esi
.LBB5_20:                               # %polly.loop_header59.preheader.us.split
                                        #   in Loop: Header=BB5_12 Depth=6
	cmpq	$0, 104(%rsp)           # 8-byte Folded Reload
	je	.LBB5_23
# BB#21:                                # %polly.loop_header59.preheader.us.split.split
                                        #   in Loop: Header=BB5_12 Depth=6
	movq	72(%rsp), %rax          # 8-byte Reload
	subq	%rsi, %rax
	leaq	(%rsi,%r8), %rdx
	movq	8(%rsp), %rbx           # 8-byte Reload
	leaq	(%rbx,%rdx,8), %rbx
	addq	%r9, %rsi
	movq	16(%rsp), %rdx          # 8-byte Reload
	leaq	(%rdx,%rsi,8), %rsi
	.p2align	4, 0x90
.LBB5_22:                               # %polly.loop_header59.us
                                        #   Parent Loop BB5_4 Depth=1
                                        #     Parent Loop BB5_5 Depth=2
                                        #       Parent Loop BB5_7 Depth=3
                                        #         Parent Loop BB5_8 Depth=4
                                        #           Parent Loop BB5_10 Depth=5
                                        #             Parent Loop BB5_12 Depth=6
                                        # =>            This Inner Loop Header: Depth=7
	movq	(%rbx), %rbp
	movq	8(%rbx), %rdx
	.loc	1 62 58                 # MatrixMult.c:62:58
	imulq	-8(%rsi), %rbp
	.loc	1 62 39                 # MatrixMult.c:62:39
	addq	%rdi, %rbp
	.loc	1 62 58                 # MatrixMult.c:62:58
	imulq	(%rsi), %rdx
	.loc	1 62 39                 # MatrixMult.c:62:39
	addq	%rbp, %rdx
	addq	$16, %rbx
	addq	$16, %rsi
	addq	$-2, %rax
	movq	%rdx, %rdi
	jne	.LBB5_22
.LBB5_23:                               # %polly.merge.loopexit.us
                                        #   in Loop: Header=BB5_12 Depth=6
	movq	%r12, %rbp
	movq	%rdx, (%rbp,%r14,8)
.LBB5_24:                               # %polly.merge.us
                                        #   in Loop: Header=BB5_12 Depth=6
	movq	296(%rsp), %rax         # 8-byte Reload
	addq	%rax, %r11
	addq	%rax, %r10
	movq	304(%rsp), %r12         # 8-byte Reload
	addq	%r12, %r8
	addq	%r12, %r9
	cmpq	120(%rsp), %r15         # 8-byte Folded Reload
	leaq	1(%r15), %r15
	jle	.LBB5_12
	jmp	.LBB5_26
	.p2align	4, 0x90
.LBB5_25:                               # %polly.loop_header28.preheader.split
                                        #   in Loop: Header=BB5_10 Depth=5
	cmpb	$0, 7(%rsp)             # 1-byte Folded Reload
	movq	48(%rsp), %r10          # 8-byte Reload
	movq	40(%rsp), %r8           # 8-byte Reload
	movl	$0, %r11d
	jne	.LBB5_26
	.p2align	4, 0x90
.LBB5_28:                               # %polly.loop_header28
                                        #   Parent Loop BB5_4 Depth=1
                                        #     Parent Loop BB5_5 Depth=2
                                        #       Parent Loop BB5_7 Depth=3
                                        #         Parent Loop BB5_8 Depth=4
                                        #           Parent Loop BB5_10 Depth=5
                                        # =>          This Loop Header: Depth=6
                                        #               Child Loop BB5_33 Depth 7
	movq	128(%rsp), %rax         # 8-byte Reload
	leaq	(%r11,%rax), %rax
	imulq	%r12, %rax
	movq	136(%rsp), %rdx         # 8-byte Reload
	leaq	(%rdx,%rax), %r9
	cmpq	$0, 112(%rsp)           # 8-byte Folded Reload
	movq	(%rbp,%r9,8), %rbx
	movq	%rbp, %r14
	jne	.LBB5_30
# BB#29:                                #   in Loop: Header=BB5_28 Depth=6
                                        # implicit-def: %RDX
	xorl	%ebp, %ebp
	jmp	.LBB5_31
	.p2align	4, 0x90
.LBB5_30:                               # %polly.loop_header59.prol
                                        #   in Loop: Header=BB5_28 Depth=6
	addq	64(%rsp), %rax          # 8-byte Folded Reload
	movq	8(%rsp), %rdx           # 8-byte Reload
	movq	(%rdx,%rax,8), %rdx
	.loc	1 62 58                 # MatrixMult.c:62:58
	movq	16(%rsp), %rsi          # 8-byte Reload
	imulq	(%rsi,%rax,8), %rdx
	.loc	1 62 39                 # MatrixMult.c:62:39
	addq	%rbx, %rdx
	movq	%rdx, %rbx
	movl	$1, %ebp
.LBB5_31:                               # %polly.loop_header28.split
                                        #   in Loop: Header=BB5_28 Depth=6
	cmpq	$0, 104(%rsp)           # 8-byte Folded Reload
	je	.LBB5_34
# BB#32:                                # %polly.loop_header28.split.split
                                        #   in Loop: Header=BB5_28 Depth=6
	movq	72(%rsp), %rax          # 8-byte Reload
	subq	%rbp, %rax
	leaq	(%rbp,%r8), %rdx
	movq	8(%rsp), %rsi           # 8-byte Reload
	leaq	(%rsi,%rdx,8), %rsi
	addq	%r10, %rbp
	movq	16(%rsp), %rdx          # 8-byte Reload
	leaq	(%rdx,%rbp,8), %rbp
	.p2align	4, 0x90
.LBB5_33:                               # %polly.loop_header59
                                        #   Parent Loop BB5_4 Depth=1
                                        #     Parent Loop BB5_5 Depth=2
                                        #       Parent Loop BB5_7 Depth=3
                                        #         Parent Loop BB5_8 Depth=4
                                        #           Parent Loop BB5_10 Depth=5
                                        #             Parent Loop BB5_28 Depth=6
                                        # =>            This Inner Loop Header: Depth=7
	movq	(%rsi), %rdi
	movq	8(%rsi), %rdx
	.loc	1 62 58                 # MatrixMult.c:62:58
	imulq	-8(%rbp), %rdi
	.loc	1 62 39                 # MatrixMult.c:62:39
	addq	%rbx, %rdi
	.loc	1 62 58                 # MatrixMult.c:62:58
	imulq	(%rbp), %rdx
	.loc	1 62 39                 # MatrixMult.c:62:39
	addq	%rdi, %rdx
	addq	$16, %rsi
	addq	$16, %rbp
	addq	$-2, %rax
	movq	%rdx, %rbx
	jne	.LBB5_33
.LBB5_34:                               # %polly.merge.loopexit
                                        #   in Loop: Header=BB5_28 Depth=6
	movq	%r14, %rbp
	movq	%rdx, (%rbp,%r9,8)
	addq	%r12, %r8
	addq	%r12, %r10
	cmpq	120(%rsp), %r11         # 8-byte Folded Reload
	leaq	1(%r11), %r11
	jle	.LBB5_28
	.p2align	4, 0x90
.LBB5_26:                               # %polly.loop_exit30
                                        #   in Loop: Header=BB5_10 Depth=5
	movq	56(%rsp), %rax          # 8-byte Reload
	cmpq	280(%rsp), %rax         # 8-byte Folded Reload
	leaq	1(%rax), %rax
	movq	%rax, 56(%rsp)          # 8-byte Spill
	jle	.LBB5_10
.LBB5_27:                               # %polly.loop_exit21
                                        #   in Loop: Header=BB5_8 Depth=4
	addq	$256, 88(%rsp)          # 8-byte Folded Spill
                                        # imm = 0x100
	addq	$256, 96(%rsp)          # 8-byte Folded Spill
                                        # imm = 0x100
	movq	32(%rsp), %rax          # 8-byte Reload
	cmpq	248(%rsp), %rax         # 8-byte Folded Reload
	leaq	1(%rax), %rax
	movq	%rax, 32(%rsp)          # 8-byte Spill
	jne	.LBB5_8
# BB#17:                                # %polly.loop_exit13
                                        #   in Loop: Header=BB5_7 Depth=3
	movq	208(%rsp), %rax         # 8-byte Reload
	addq	%rax, 40(%rsp)          # 8-byte Folded Spill
	addq	%rax, 48(%rsp)          # 8-byte Folded Spill
	movq	200(%rsp), %rax         # 8-byte Reload
	movq	224(%rsp), %rdx         # 8-byte Reload
	addq	%rax, %rdx
	movq	232(%rsp), %rcx         # 8-byte Reload
	addq	%rax, %rcx
	movq	216(%rsp), %rax         # 8-byte Reload
	cmpq	80(%rsp), %rax          # 8-byte Folded Reload
	leaq	1(%rax), %rax
	jne	.LBB5_7
.LBB5_18:                               # %polly.loop_exit6
                                        #   in Loop: Header=BB5_5 Depth=2
	movq	24(%rsp), %rax          # 8-byte Reload
	cmpq	192(%rsp), %rax         # 8-byte Folded Reload
	leaq	1(%rax), %rax
	movq	%rax, 24(%rsp)          # 8-byte Spill
	jle	.LBB5_5
# BB#3:                                 # %polly.par.checkNext.loopexit
                                        #   in Loop: Header=BB5_4 Depth=1
	leaq	152(%rsp), %rdi
	leaq	144(%rsp), %rsi
	callq	GOMP_loop_runtime_next
	testb	%al, %al
	jne	.LBB5_4
.LBB5_2:                                # %polly.par.exit
	callq	GOMP_loop_end_nowait
	addq	$312, %rsp              # imm = 0x138
	popq	%rbx
	popq	%r12
	popq	%r13
	popq	%r14
	popq	%r15
	popq	%rbp
	retq
.Lfunc_end5:
	.size	matmult_polly_subfn_4, .Lfunc_end5-matmult_polly_subfn_4
	.cfi_endproc

	.p2align	4, 0x90
	.type	matmult_polly_subfn_5,@function
matmult_polly_subfn_5:                  # @matmult_polly_subfn_5
.Lfunc_begin6:
	.cfi_startproc
# BB#0:                                 # %polly.par.setup
	pushq	%rbp
.Ltmp144:
	.cfi_def_cfa_offset 16
	pushq	%r15
.Ltmp145:
	.cfi_def_cfa_offset 24
	pushq	%r14
.Ltmp146:
	.cfi_def_cfa_offset 32
	pushq	%r13
.Ltmp147:
	.cfi_def_cfa_offset 40
	pushq	%r12
.Ltmp148:
	.cfi_def_cfa_offset 48
	pushq	%rbx
.Ltmp149:
	.cfi_def_cfa_offset 56
	subq	$392, %rsp              # imm = 0x188
.Ltmp150:
	.cfi_def_cfa_offset 448
.Ltmp151:
	.cfi_offset %rbx, -56
.Ltmp152:
	.cfi_offset %r12, -48
.Ltmp153:
	.cfi_offset %r13, -40
.Ltmp154:
	.cfi_offset %r14, -32
.Ltmp155:
	.cfi_offset %r15, -24
.Ltmp156:
	.cfi_offset %rbp, -16
	movl	(%rdi), %ebx
	movslq	4(%rdi), %rbp
	movq	8(%rdi), %r14
	movq	16(%rdi), %r15
	leaq	256(%rsp), %rdi
	leaq	248(%rsp), %rsi
	callq	GOMP_loop_runtime_next
	testb	%al, %al
	je	.LBB6_2
# BB#1:                                 # %polly.par.loadIVBounds.lr.ph
	movslq	%ebx, %rdx
	movq	%rdx, 72(%rsp)          # 8-byte Spill
	movl	%ebx, %ecx
	andl	$3, %ecx
	movq	%rcx, 64(%rsp)          # 8-byte Spill
	leaq	-1(%rdx), %rax
	sarq	$5, %rax
	movq	%rax, 128(%rsp)         # 8-byte Spill
	movq	%rdx, %rax
	shrq	$2, %rax
	decq	%rax
	movq	%rax, 320(%rsp)         # 8-byte Spill
	movq	%rdx, %rax
	subq	%rcx, %rax
	movq	%rax, (%rsp)            # 8-byte Spill
	leaq	-1(%rcx), %rsi
	movq	%rsi, 192(%rsp)         # 8-byte Spill
	andl	$1, %ebx
	movq	%rbx, 200(%rsp)         # 8-byte Spill
	imulq	%rdx, %rax
	movq	%rax, 176(%rsp)         # 8-byte Spill
	leaq	(,%rcx,8), %rax
	negq	%rax
	movq	%r15, 48(%rsp)          # 8-byte Spill
	leaq	8(%r15,%rax), %rax
	movq	%rax, 304(%rsp)         # 8-byte Spill
	movq	%rbp, 80(%rsp)          # 8-byte Spill
	movq	%rbp, %rax
	shlq	$8, %rax
	movq	%rax, 88(%rsp)          # 8-byte Spill
	leaq	1(%rdx), %rax
	subq	%rcx, %rax
	movq	%rax, 184(%rsp)         # 8-byte Spill
	movq	%rbp, %rax
	shlq	$5, %rax
	movq	%rax, 296(%rsp)         # 8-byte Spill
	leaq	(%rdx,%rdx,2), %rax
	movq	%r14, %rcx
	movq	%rcx, 56(%rsp)          # 8-byte Spill
	leaq	(%rcx,%rax,8), %rax
	movq	%rax, 288(%rsp)         # 8-byte Spill
	movq	%rdx, %rax
	shlq	$8, %rax
	movq	%rax, 328(%rsp)         # 8-byte Spill
	movq	%rdx, %r14
	shlq	$5, %r14
	movq	%rdx, %rax
	shlq	$4, %rax
	addq	%rcx, %rax
	movq	%rax, 280(%rsp)         # 8-byte Spill
	leaq	(,%rbp,8), %rax
	movq	%rax, 216(%rsp)         # 8-byte Spill
	leaq	(%rdx,%rdx), %r12
	leaq	24(%r15), %rax
	movq	%rax, 272(%rsp)         # 8-byte Spill
	leaq	(%rcx,%rdx,8), %rax
	movq	%rax, 264(%rsp)         # 8-byte Spill
	.p2align	4, 0x90
.LBB6_4:                                # %polly.par.loadIVBounds
                                        # =>This Loop Header: Depth=1
                                        #     Child Loop BB6_5 Depth 2
                                        #       Child Loop BB6_7 Depth 3
                                        #         Child Loop BB6_22 Depth 4
                                        #           Child Loop BB6_26 Depth 5
                                        #         Child Loop BB6_10 Depth 4
                                        #           Child Loop BB6_11 Depth 5
                                        #           Child Loop BB6_17 Depth 5
	movq	248(%rsp), %rax
	movq	256(%rsp), %rcx
	movq	%rcx, 16(%rsp)          # 8-byte Spill
	addq	$-2, %rax
	movq	%rax, 312(%rsp)         # 8-byte Spill
	movq	88(%rsp), %rdx          # 8-byte Reload
	imulq	%rcx, %rdx
	movq	304(%rsp), %rax         # 8-byte Reload
	leaq	(%rax,%rdx), %rax
	movq	%rax, 32(%rsp)          # 8-byte Spill
	movq	%rcx, %rsi
	shlq	$8, %rsi
	movq	56(%rsp), %rax          # 8-byte Reload
	leaq	(%rax,%rsi), %rax
	movq	%rax, 8(%rsp)           # 8-byte Spill
	movq	296(%rsp), %rax         # 8-byte Reload
	imulq	%rcx, %rax
	addq	(%rsp), %rax            # 8-byte Folded Reload
	movq	48(%rsp), %rcx          # 8-byte Reload
	leaq	(%rcx,%rax,8), %rax
	movq	%rax, 24(%rsp)          # 8-byte Spill
	addq	272(%rsp), %rdx         # 8-byte Folded Reload
	movq	%rdx, 120(%rsp)         # 8-byte Spill
	movq	288(%rsp), %rax         # 8-byte Reload
	leaq	(%rax,%rsi), %rax
	movq	%rax, 104(%rsp)         # 8-byte Spill
	movq	280(%rsp), %rax         # 8-byte Reload
	leaq	(%rax,%rsi), %rax
	movq	%rax, 96(%rsp)          # 8-byte Spill
	addq	264(%rsp), %rsi         # 8-byte Folded Reload
	movq	%rsi, 112(%rsp)         # 8-byte Spill
	.p2align	4, 0x90
.LBB6_5:                                # %polly.loop_header
                                        #   Parent Loop BB6_4 Depth=1
                                        # =>  This Loop Header: Depth=2
                                        #       Child Loop BB6_7 Depth 3
                                        #         Child Loop BB6_22 Depth 4
                                        #           Child Loop BB6_26 Depth 5
                                        #         Child Loop BB6_10 Depth 4
                                        #           Child Loop BB6_11 Depth 5
                                        #           Child Loop BB6_17 Depth 5
	cmpq	$0, 128(%rsp)           # 8-byte Folded Reload
	js	.LBB6_21
# BB#6:                                 # %polly.loop_header4.preheader
                                        #   in Loop: Header=BB6_5 Depth=2
	movq	16(%rsp), %rax          # 8-byte Reload
	shlq	$5, %rax
	movq	%rax, 208(%rsp)         # 8-byte Spill
	movq	80(%rsp), %rcx          # 8-byte Reload
	subq	%rax, %rcx
	decq	%rcx
	cmpq	$31, %rcx
	movl	$31, %eax
	cmovgq	%rax, %rcx
	movq	%rcx, 336(%rsp)         # 8-byte Spill
	leaq	-1(%rcx), %rax
	movq	%rax, 224(%rsp)         # 8-byte Spill
	movq	8(%rsp), %rax           # 8-byte Reload
	movq	%rax, 168(%rsp)         # 8-byte Spill
	movq	112(%rsp), %rax         # 8-byte Reload
	movq	%rax, 160(%rsp)         # 8-byte Spill
	movq	96(%rsp), %rax          # 8-byte Reload
	movq	%rax, 152(%rsp)         # 8-byte Spill
	movq	104(%rsp), %rax         # 8-byte Reload
	movq	%rax, 144(%rsp)         # 8-byte Spill
	movq	120(%rsp), %rax         # 8-byte Reload
	movq	%rax, 136(%rsp)         # 8-byte Spill
	xorl	%eax, %eax
	movq	%rax, 40(%rsp)          # 8-byte Spill
	.p2align	4, 0x90
.LBB6_7:                                # %polly.loop_header4
                                        #   Parent Loop BB6_4 Depth=1
                                        #     Parent Loop BB6_5 Depth=2
                                        # =>    This Loop Header: Depth=3
                                        #         Child Loop BB6_22 Depth 4
                                        #           Child Loop BB6_26 Depth 5
                                        #         Child Loop BB6_10 Depth 4
                                        #           Child Loop BB6_11 Depth 5
                                        #           Child Loop BB6_17 Depth 5
	cmpq	$0, 336(%rsp)           # 8-byte Folded Reload
	js	.LBB6_20
# BB#8:                                 # %polly.loop_header12.preheader
                                        #   in Loop: Header=BB6_7 Depth=3
	movq	64(%rsp), %rax          # 8-byte Reload
	testl	%eax, %eax
	sete	%al
	movq	40(%rsp), %rdx          # 8-byte Reload
	leaq	(,%rdx,8), %rcx
	movq	320(%rsp), %r9          # 8-byte Reload
	subq	%rcx, %r9
	cmpq	$7, %r9
	movl	$7, %ecx
	cmovgq	%rcx, %r9
	movq	%rdx, %rcx
	shlq	$5, %rcx
	orq	$31, %rcx
	cmpq	72(%rsp), %rcx          # 8-byte Folded Reload
	setl	%dil
	orb	%al, %dil
	testq	%r9, %r9
	js	.LBB6_19
# BB#9:                                 #   in Loop: Header=BB6_7 Depth=3
	decq	%r9
	movq	24(%rsp), %r13          # 8-byte Reload
	movq	8(%rsp), %rax           # 8-byte Reload
	movq	%rax, 240(%rsp)         # 8-byte Spill
	movq	32(%rsp), %rax          # 8-byte Reload
	movq	%rax, 232(%rsp)         # 8-byte Spill
	movq	168(%rsp), %rcx         # 8-byte Reload
	movq	160(%rsp), %rbx         # 8-byte Reload
	movq	152(%rsp), %rdx         # 8-byte Reload
	movq	144(%rsp), %rsi         # 8-byte Reload
	movq	136(%rsp), %r8          # 8-byte Reload
	xorl	%r11d, %r11d
	.p2align	4, 0x90
.LBB6_10:                               # %polly.loop_header12.us
                                        #   Parent Loop BB6_4 Depth=1
                                        #     Parent Loop BB6_5 Depth=2
                                        #       Parent Loop BB6_7 Depth=3
                                        # =>      This Loop Header: Depth=4
                                        #           Child Loop BB6_11 Depth 5
                                        #           Child Loop BB6_17 Depth 5
	movq	%r13, 352(%rsp)         # 8-byte Spill
	movq	%rsi, 360(%rsp)         # 8-byte Spill
	movq	%rdx, 368(%rsp)         # 8-byte Spill
	movq	%rbx, 376(%rsp)         # 8-byte Spill
	movq	%rcx, 384(%rsp)         # 8-byte Spill
	movq	%r12, %rbp
	movq	208(%rsp), %rax         # 8-byte Reload
	leaq	(%r11,%rax), %r10
	movq	%r10, 344(%rsp)         # 8-byte Spill
	imulq	80(%rsp), %r10          # 8-byte Folded Reload
	movq	$-1, %r12
	movq	%rdx, %rax
	movq	%rcx, %rdx
	movq	%rbx, %r13
	movq	%rsi, %rbx
	movq	%r8, %r15
	.p2align	4, 0x90
.LBB6_11:                               # %polly.loop_header21.us
                                        #   Parent Loop BB6_4 Depth=1
                                        #     Parent Loop BB6_5 Depth=2
                                        #       Parent Loop BB6_7 Depth=3
                                        #         Parent Loop BB6_10 Depth=4
                                        # =>        This Inner Loop Header: Depth=5
	movq	(%rdx), %rcx
	movq	%rcx, -24(%r15)
	movq	(%r13), %rcx
	movq	%rcx, -16(%r15)
	movq	(%rax), %rcx
	movq	%rcx, -8(%r15)
	movq	(%rbx), %rcx
	movq	%rcx, (%r15)
	incq	%r12
	addq	$32, %r15
	addq	%r14, %rbx
	addq	%r14, %rax
	addq	%r14, %r13
	addq	%r14, %rdx
	cmpq	%r9, %r12
	jle	.LBB6_11
# BB#12:                                # %polly.cond.loopexit.us
                                        #   in Loop: Header=BB6_10 Depth=4
	testb	%dil, %dil
	movb	%dil, %r15b
	movq	%rbp, %r12
	movq	352(%rsp), %r13         # 8-byte Reload
	jne	.LBB6_18
# BB#13:                                # %polly.loop_header38.us.preheader
                                        #   in Loop: Header=BB6_10 Depth=4
	cmpq	$0, 200(%rsp)           # 8-byte Folded Reload
	movl	$0, %esi
	je	.LBB6_15
# BB#14:                                # %polly.loop_header38.us.prol
                                        #   in Loop: Header=BB6_10 Depth=4
	movq	344(%rsp), %rcx         # 8-byte Reload
	addq	176(%rsp), %rcx         # 8-byte Folded Reload
	movq	56(%rsp), %rax          # 8-byte Reload
	movq	(%rax,%rcx,8), %rax
	addq	(%rsp), %r10            # 8-byte Folded Reload
	movq	48(%rsp), %rcx          # 8-byte Reload
	movq	%rax, (%rcx,%r10,8)
	movl	$1, %esi
.LBB6_15:                               # %polly.loop_header38.us.preheader.split
                                        #   in Loop: Header=BB6_10 Depth=4
	cmpq	$0, 192(%rsp)           # 8-byte Folded Reload
	je	.LBB6_18
# BB#16:                                # %polly.loop_header38.us.preheader.split.split
                                        #   in Loop: Header=BB6_10 Depth=4
	movq	64(%rsp), %rax          # 8-byte Reload
	subq	%rsi, %rax
	movq	72(%rsp), %rdx          # 8-byte Reload
	leaq	(%rdx,%rsi), %rcx
	movq	232(%rsp), %rdi         # 8-byte Reload
	leaq	(%rdi,%rcx,8), %r10
	movq	184(%rsp), %rcx         # 8-byte Reload
	leaq	(%rcx,%rsi), %rcx
	imulq	%rdx, %rcx
	movq	240(%rsp), %rbp         # 8-byte Reload
	leaq	(%rbp,%rcx,8), %rbx
	leaq	(%r13,%rsi,8), %rdi
	addq	(%rsp), %rsi            # 8-byte Folded Reload
	imulq	%rdx, %rsi
	leaq	(%rbp,%rsi,8), %rsi
	xorl	%ebp, %ebp
	xorl	%ecx, %ecx
	.p2align	4, 0x90
.LBB6_17:                               # %polly.loop_header38.us
                                        #   Parent Loop BB6_4 Depth=1
                                        #     Parent Loop BB6_5 Depth=2
                                        #       Parent Loop BB6_7 Depth=3
                                        #         Parent Loop BB6_10 Depth=4
                                        # =>        This Inner Loop Header: Depth=5
	movq	(%rsi,%rbp,8), %rdx
	movq	%rdx, (%rdi,%rcx,8)
	movq	(%rbx,%rbp,8), %rdx
	movq	%rdx, (%r10,%rcx,8)
	addq	$2, %rcx
	addq	%r12, %rbp
	cmpq	%rcx, %rax
	jne	.LBB6_17
.LBB6_18:                               # %polly.merge.us
                                        #   in Loop: Header=BB6_10 Depth=4
	movq	216(%rsp), %rax         # 8-byte Reload
	addq	%rax, %r8
	movq	360(%rsp), %rsi         # 8-byte Reload
	addq	$8, %rsi
	movq	368(%rsp), %rdx         # 8-byte Reload
	addq	$8, %rdx
	movq	376(%rsp), %rbx         # 8-byte Reload
	addq	$8, %rbx
	movq	384(%rsp), %rcx         # 8-byte Reload
	addq	$8, %rcx
	addq	%rax, 232(%rsp)         # 8-byte Folded Spill
	addq	$8, 240(%rsp)           # 8-byte Folded Spill
	addq	%rax, %r13
	cmpq	224(%rsp), %r11         # 8-byte Folded Reload
	leaq	1(%r11), %r11
	movb	%r15b, %dil
	jle	.LBB6_10
	jmp	.LBB6_20
	.p2align	4, 0x90
.LBB6_19:                               # %polly.loop_header12.preheader.split
                                        #   in Loop: Header=BB6_7 Depth=3
	testb	%dil, %dil
	movq	24(%rsp), %r8           # 8-byte Reload
	movq	8(%rsp), %r10           # 8-byte Reload
	movq	32(%rsp), %r9           # 8-byte Reload
	movl	$0, %r11d
	jne	.LBB6_20
	.p2align	4, 0x90
.LBB6_22:                               # %polly.loop_header12
                                        #   Parent Loop BB6_4 Depth=1
                                        #     Parent Loop BB6_5 Depth=2
                                        #       Parent Loop BB6_7 Depth=3
                                        # =>      This Loop Header: Depth=4
                                        #           Child Loop BB6_26 Depth 5
	cmpq	$0, 200(%rsp)           # 8-byte Folded Reload
	movl	$0, %edx
	je	.LBB6_24
# BB#23:                                # %polly.loop_header38.prol
                                        #   in Loop: Header=BB6_22 Depth=4
	movq	208(%rsp), %rax         # 8-byte Reload
	leaq	(%r11,%rax), %rax
	movq	176(%rsp), %rcx         # 8-byte Reload
	leaq	(%rcx,%rax), %rcx
	imulq	80(%rsp), %rax          # 8-byte Folded Reload
	movq	56(%rsp), %rdx          # 8-byte Reload
	movq	(%rdx,%rcx,8), %rcx
	addq	(%rsp), %rax            # 8-byte Folded Reload
	movq	48(%rsp), %rdx          # 8-byte Reload
	movq	%rcx, (%rdx,%rax,8)
	movl	$1, %edx
.LBB6_24:                               # %polly.loop_header12.split
                                        #   in Loop: Header=BB6_22 Depth=4
	cmpq	$0, 192(%rsp)           # 8-byte Folded Reload
	je	.LBB6_27
# BB#25:                                # %polly.loop_header12.split.split
                                        #   in Loop: Header=BB6_22 Depth=4
	movq	64(%rsp), %rdi          # 8-byte Reload
	subq	%rdx, %rdi
	movq	72(%rsp), %rcx          # 8-byte Reload
	leaq	(%rcx,%rdx), %rax
	leaq	(%r9,%rax,8), %r15
	movq	184(%rsp), %rax         # 8-byte Reload
	leaq	(%rax,%rdx), %rax
	imulq	%rcx, %rax
	leaq	(%r10,%rax,8), %rbx
	leaq	(%r8,%rdx,8), %rax
	addq	(%rsp), %rdx            # 8-byte Folded Reload
	imulq	%rcx, %rdx
	leaq	(%r10,%rdx,8), %rdx
	xorl	%ecx, %ecx
	xorl	%esi, %esi
	.p2align	4, 0x90
.LBB6_26:                               # %polly.loop_header38
                                        #   Parent Loop BB6_4 Depth=1
                                        #     Parent Loop BB6_5 Depth=2
                                        #       Parent Loop BB6_7 Depth=3
                                        #         Parent Loop BB6_22 Depth=4
                                        # =>        This Inner Loop Header: Depth=5
	movq	(%rdx,%rcx,8), %rbp
	movq	%rbp, (%rax,%rsi,8)
	movq	(%rbx,%rcx,8), %rbp
	movq	%rbp, (%r15,%rsi,8)
	addq	$2, %rsi
	addq	%r12, %rcx
	cmpq	%rsi, %rdi
	jne	.LBB6_26
.LBB6_27:                               # %polly.merge
                                        #   in Loop: Header=BB6_22 Depth=4
	movq	216(%rsp), %rax         # 8-byte Reload
	addq	%rax, %r9
	addq	$8, %r10
	addq	%rax, %r8
	cmpq	224(%rsp), %r11         # 8-byte Folded Reload
	leaq	1(%r11), %r11
	jle	.LBB6_22
	.p2align	4, 0x90
.LBB6_20:                               # %polly.loop_exit14
                                        #   in Loop: Header=BB6_7 Depth=3
	addq	$256, 136(%rsp)         # 8-byte Folded Spill
                                        # imm = 0x100
	movq	328(%rsp), %rax         # 8-byte Reload
	addq	%rax, 144(%rsp)         # 8-byte Folded Spill
	addq	%rax, 152(%rsp)         # 8-byte Folded Spill
	addq	%rax, 160(%rsp)         # 8-byte Folded Spill
	addq	%rax, 168(%rsp)         # 8-byte Folded Spill
	movq	40(%rsp), %rax          # 8-byte Reload
	cmpq	128(%rsp), %rax         # 8-byte Folded Reload
	leaq	1(%rax), %rax
	movq	%rax, 40(%rsp)          # 8-byte Spill
	jne	.LBB6_7
.LBB6_21:                               # %polly.loop_exit6
                                        #   in Loop: Header=BB6_5 Depth=2
	movq	88(%rsp), %rax          # 8-byte Reload
	addq	%rax, 32(%rsp)          # 8-byte Folded Spill
	addq	$256, 8(%rsp)           # 8-byte Folded Spill
                                        # imm = 0x100
	addq	%rax, 24(%rsp)          # 8-byte Folded Spill
	addq	%rax, 120(%rsp)         # 8-byte Folded Spill
	addq	$256, 104(%rsp)         # 8-byte Folded Spill
                                        # imm = 0x100
	addq	$256, 96(%rsp)          # 8-byte Folded Spill
                                        # imm = 0x100
	addq	$256, 112(%rsp)         # 8-byte Folded Spill
                                        # imm = 0x100
	movq	16(%rsp), %rax          # 8-byte Reload
	cmpq	312(%rsp), %rax         # 8-byte Folded Reload
	leaq	1(%rax), %rax
	movq	%rax, 16(%rsp)          # 8-byte Spill
	jle	.LBB6_5
# BB#3:                                 # %polly.par.checkNext.loopexit
                                        #   in Loop: Header=BB6_4 Depth=1
	leaq	256(%rsp), %rdi
	leaq	248(%rsp), %rsi
	callq	GOMP_loop_runtime_next
	testb	%al, %al
	jne	.LBB6_4
.LBB6_2:                                # %polly.par.exit
	callq	GOMP_loop_end_nowait
	addq	$392, %rsp              # imm = 0x188
	popq	%rbx
	popq	%r12
	popq	%r13
	popq	%r14
	popq	%r15
	popq	%rbp
	retq
.Lfunc_end6:
	.size	matmult_polly_subfn_5, .Lfunc_end6-matmult_polly_subfn_5
	.cfi_endproc

	.type	.L.str,@object          # @.str
	.section	.rodata.str1.1,"aMS",@progbits,1
.L.str:
	.asciz	"%d"
	.size	.L.str, 3

	.type	.L.str.1,@object        # @.str.1
.L.str.1:
	.asciz	"N = %d\n"
	.size	.L.str.1, 8

	.type	.L.str.2,@object        # @.str.2
.L.str.2:
	.asciz	"Pass %d X %d matrix test case \n"
	.size	.L.str.2, 32

	.type	.L.str.3,@object        # @.str.3
.L.str.3:
	.asciz	"A[%dX%d+%d] = %lld, B[%dX%d+%d] =%lld, C[%dX%d+%d] =%lld \n"
	.size	.L.str.3, 59

	.section	".note.GNU-stack","",@progbits