	.text
	.file	"llvm/CoinGame_array.polly.ll"
	.globl	findMoves
	.p2align	4, 0x90
	.type	findMoves,@function
findMoves:                              # @findMoves
.Lfunc_begin0:
	.file	1 "CoinGame_array.c"
	.loc	1 2 0                   # CoinGame_array.c:2:0
	.cfi_startproc
# BB#0:                                 # %entry
	pushq	%rbp
.Ltmp0:
	.cfi_def_cfa_offset 16
	pushq	%r15
.Ltmp1:
	.cfi_def_cfa_offset 24
	pushq	%r14
.Ltmp2:
	.cfi_def_cfa_offset 32
	pushq	%r13
.Ltmp3:
	.cfi_def_cfa_offset 40
	pushq	%r12
.Ltmp4:
	.cfi_def_cfa_offset 48
	pushq	%rbx
.Ltmp5:
	.cfi_def_cfa_offset 56
	subq	$104, %rsp
.Ltmp6:
	.cfi_def_cfa_offset 160
.Ltmp7:
	.cfi_offset %rbx, -56
.Ltmp8:
	.cfi_offset %r12, -48
.Ltmp9:
	.cfi_offset %r13, -40
.Ltmp10:
	.cfi_offset %r14, -32
.Ltmp11:
	.cfi_offset %r15, -24
.Ltmp12:
	.cfi_offset %rbp, -16
	#DEBUG_VALUE: findMoves:moves <- %RDI
	#DEBUG_VALUE: findMoves:moves_size <- %RSI
	#DEBUG_VALUE: findMoves:moves_dealloc [bit_piece offset=0 size=1] <- %EDX
	#DEBUG_VALUE: findMoves:n <- %RCX
.Ltmp13:
	#DEBUG_VALUE: findMoves:_10_size <- %RCX
	#DEBUG_VALUE: findMoves:x_size <- %RCX
	#DEBUG_VALUE: findMoves:_12_size <- %RCX
	#DEBUG_VALUE: findMoves:y_size <- %RCX
	#DEBUG_VALUE: findMoves:_14_size <- %RCX
	#DEBUG_VALUE: findMoves:z_size <- %RCX
	movq	%rcx, %rbp
.Ltmp14:
	#DEBUG_VALUE: findMoves:z_size <- %RBP
	#DEBUG_VALUE: findMoves:_14_size <- %RBP
	#DEBUG_VALUE: findMoves:y_size <- %RBP
	#DEBUG_VALUE: findMoves:_12_size <- %RBP
	#DEBUG_VALUE: findMoves:x_size <- %RBP
	#DEBUG_VALUE: findMoves:_10_size <- %RBP
	#DEBUG_VALUE: findMoves:n <- %RBP
	movq	%rdi, 16(%rsp)          # 8-byte Spill
.Ltmp15:
	#DEBUG_VALUE: findMoves:_70 <- 0
	#DEBUG_VALUE: findMoves:_69 <- 0
	#DEBUG_VALUE: findMoves:_68 <- 0
	#DEBUG_VALUE: findMoves:_67 <- 0
	#DEBUG_VALUE: findMoves:_66 <- 0
	#DEBUG_VALUE: findMoves:_65 <- 0
	#DEBUG_VALUE: findMoves:_64 <- 0
	#DEBUG_VALUE: findMoves:_63 <- 0
	#DEBUG_VALUE: findMoves:_62 <- 0
	#DEBUG_VALUE: findMoves:_61 <- 0
	#DEBUG_VALUE: findMoves:_60 <- 0
	#DEBUG_VALUE: findMoves:_59 <- 0
	#DEBUG_VALUE: findMoves:_58 <- 0
	#DEBUG_VALUE: findMoves:_57 <- 0
	#DEBUG_VALUE: findMoves:_56 <- 0
	#DEBUG_VALUE: findMoves:_55 <- 0
	#DEBUG_VALUE: findMoves:_54 <- 0
	#DEBUG_VALUE: findMoves:_53 <- 0
	#DEBUG_VALUE: findMoves:_52 <- 0
	#DEBUG_VALUE: findMoves:_51 <- 0
	#DEBUG_VALUE: findMoves:_50 <- 0
	#DEBUG_VALUE: findMoves:_49 <- 0
	#DEBUG_VALUE: findMoves:_48 <- 0
	#DEBUG_VALUE: findMoves:_47 <- 0
	#DEBUG_VALUE: findMoves:_46 <- 0
	#DEBUG_VALUE: findMoves:_45 <- 0
	#DEBUG_VALUE: findMoves:_44 <- 0
	#DEBUG_VALUE: findMoves:_43 <- 0
	#DEBUG_VALUE: findMoves:_42 <- 0
	#DEBUG_VALUE: findMoves:_41 <- 0
	#DEBUG_VALUE: findMoves:_40 <- 0
	#DEBUG_VALUE: findMoves:_39 <- 0
	#DEBUG_VALUE: findMoves:_38 <- 0
	#DEBUG_VALUE: findMoves:_37 <- 0
	#DEBUG_VALUE: findMoves:_36 <- 0
	#DEBUG_VALUE: findMoves:_35 <- 0
	#DEBUG_VALUE: findMoves:_34 <- 0
	#DEBUG_VALUE: findMoves:_33 <- 0
	#DEBUG_VALUE: findMoves:_32 <- 0
	#DEBUG_VALUE: findMoves:_31 <- 0
	#DEBUG_VALUE: findMoves:_30 <- 0
	#DEBUG_VALUE: findMoves:_29 <- 0
	#DEBUG_VALUE: findMoves:_28 <- 0
	#DEBUG_VALUE: findMoves:_27 <- 0
	#DEBUG_VALUE: findMoves:_26 <- 0
	#DEBUG_VALUE: findMoves:_25 <- 0
	#DEBUG_VALUE: findMoves:_24 <- 0
	#DEBUG_VALUE: findMoves:_23 <- 0
	#DEBUG_VALUE: findMoves:_22 <- 0
	#DEBUG_VALUE: findMoves:_21 <- 0
	#DEBUG_VALUE: findMoves:_20 <- 0
	#DEBUG_VALUE: findMoves:_19 <- 0
	#DEBUG_VALUE: findMoves:_18 <- 0
	#DEBUG_VALUE: findMoves:_17 <- 0
	#DEBUG_VALUE: findMoves:_16 <- 0
	#DEBUG_VALUE: findMoves:_15 <- 0
	#DEBUG_VALUE: findMoves:_14_dealloc <- 0
	#DEBUG_VALUE: findMoves:_13 <- 0
	#DEBUG_VALUE: findMoves:_12_dealloc <- 0
	#DEBUG_VALUE: findMoves:_11 <- 0
	#DEBUG_VALUE: findMoves:_10_dealloc <- 0
	#DEBUG_VALUE: findMoves:_9 <- 0
	#DEBUG_VALUE: findMoves:i <- 0
	#DEBUG_VALUE: findMoves:j <- 0
	#DEBUG_VALUE: findMoves:s <- 0
	#DEBUG_VALUE: findMoves:z_dealloc <- 0
	#DEBUG_VALUE: findMoves:y_dealloc <- 0
	#DEBUG_VALUE: findMoves:x_dealloc <- 0
	#DEBUG_VALUE: findMoves:_2_dealloc <- 0
	#DEBUG_VALUE: findMoves:_2_size <- 0
	#DEBUG_VALUE: findMoves:z_size <- 0
	#DEBUG_VALUE: findMoves:_14_size <- 0
	#DEBUG_VALUE: findMoves:y_size <- 0
	#DEBUG_VALUE: findMoves:_12_size <- 0
	#DEBUG_VALUE: findMoves:x_size <- 0
	#DEBUG_VALUE: findMoves:_10_size <- 0
	#DEBUG_VALUE: findMoves:moves <- [%RSP+16]
	.loc	1 83 2 prologue_end     # CoinGame_array.c:83:2
	xorl	%edi, %edi
	movl	%ebp, %esi
.Ltmp16:
	callq	create1DArray
.Ltmp17:
	movq	%rax, %r13
.Ltmp18:
	#DEBUG_VALUE: findMoves:_10 <- %R13
	#DEBUG_VALUE: findMoves:x <- %R13
	#DEBUG_VALUE: findMoves:x_dealloc <- 1
	.loc	1 93 2                  # CoinGame_array.c:93:2
	xorl	%edi, %edi
	movl	%ebp, %esi
	callq	create1DArray
	movq	%rax, %r12
.Ltmp19:
	#DEBUG_VALUE: findMoves:_12 <- %R12
	#DEBUG_VALUE: findMoves:y <- %R12
	#DEBUG_VALUE: findMoves:y_dealloc <- 1
	.loc	1 103 2                 # CoinGame_array.c:103:2
	xorl	%edi, %edi
	movl	%ebp, %esi
	callq	create1DArray
	movq	%rbp, %rdx
.Ltmp20:
	#DEBUG_VALUE: findMoves:n <- %RDX
	movq	%rax, %rbx
.Ltmp21:
	#DEBUG_VALUE: findMoves:_14 <- %RBX
	#DEBUG_VALUE: findMoves:z <- %RBX
	#DEBUG_VALUE: findMoves:z_dealloc <- 1
	.loc	1 116 6                 # CoinGame_array.c:116:6
	testq	%rdx, %rdx
	jle	.LBB0_24
.Ltmp22:
# BB#1:                                 # %polly.split_new_and_old
	#DEBUG_VALUE: findMoves:z <- %RBX
	#DEBUG_VALUE: findMoves:_14 <- %RBX
	#DEBUG_VALUE: findMoves:n <- %RDX
	#DEBUG_VALUE: findMoves:y <- %R12
	#DEBUG_VALUE: findMoves:_12 <- %R12
	#DEBUG_VALUE: findMoves:x <- %R13
	#DEBUG_VALUE: findMoves:_10 <- %R13
	movq	%rdx, %rax
	decq	%rax
	seto	%r10b
	movq	%rax, 64(%rsp)          # 8-byte Spill
	movq	%rax, %rcx
	imulq	%rdx, %rcx
	seto	8(%rsp)                 # 1-byte Folded Spill
	addq	%rdx, %rcx
	seto	56(%rsp)                # 1-byte Folded Spill
	movq	16(%rsp), %rax          # 8-byte Reload
	leaq	(%rax,%rcx,8), %rsi
	cmpq	%r12, %rsi
	setbe	48(%rsp)                # 1-byte Folded Spill
	leaq	(%r12,%rdx,8), %rcx
	cmpq	%rax, %rcx
	setbe	40(%rsp)                # 1-byte Folded Spill
	leaq	(%r13,%rdx,8), %rdi
	cmpq	%r12, %rdi
	setbe	%bpl
	cmpq	%r13, %rcx
	setbe	32(%rsp)                # 1-byte Folded Spill
	movq	%rdx, 24(%rsp)          # 8-byte Spill
	movq	24(%rsp), %rdx          # 8-byte Reload
.Ltmp23:
	movq	%rbx, (%rsp)            # 8-byte Spill
	movq	(%rsp), %rbx            # 8-byte Reload
.Ltmp24:
	leaq	(%rbx,%rdx,8), %r8
	cmpq	%r12, %r8
	setbe	%r11b
	cmpq	(%rsp), %rcx            # 8-byte Folded Reload
	setbe	%r15b
	cmpq	%rax, %rdi
	setbe	%r14b
	cmpq	%r13, %rsi
	setbe	%dl
	cmpq	%rax, %r8
	setbe	%r9b
	cmpq	(%rsp), %rsi            # 8-byte Folded Reload
	setbe	%sil
	cmpq	%r13, %r8
	movq	(%rsp), %rbx            # 8-byte Reload
	movq	24(%rsp), %r8           # 8-byte Reload
	setbe	%cl
	cmpq	%rbx, %rdi
	setbe	%al
	orb	%cl, %al
	cmpb	$1, %al
	jne	.LBB0_9
.Ltmp25:
# BB#2:                                 # %polly.split_new_and_old
	#DEBUG_VALUE: findMoves:y <- %R12
	#DEBUG_VALUE: findMoves:_12 <- %R12
	#DEBUG_VALUE: findMoves:x <- %R13
	#DEBUG_VALUE: findMoves:_10 <- %R13
	orb	%r9b, %sil
	je	.LBB0_9
.Ltmp26:
# BB#3:                                 # %polly.split_new_and_old
	#DEBUG_VALUE: findMoves:y <- %R12
	#DEBUG_VALUE: findMoves:_12 <- %R12
	#DEBUG_VALUE: findMoves:x <- %R13
	#DEBUG_VALUE: findMoves:_10 <- %R13
	orb	%r14b, %dl
	je	.LBB0_9
.Ltmp27:
# BB#4:                                 # %polly.split_new_and_old
	#DEBUG_VALUE: findMoves:y <- %R12
	#DEBUG_VALUE: findMoves:_12 <- %R12
	#DEBUG_VALUE: findMoves:x <- %R13
	#DEBUG_VALUE: findMoves:_10 <- %R13
	orb	%r11b, %r15b
	je	.LBB0_9
.Ltmp28:
# BB#5:                                 # %polly.split_new_and_old
	#DEBUG_VALUE: findMoves:y <- %R12
	#DEBUG_VALUE: findMoves:_12 <- %R12
	#DEBUG_VALUE: findMoves:x <- %R13
	#DEBUG_VALUE: findMoves:_10 <- %R13
	orb	32(%rsp), %bpl          # 1-byte Folded Reload
	je	.LBB0_9
.Ltmp29:
# BB#6:                                 # %polly.split_new_and_old
	#DEBUG_VALUE: findMoves:y <- %R12
	#DEBUG_VALUE: findMoves:_12 <- %R12
	#DEBUG_VALUE: findMoves:x <- %R13
	#DEBUG_VALUE: findMoves:_10 <- %R13
	movabsq	$9223372036854775807, %rax # imm = 0x7FFFFFFFFFFFFFFF
	cmpq	%rax, %r8
	je	.LBB0_9
.Ltmp30:
# BB#7:                                 # %polly.split_new_and_old
	#DEBUG_VALUE: findMoves:y <- %R12
	#DEBUG_VALUE: findMoves:_12 <- %R12
	#DEBUG_VALUE: findMoves:x <- %R13
	#DEBUG_VALUE: findMoves:_10 <- %R13
	movb	40(%rsp), %al           # 1-byte Reload
	orb	%al, 48(%rsp)           # 1-byte Folded Spill
	je	.LBB0_9
.Ltmp31:
# BB#8:                                 # %polly.split_new_and_old
	#DEBUG_VALUE: findMoves:y <- %R12
	#DEBUG_VALUE: findMoves:_12 <- %R12
	#DEBUG_VALUE: findMoves:x <- %R13
	#DEBUG_VALUE: findMoves:_10 <- %R13
	orb	8(%rsp), %r10b          # 1-byte Folded Reload
	orb	56(%rsp), %r10b         # 1-byte Folded Reload
	xorb	$1, %r10b
	je	.LBB0_9
.Ltmp32:
# BB#25:                                # %polly.loop_preheader
	#DEBUG_VALUE: findMoves:y <- %R12
	#DEBUG_VALUE: findMoves:_12 <- %R12
	#DEBUG_VALUE: findMoves:x <- %R13
	#DEBUG_VALUE: findMoves:_10 <- %R13
	movq	16(%rsp), %rax          # 8-byte Reload
	leaq	-8(%rax,%r8,8), %r9
	leaq	8(,%r8,8), %r10
	movq	%r8, %r11
	shlq	$4, %r11
	addq	%rax, %r11
	leaq	-16(%rax), %r14
	leaq	-2(%r8), %rcx
	movq	%rcx, 80(%rsp)          # 8-byte Spill
	movl	$1, %ecx
	movl	$2, %edx
	movq	%rax, %rdi
	xorl	%ebp, %ebp
	movq	%r10, 72(%rsp)          # 8-byte Spill
.Ltmp33:
	.p2align	4, 0x90
.LBB0_26:                               # %polly.loop_header
                                        # =>This Loop Header: Depth=1
                                        #     Child Loop BB0_44 Depth 2
                                        #     Child Loop BB0_46 Depth 2
                                        #     Child Loop BB0_48 Depth 2
                                        #     Child Loop BB0_33 Depth 2
                                        #     Child Loop BB0_37 Depth 2
                                        #     Child Loop BB0_41 Depth 2
	movq	%rdi, 32(%rsp)          # 8-byte Spill
	movq	%r14, 56(%rsp)          # 8-byte Spill
	testq	%rdx, %rdx
	movq	%rbp, %rsi
	movl	$0, %ebp
	movq	%rdx, 40(%rsp)          # 8-byte Spill
	cmovnsq	%rdx, %rbp
	testq	%rcx, %rcx
	movl	$0, %r14d
	movq	%rcx, 48(%rsp)          # 8-byte Spill
	cmovnsq	%rcx, %r14
	movq	64(%rsp), %rdx          # 8-byte Reload
	movq	%rdx, %rax
	subq	%rsi, %rax
	movl	$0, %ecx
	cmovsq	%rcx, %rax
	movq	%r8, %r15
	movq	%rsi, 8(%rsp)           # 8-byte Spill
	subq	%rsi, %r15
	jle	.LBB0_28
# BB#27:                                # %polly.loop_header394.preheader
                                        #   in Loop: Header=BB0_26 Depth=1
	leaq	8(,%rax,8), %rbx
	xorl	%esi, %esi
	movq	%r13, %rdi
	movq	%rbx, %rdx
	movq	%r9, 96(%rsp)           # 8-byte Spill
	movq	%r11, 88(%rsp)          # 8-byte Spill
	callq	memset
	xorl	%esi, %esi
	movq	(%rsp), %rdi            # 8-byte Reload
	movq	%rbx, %rdx
	callq	memset
	xorl	%esi, %esi
	movq	%r12, %rdi
	movq	%rbx, %rdx
	callq	memset
	movq	88(%rsp), %r11          # 8-byte Reload
	movq	72(%rsp), %r10          # 8-byte Reload
	movq	96(%rsp), %r9           # 8-byte Reload
	movq	64(%rsp), %rdx          # 8-byte Reload
	movq	24(%rsp), %r8           # 8-byte Reload
.LBB0_28:                               # %polly.loop_exit396
                                        #   in Loop: Header=BB0_26 Depth=1
	movl	$1, %eax
	subq	8(%rsp), %rax           # 8-byte Folded Reload
	movl	$0, %ecx
	cmovnsq	%rax, %rcx
	cmpq	%r15, %rdx
	movq	%r15, %rax
	cmovleq	%rdx, %rax
	cmpq	%rax, %rcx
	jge	.LBB0_29
# BB#43:                                # %polly.loop_preheader405
                                        #   in Loop: Header=BB0_26 Depth=1
	movq	%r10, %rcx
	imulq	%r14, %rcx
	decq	%r14
	addq	%r9, %rcx
	decq	%rax
	.p2align	4, 0x90
.LBB0_44:                               # %polly.loop_header404
                                        #   Parent Loop BB0_26 Depth=1
                                        # =>  This Inner Loop Header: Depth=2
	movq	(%rcx), %rdx
	movq	%rdx, 8(%r12,%r14,8)
	incq	%r14
	addq	%r10, %rcx
	cmpq	%rax, %r14
	jl	.LBB0_44
.LBB0_29:                               # %polly.loop_exit406
                                        #   in Loop: Header=BB0_26 Depth=1
	movq	80(%rsp), %rcx          # 8-byte Reload
	cmpq	%r15, %rcx
	movq	%r15, %rax
	cmovleq	%rcx, %rax
	testq	%rax, %rax
	movq	(%rsp), %rbx            # 8-byte Reload
	jle	.LBB0_30
# BB#45:                                # %polly.loop_preheader419
                                        #   in Loop: Header=BB0_26 Depth=1
	decq	%rax
	movq	$-1, %rcx
	movq	%r11, %rdx
	.p2align	4, 0x90
.LBB0_46:                               # %polly.loop_header418
                                        #   Parent Loop BB0_26 Depth=1
                                        # =>  This Inner Loop Header: Depth=2
	movq	(%rdx), %rsi
	movq	%rsi, 8(%r13,%rcx,8)
	incq	%rcx
	addq	%r10, %rdx
	cmpq	%rax, %rcx
	jl	.LBB0_46
.LBB0_30:                               # %polly.loop_exit420
                                        #   in Loop: Header=BB0_26 Depth=1
	movl	$2, %eax
	subq	8(%rsp), %rax           # 8-byte Folded Reload
	movl	$0, %ecx
	cmovnsq	%rax, %rcx
	cmpq	%r15, %rcx
	movq	56(%rsp), %r14          # 8-byte Reload
	movq	32(%rsp), %rdi          # 8-byte Reload
	jge	.LBB0_31
# BB#47:                                # %polly.loop_preheader435
                                        #   in Loop: Header=BB0_26 Depth=1
	movq	%r10, %rax
	imulq	%rbp, %rax
	decq	%rbp
	addq	%r14, %rax
	leaq	-1(%r15), %rcx
	.p2align	4, 0x90
.LBB0_48:                               # %polly.loop_header434
                                        #   Parent Loop BB0_26 Depth=1
                                        # =>  This Inner Loop Header: Depth=2
	movq	(%rax), %rdx
	movq	%rdx, 8(%rbx,%rbp,8)
	incq	%rbp
	addq	%r10, %rax
	cmpq	%rcx, %rbp
	jl	.LBB0_48
.LBB0_31:                               # %polly.loop_exit436
                                        #   in Loop: Header=BB0_26 Depth=1
	testq	%r15, %r15
	movq	8(%rsp), %rbp           # 8-byte Reload
	jle	.LBB0_42
# BB#32:                                # %polly.loop_header450.preheader
                                        #   in Loop: Header=BB0_26 Depth=1
	decq	%r15
	movq	$-1, %rax
	.p2align	4, 0x90
.LBB0_33:                               # %polly.loop_header450
                                        #   Parent Loop BB0_26 Depth=1
                                        # =>  This Inner Loop Header: Depth=2
	movq	8(%r12,%rax,8), %rcx
.Ltmp34:
	.loc	1 218 7                 # CoinGame_array.c:218:7
	cmpq	%rcx, 8(%r13,%rax,8)
	jle	.LBB0_35
# BB#34:                                # %polly.stmt.if.end78
                                        #   in Loop: Header=BB0_33 Depth=2
	movq	%rcx, 8(%r13,%rax,8)
.LBB0_35:                               # %polly.stmt.blklab7.exit
                                        #   in Loop: Header=BB0_33 Depth=2
	incq	%rax
	cmpq	%r15, %rax
	jl	.LBB0_33
# BB#36:                                # %polly.loop_header463.preheader
                                        #   in Loop: Header=BB0_26 Depth=1
	movq	$-1, %rax
	.p2align	4, 0x90
.LBB0_37:                               # %polly.loop_header463
                                        #   Parent Loop BB0_26 Depth=1
                                        # =>  This Inner Loop Header: Depth=2
	movq	8(%r12,%rax,8), %rcx
	.loc	1 230 7                 # CoinGame_array.c:230:7
	cmpq	%rcx, 8(%rbx,%rax,8)
	jle	.LBB0_39
# BB#38:                                # %polly.stmt.if.end86
                                        #   in Loop: Header=BB0_37 Depth=2
	movq	%rcx, 8(%rbx,%rax,8)
.LBB0_39:                               # %polly.stmt.blklab8.exit
                                        #   in Loop: Header=BB0_37 Depth=2
	incq	%rax
	cmpq	%r15, %rax
	jl	.LBB0_37
# BB#40:                                # %polly.loop_preheader477
                                        #   in Loop: Header=BB0_26 Depth=1
	movq	%rdi, %rax
	xorl	%ecx, %ecx
	.p2align	4, 0x90
.LBB0_41:                               # %polly.loop_header476
                                        #   Parent Loop BB0_26 Depth=1
                                        # =>  This Inner Loop Header: Depth=2
	movq	(%r13,%rcx,8), %rdx
	addq	%rcx, %rdx
.Ltmp35:
	.loc	1 246 10                # CoinGame_array.c:246:10
	leaq	(%rbp,%rcx), %rsi
	addq	(%rbx,%rcx,8), %rsi
	cmpq	%rsi, %rdx
.Ltmp36:
	.loc	1 246 7 is_stmt 0       # CoinGame_array.c:246:7
	cmovgeq	%rdx, %rsi
	movq	%rsi, (%rax)
	addq	%r10, %rax
	cmpq	%r15, %rcx
	leaq	1(%rcx), %rcx
	jl	.LBB0_41
.LBB0_42:                               # %polly.loop_exit478
                                        #   in Loop: Header=BB0_26 Depth=1
	incq	%rbp
	movq	48(%rsp), %rcx          # 8-byte Reload
	decq	%rcx
	addq	$8, %r9
	addq	$8, %r11
	movq	40(%rsp), %rdx          # 8-byte Reload
	decq	%rdx
	addq	$8, %r14
	addq	$8, %rdi
	cmpq	%r8, %rbp
	jne	.LBB0_26
	jmp	.LBB0_24
.LBB0_9:                                # %while.cond32.preheader.preheader
.Ltmp37:
	#DEBUG_VALUE: findMoves:y <- %R12
	#DEBUG_VALUE: findMoves:_12 <- %R12
	#DEBUG_VALUE: findMoves:x <- %R13
	#DEBUG_VALUE: findMoves:_10 <- %R13
	.loc	1 126 7 is_stmt 1       # CoinGame_array.c:126:7
	leaq	(,%r8,8), %r9
	leaq	8(,%r8,8), %r11
	movq	%r8, %r10
	shlq	$4, %r10
	xorl	%r14d, %r14d
	movq	16(%rsp), %rax          # 8-byte Reload
	movq	%r8, %r15
.Ltmp38:
	.p2align	4, 0x90
.LBB0_10:                               # %while.cond32.preheader
                                        # =>This Loop Header: Depth=1
                                        #     Child Loop BB0_11 Depth 2
	movq	%rax, 8(%rsp)           # 8-byte Spill
	movq	%rax, %rdi
	xorl	%eax, %eax
	.p2align	4, 0x90
.LBB0_11:                               # %if.end37
                                        #   Parent Loop BB0_10 Depth=1
                                        # =>  This Inner Loop Header: Depth=2
	#DEBUG_VALUE: findMoves:_17 <- 0
	.loc	1 25 12                 # CoinGame_array.c:25:12
	leaq	(%r14,%rax), %rcx
.Ltmp39:
	.loc	1 130 9                 # CoinGame_array.c:130:9
	movq	$0, (%r12,%rax,8)
.Ltmp40:
	#DEBUG_VALUE: findMoves:_18 <- 1
	.loc	1 134 9                 # CoinGame_array.c:134:9
	leaq	1(%rax), %rdx
.Ltmp41:
	#DEBUG_VALUE: findMoves:_68 <- %RDX
	#DEBUG_VALUE: findMoves:_24 <- %RDX
	#DEBUG_VALUE: findMoves:_22 <- 0
	#DEBUG_VALUE: findMoves:_20 <- 1
	#DEBUG_VALUE: findMoves:_19 <- %RDX
	#DEBUG_VALUE: findMoves:i <- %RDX
	.loc	1 144 10                # CoinGame_array.c:144:10
	testq	%rcx, %rcx
	jle	.LBB0_14
.Ltmp42:
# BB#12:                                # %if.end37
                                        #   in Loop: Header=BB0_11 Depth=2
	#DEBUG_VALUE: findMoves:i <- %RDX
	#DEBUG_VALUE: findMoves:_19 <- %RDX
	#DEBUG_VALUE: findMoves:_24 <- %RDX
	#DEBUG_VALUE: findMoves:_68 <- %RDX
	cmpq	%r8, %rdx
	jge	.LBB0_14
.Ltmp43:
# BB#13:                                # %if.end45
                                        #   in Loop: Header=BB0_11 Depth=2
	#DEBUG_VALUE: findMoves:i <- %RDX
	#DEBUG_VALUE: findMoves:_19 <- %RDX
	#DEBUG_VALUE: findMoves:_24 <- %RDX
	#DEBUG_VALUE: findMoves:_68 <- %RDX
	#DEBUG_VALUE: findMoves:_23 <- 1
	#DEBUG_VALUE: findMoves:_27 <- 1
	.loc	1 158 8                 # CoinGame_array.c:158:8
	movq	-8(%r9,%rdi), %rsi
.Ltmp44:
	#DEBUG_VALUE: findMoves:_29 <- %RSI
	.loc	1 160 9                 # CoinGame_array.c:160:9
	movq	%rsi, (%r12,%rax,8)
.Ltmp45:
.LBB0_14:                               # %blklab4
                                        #   in Loop: Header=BB0_11 Depth=2
	#DEBUG_VALUE: findMoves:i <- %RDX
	#DEBUG_VALUE: findMoves:_19 <- %RDX
	#DEBUG_VALUE: findMoves:_24 <- %RDX
	#DEBUG_VALUE: findMoves:_68 <- %RDX
	#DEBUG_VALUE: findMoves:_30 <- 0
	.loc	1 166 9                 # CoinGame_array.c:166:9
	movq	$0, (%r13,%rax,8)
.Ltmp46:
	#DEBUG_VALUE: findMoves:_31 <- 2
	.loc	1 170 9                 # CoinGame_array.c:170:9
	leaq	2(%rax), %rsi
.Ltmp47:
	#DEBUG_VALUE: findMoves:_34 <- %RSI
	#DEBUG_VALUE: findMoves:_32 <- %RSI
	.loc	1 172 7                 # CoinGame_array.c:172:7
	cmpq	%r8, %rsi
	jge	.LBB0_16
.Ltmp48:
# BB#15:                                # %if.end56
                                        #   in Loop: Header=BB0_11 Depth=2
	#DEBUG_VALUE: findMoves:_32 <- %RSI
	#DEBUG_VALUE: findMoves:_34 <- %RSI
	#DEBUG_VALUE: findMoves:i <- %RDX
	#DEBUG_VALUE: findMoves:_19 <- %RDX
	#DEBUG_VALUE: findMoves:_24 <- %RDX
	#DEBUG_VALUE: findMoves:_68 <- %RDX
	#DEBUG_VALUE: findMoves:_33 <- 2
	.loc	1 182 8                 # CoinGame_array.c:182:8
	movq	(%r10,%rdi), %rsi
.Ltmp49:
	#DEBUG_VALUE: findMoves:_37 <- %RSI
	.loc	1 184 9                 # CoinGame_array.c:184:9
	movq	%rsi, (%r13,%rax,8)
.Ltmp50:
.LBB0_16:                               # %blklab5
                                        #   in Loop: Header=BB0_11 Depth=2
	#DEBUG_VALUE: findMoves:i <- %RDX
	#DEBUG_VALUE: findMoves:_19 <- %RDX
	#DEBUG_VALUE: findMoves:_24 <- %RDX
	#DEBUG_VALUE: findMoves:_68 <- %RDX
	#DEBUG_VALUE: findMoves:_38 <- 0
	.loc	1 190 9                 # CoinGame_array.c:190:9
	movq	$0, (%rbx,%rax,8)
	#DEBUG_VALUE: findMoves:_41 <- 0
.Ltmp51:
	#DEBUG_VALUE: findMoves:_39 <- 1
	.loc	1 198 10                # CoinGame_array.c:198:10
	cmpq	$2, %rcx
	movl	$0, %esi
	jl	.LBB0_18
.Ltmp52:
# BB#17:                                # %if.end67
                                        #   in Loop: Header=BB0_11 Depth=2
	#DEBUG_VALUE: findMoves:i <- %RDX
	#DEBUG_VALUE: findMoves:_19 <- %RDX
	#DEBUG_VALUE: findMoves:_24 <- %RDX
	#DEBUG_VALUE: findMoves:_68 <- %RDX
	#DEBUG_VALUE: findMoves:_44 <- 2
	.loc	1 208 8                 # CoinGame_array.c:208:8
	movq	-16(%rdi), %rsi
.Ltmp53:
	#DEBUG_VALUE: findMoves:_46 <- %RSI
	.loc	1 210 9                 # CoinGame_array.c:210:9
	movq	%rsi, (%rbx,%rax,8)
.Ltmp54:
.LBB0_18:                               # %blklab6
                                        #   in Loop: Header=BB0_11 Depth=2
	#DEBUG_VALUE: findMoves:i <- %RDX
	#DEBUG_VALUE: findMoves:_19 <- %RDX
	#DEBUG_VALUE: findMoves:_24 <- %RDX
	#DEBUG_VALUE: findMoves:_68 <- %RDX
	.loc	1 214 8                 # CoinGame_array.c:214:8
	movq	(%r13,%rax,8), %r8
.Ltmp55:
	#DEBUG_VALUE: findMoves:_47 <- %R8
	.loc	1 216 8                 # CoinGame_array.c:216:8
	movq	(%r12,%rax,8), %rbp
.Ltmp56:
	#DEBUG_VALUE: findMoves:_49 <- %RBP
	#DEBUG_VALUE: findMoves:_48 <- %RBP
	.loc	1 218 7                 # CoinGame_array.c:218:7
	cmpq	%rbp, %r8
	jle	.LBB0_20
.Ltmp57:
# BB#19:                                # %if.end78
                                        #   in Loop: Header=BB0_11 Depth=2
	#DEBUG_VALUE: findMoves:_48 <- %RBP
	#DEBUG_VALUE: findMoves:_49 <- %RBP
	#DEBUG_VALUE: findMoves:_47 <- %R8
	#DEBUG_VALUE: findMoves:i <- %RDX
	#DEBUG_VALUE: findMoves:_19 <- %RDX
	#DEBUG_VALUE: findMoves:_24 <- %RDX
	#DEBUG_VALUE: findMoves:_68 <- %RDX
	.loc	1 222 9                 # CoinGame_array.c:222:9
	movq	%rbp, (%r13,%rax,8)
	.loc	1 226 8                 # CoinGame_array.c:226:8
	movq	(%rsp), %rsi            # 8-byte Reload
	movq	(%rsi,%rax,8), %rsi
	movq	%rbp, %r8
.Ltmp58:
	.loc	1 228 8                 # CoinGame_array.c:228:8
	movq	(%r12,%rax,8), %rbp
.Ltmp59:
.LBB0_20:                               # %blklab7
                                        #   in Loop: Header=BB0_11 Depth=2
	#DEBUG_VALUE: findMoves:i <- %RDX
	#DEBUG_VALUE: findMoves:_19 <- %RDX
	#DEBUG_VALUE: findMoves:_24 <- %RDX
	#DEBUG_VALUE: findMoves:_68 <- %RDX
	#DEBUG_VALUE: findMoves:_50 <- %RSI
	.loc	1 230 7                 # CoinGame_array.c:230:7
	cmpq	%rbp, %rsi
.Ltmp60:
	#DEBUG_VALUE: findMoves:_51 <- %RBP
	jle	.LBB0_22
.Ltmp61:
# BB#21:                                # %if.end86
                                        #   in Loop: Header=BB0_11 Depth=2
	#DEBUG_VALUE: findMoves:_51 <- %RBP
	#DEBUG_VALUE: findMoves:_50 <- %RSI
	#DEBUG_VALUE: findMoves:i <- %RDX
	#DEBUG_VALUE: findMoves:_19 <- %RDX
	#DEBUG_VALUE: findMoves:_24 <- %RDX
	#DEBUG_VALUE: findMoves:_68 <- %RDX
	.loc	1 234 9                 # CoinGame_array.c:234:9
	movq	(%rsp), %rbx            # 8-byte Reload
	movq	%rbp, (%rbx,%rax,8)
	.loc	1 238 8                 # CoinGame_array.c:238:8
	movq	(%r13,%rax,8), %r8
.Ltmp62:
.LBB0_22:                               # %blklab8
                                        #   in Loop: Header=BB0_11 Depth=2
	#DEBUG_VALUE: findMoves:_51 <- %RBP
	#DEBUG_VALUE: findMoves:_50 <- %RSI
	#DEBUG_VALUE: findMoves:i <- %RDX
	#DEBUG_VALUE: findMoves:_19 <- %RDX
	#DEBUG_VALUE: findMoves:_24 <- %RDX
	#DEBUG_VALUE: findMoves:_68 <- %RDX
	#DEBUG_VALUE: findMoves:_53 <- %R8
	.loc	1 244 9                 # CoinGame_array.c:244:9
	addq	%r8, %rax
.Ltmp63:
	.loc	1 246 10                # CoinGame_array.c:246:10
	notq	%rbp
.Ltmp64:
	notq	%rsi
.Ltmp65:
	cmpq	%rsi, %rbp
	cmovgeq	%rbp, %rsi
	subq	%rsi, %rcx
	decq	%rcx
	cmpq	%rcx, %rax
.Ltmp66:
	.loc	1 258 4                 # CoinGame_array.c:258:4
	cmovgeq	%rax, %rcx
.Ltmp67:
	#DEBUG_VALUE: findMoves:_67 <- 1
	#DEBUG_VALUE: findMoves:_65 <- 1
	.loc	1 256 15                # CoinGame_array.c:256:15
	movq	%rcx, (%rdi)
	.loc	1 126 7                 # CoinGame_array.c:126:7
	addq	%r11, %rdi
	cmpq	%rdx, %r15
	movq	%rdx, %rax
	movq	24(%rsp), %r8           # 8-byte Reload
.Ltmp68:
	movq	(%rsp), %rbx            # 8-byte Reload
	jne	.LBB0_11
.Ltmp69:
# BB#23:                                # %blklab2
                                        #   in Loop: Header=BB0_10 Depth=1
	#DEBUG_VALUE: findMoves:i <- %RDX
	#DEBUG_VALUE: findMoves:_19 <- %RDX
	#DEBUG_VALUE: findMoves:_24 <- %RDX
	#DEBUG_VALUE: findMoves:_68 <- %RDX
	#DEBUG_VALUE: findMoves:_69 <- 1
	.loc	1 293 8                 # CoinGame_array.c:293:8
	incq	%r14
.Ltmp70:
	#DEBUG_VALUE: findMoves:_70 <- %R14
	#DEBUG_VALUE: findMoves:s <- %R14
	.loc	1 116 6                 # CoinGame_array.c:116:6
	decq	%r15
	movq	8(%rsp), %rax           # 8-byte Reload
	addq	$8, %rax
	cmpq	%r8, %r14
	jne	.LBB0_10
.Ltmp71:
.LBB0_24:                               # %if.then114
	.loc	1 303 2 discriminator 1 # CoinGame_array.c:303:2
	movq	%r13, %rdi
	callq	free
.Ltmp72:
	#DEBUG_VALUE: findMoves:x_dealloc <- 0
	.loc	1 304 2 discriminator 1 # CoinGame_array.c:304:2
	movq	%r12, %rdi
	callq	free
.Ltmp73:
	#DEBUG_VALUE: findMoves:y_dealloc <- 0
	.loc	1 305 2 discriminator 1 # CoinGame_array.c:305:2
	movq	%rbx, %rdi
	callq	free
.Ltmp74:
	#DEBUG_VALUE: findMoves:z_dealloc <- 0
	.loc	1 309 2                 # CoinGame_array.c:309:2
	movq	16(%rsp), %rax          # 8-byte Reload
	addq	$104, %rsp
	popq	%rbx
	popq	%r12
	popq	%r13
	popq	%r14
	popq	%r15
	popq	%rbp
	retq
.Ltmp75:
.Lfunc_end0:
	.size	findMoves, .Lfunc_end0-findMoves
	.cfi_endproc

	.section	.rodata.cst16,"aM",@progbits,16
	.p2align	4
.LCPI1_0:
	.quad	84                      # 0x54
	.quad	104                     # 0x68
.LCPI1_1:
	.quad	101                     # 0x65
	.quad	32                      # 0x20
.LCPI1_2:
	.quad	116                     # 0x74
	.quad	111                     # 0x6f
.LCPI1_3:
	.quad	116                     # 0x74
	.quad	97                      # 0x61
.LCPI1_4:
	.quad	108                     # 0x6c
	.quad	32                      # 0x20
.LCPI1_5:
	.quad	97                      # 0x61
	.quad	109                     # 0x6d
.LCPI1_6:
	.quad	111                     # 0x6f
	.quad	117                     # 0x75
.LCPI1_7:
	.quad	110                     # 0x6e
	.quad	116                     # 0x74
.LCPI1_8:
	.quad	32                      # 0x20
	.quad	111                     # 0x6f
.LCPI1_9:
	.quad	102                     # 0x66
	.quad	32                      # 0x20
.LCPI1_10:
	.quad	109                     # 0x6d
	.quad	111                     # 0x6f
.LCPI1_11:
	.quad	110                     # 0x6e
	.quad	101                     # 0x65
.LCPI1_12:
	.quad	121                     # 0x79
	.quad	32                      # 0x20
.LCPI1_13:
	.quad	40                      # 0x28
	.quad	109                     # 0x6d
.LCPI1_14:
	.quad	97                      # 0x61
	.quad	120                     # 0x78
.LCPI1_15:
	.quad	105                     # 0x69
	.quad	109                     # 0x6d
.LCPI1_16:
	.quad	117                     # 0x75
	.quad	109                     # 0x6d
.LCPI1_17:
	.quad	41                      # 0x29
	.quad	32                      # 0x20
.LCPI1_18:
	.quad	65                      # 0x41
	.quad	108                     # 0x6c
.LCPI1_19:
	.quad	105                     # 0x69
	.quad	99                      # 0x63
.LCPI1_20:
	.quad	103                     # 0x67
	.quad	101                     # 0x65
.LCPI1_21:
	.quad	116                     # 0x74
	.quad	115                     # 0x73
.LCPI1_22:
	.quad	32                      # 0x20
	.quad	105                     # 0x69
.LCPI1_23:
	.quad	115                     # 0x73
	.quad	32                      # 0x20
.LCPI1_24:
	.quad	80                      # 0x50
	.quad	97                      # 0x61
.LCPI1_25:
	.quad	115                     # 0x73
	.quad	115                     # 0x73
.LCPI1_26:
	.quad	32                      # 0x20
	.quad	67                      # 0x43
.LCPI1_27:
	.quad	111                     # 0x6f
	.quad	105                     # 0x69
.LCPI1_28:
	.quad	110                     # 0x6e
	.quad	71                      # 0x47
.LCPI1_29:
	.quad	116                     # 0x74
	.quad	101                     # 0x65
.LCPI1_30:
	.quad	115                     # 0x73
	.quad	116                     # 0x74
.LCPI1_31:
	.quad	32                      # 0x20
	.quad	99                      # 0x63
.LCPI1_32:
	.quad	97                      # 0x61
	.quad	115                     # 0x73
	.text
	.globl	main
	.p2align	4, 0x90
	.type	main,@function
main:                                   # @main
.Lfunc_begin1:
	.loc	1 313 0                 # CoinGame_array.c:313:0
	.cfi_startproc
# BB#0:                                 # %entry
	.loc	1 344 2 prologue_end    # CoinGame_array.c:344:2
	pushq	%r15
.Ltmp76:
	.cfi_def_cfa_offset 16
	pushq	%r14
.Ltmp77:
	.cfi_def_cfa_offset 24
	pushq	%r13
.Ltmp78:
	.cfi_def_cfa_offset 32
	pushq	%r12
.Ltmp79:
	.cfi_def_cfa_offset 40
	pushq	%rbx
.Ltmp80:
	.cfi_def_cfa_offset 48
.Ltmp81:
	.cfi_offset %rbx, -48
.Ltmp82:
	.cfi_offset %r12, -40
.Ltmp83:
	.cfi_offset %r13, -32
.Ltmp84:
	.cfi_offset %r14, -24
.Ltmp85:
	.cfi_offset %r15, -16
	#DEBUG_VALUE: main:argc <- %EDI
	#DEBUG_VALUE: main:args <- %RSI
.Ltmp86:
	#DEBUG_VALUE: main:max_dealloc <- 0
	#DEBUG_VALUE: main:n <- 0
	#DEBUG_VALUE: main:moves_size <- 0
	#DEBUG_VALUE: main:moves_dealloc <- 0
	#DEBUG_VALUE: main:sum_alice <- 0
	#DEBUG_VALUE: main:_5_dealloc <- 0
	#DEBUG_VALUE: main:_6_size <- 0
	#DEBUG_VALUE: main:_6_size_size <- 0
	#DEBUG_VALUE: main:_6_dealloc <- 0
	#DEBUG_VALUE: main:_7 <- 0
	#DEBUG_VALUE: main:_8_size <- 0
	#DEBUG_VALUE: main:_8_dealloc <- 0
	#DEBUG_VALUE: main:_9 <- 0
	#DEBUG_VALUE: main:_10 <- 0
	#DEBUG_VALUE: main:_11_size <- 0
	#DEBUG_VALUE: main:_11_dealloc <- 0
	#DEBUG_VALUE: main:_12_size <- 0
	#DEBUG_VALUE: main:_12_dealloc <- 0
	#DEBUG_VALUE: main:_13 <- 0
	#DEBUG_VALUE: main:_14 <- 0
	#DEBUG_VALUE: main:_15 <- 0
	#DEBUG_VALUE: main:_18_size <- 0
	#DEBUG_VALUE: main:_18_dealloc <- 0
	#DEBUG_VALUE: main:_23_size <- 0
	#DEBUG_VALUE: main:_23_dealloc <- 0
	callq	convertArgsToIntArray
.Ltmp87:
	#DEBUG_VALUE: main:_6 <- %RAX
	.loc	1 348 5                 # CoinGame_array.c:348:5
	movq	(%rax), %rdi
.Ltmp88:
	#DEBUG_VALUE: main:_8 <- %RDI
	.loc	1 351 2                 # CoinGame_array.c:351:2
	callq	parseStringToInt
.Ltmp89:
	movq	%rax, %r15
.Ltmp90:
	#DEBUG_VALUE: main:max <- %R15
	#DEBUG_VALUE: main:_5 <- %R15
	#DEBUG_VALUE: main:max_dealloc <- 1
	.loc	1 359 9                 # CoinGame_array.c:359:9
	testq	%r15, %r15
	je	.LBB1_2
.Ltmp91:
# BB#1:                                 # %if.then117
	#DEBUG_VALUE: main:_5 <- %R15
	#DEBUG_VALUE: main:max <- %R15
	.loc	1 361 6                 # CoinGame_array.c:361:6
	movq	(%r15), %rbx
	#DEBUG_VALUE: main:_9 <- 0
.Ltmp92:
	#DEBUG_VALUE: main:n <- %RBX
	.loc	1 365 7                 # CoinGame_array.c:365:7
	movl	%ebx, %esi
	imull	%esi, %esi
	.loc	1 368 2                 # CoinGame_array.c:368:2
	xorl	%edi, %edi
	callq	create1DArray
.Ltmp93:
	#DEBUG_VALUE: main:moves <- %RAX
	#DEBUG_VALUE: main:_11 <- %RAX
	#DEBUG_VALUE: main:_11_dealloc <- 0
	#DEBUG_VALUE: main:moves_dealloc <- 1
	.loc	1 377 8                 # CoinGame_array.c:377:8
	xorl	%edx, %edx
	movq	%rax, %rdi
	movq	%rbx, %rcx
	callq	findMoves
.Ltmp94:
	movq	%rax, %r14
.Ltmp95:
	#DEBUG_VALUE: main:_12 <- %R14
	#DEBUG_VALUE: main:moves <- %R14
	#DEBUG_VALUE: main:_13 <- 1
	#DEBUG_VALUE: main:_12_dealloc <- 0
	.loc	1 389 6                 # CoinGame_array.c:389:6
	movq	-8(%r14,%rbx,8), %r12
.Ltmp96:
	#DEBUG_VALUE: main:_18_size <- 50
	#DEBUG_VALUE: main:_15 <- %R12
	#DEBUG_VALUE: main:sum_alice <- %R12
	.loc	1 396 2                 # CoinGame_array.c:396:2
	xorl	%edi, %edi
	movl	$50, %esi
	callq	create1DArray
	movq	%rax, %r13
.Ltmp97:
	#DEBUG_VALUE: main:_18 <- %R13
	.loc	1 397 9                 # CoinGame_array.c:397:9
	movaps	.LCPI1_0(%rip), %xmm0   # xmm0 = [84,104]
	movups	%xmm0, (%r13)
	.loc	1 397 36 is_stmt 0      # CoinGame_array.c:397:36
	movaps	.LCPI1_1(%rip), %xmm0   # xmm0 = [101,32]
	movups	%xmm0, 16(%r13)
	movaps	%xmm0, %xmm1
	.loc	1 397 63                # CoinGame_array.c:397:63
	movaps	.LCPI1_2(%rip), %xmm0   # xmm0 = [116,111]
	movups	%xmm0, 32(%r13)
	.loc	1 397 91                # CoinGame_array.c:397:91
	movaps	.LCPI1_3(%rip), %xmm0   # xmm0 = [116,97]
	movups	%xmm0, 48(%r13)
	.loc	1 397 118               # CoinGame_array.c:397:118
	movaps	.LCPI1_4(%rip), %xmm0   # xmm0 = [108,32]
	movups	%xmm0, 64(%r13)
	.loc	1 397 146               # CoinGame_array.c:397:146
	movaps	.LCPI1_5(%rip), %xmm0   # xmm0 = [97,109]
	movups	%xmm0, 80(%r13)
	.loc	1 397 175               # CoinGame_array.c:397:175
	movaps	.LCPI1_6(%rip), %xmm0   # xmm0 = [111,117]
	movups	%xmm0, 96(%r13)
	.loc	1 397 205               # CoinGame_array.c:397:205
	movaps	.LCPI1_7(%rip), %xmm0   # xmm0 = [110,116]
	movups	%xmm0, 112(%r13)
	.loc	1 397 235               # CoinGame_array.c:397:235
	movaps	.LCPI1_8(%rip), %xmm0   # xmm0 = [32,111]
	movups	%xmm0, 128(%r13)
	.loc	1 397 264               # CoinGame_array.c:397:264
	movaps	.LCPI1_9(%rip), %xmm0   # xmm0 = [102,32]
	movups	%xmm0, 144(%r13)
	.loc	1 397 293               # CoinGame_array.c:397:293
	movaps	.LCPI1_10(%rip), %xmm0  # xmm0 = [109,111]
	movups	%xmm0, 160(%r13)
	.loc	1 397 323               # CoinGame_array.c:397:323
	movaps	.LCPI1_11(%rip), %xmm0  # xmm0 = [110,101]
	movups	%xmm0, 176(%r13)
	.loc	1 397 353               # CoinGame_array.c:397:353
	movaps	.LCPI1_12(%rip), %xmm0  # xmm0 = [121,32]
	movups	%xmm0, 192(%r13)
	.loc	1 397 382               # CoinGame_array.c:397:382
	movaps	.LCPI1_13(%rip), %xmm0  # xmm0 = [40,109]
	movups	%xmm0, 208(%r13)
	.loc	1 397 411               # CoinGame_array.c:397:411
	movaps	.LCPI1_14(%rip), %xmm0  # xmm0 = [97,120]
	movups	%xmm0, 224(%r13)
	.loc	1 397 440               # CoinGame_array.c:397:440
	movaps	.LCPI1_15(%rip), %xmm0  # xmm0 = [105,109]
	movups	%xmm0, 240(%r13)
	.loc	1 397 470               # CoinGame_array.c:397:470
	movaps	.LCPI1_16(%rip), %xmm0  # xmm0 = [117,109]
	movups	%xmm0, 256(%r13)
	.loc	1 397 500               # CoinGame_array.c:397:500
	movaps	.LCPI1_17(%rip), %xmm0  # xmm0 = [41,32]
	movups	%xmm0, 272(%r13)
	.loc	1 397 528               # CoinGame_array.c:397:528
	movaps	.LCPI1_18(%rip), %xmm0  # xmm0 = [65,108]
	movups	%xmm0, 288(%r13)
	.loc	1 397 557               # CoinGame_array.c:397:557
	movaps	.LCPI1_19(%rip), %xmm0  # xmm0 = [105,99]
	movups	%xmm0, 304(%r13)
	.loc	1 397 586               # CoinGame_array.c:397:586
	movups	%xmm1, 320(%r13)
	.loc	1 397 615               # CoinGame_array.c:397:615
	movaps	.LCPI1_20(%rip), %xmm0  # xmm0 = [103,101]
	movups	%xmm0, 336(%r13)
	.loc	1 397 645               # CoinGame_array.c:397:645
	movaps	.LCPI1_21(%rip), %xmm0  # xmm0 = [116,115]
	movups	%xmm0, 352(%r13)
	.loc	1 397 675               # CoinGame_array.c:397:675
	movaps	.LCPI1_22(%rip), %xmm0  # xmm0 = [32,105]
	movups	%xmm0, 368(%r13)
	.loc	1 397 704               # CoinGame_array.c:397:704
	movaps	.LCPI1_23(%rip), %xmm0  # xmm0 = [115,32]
	movups	%xmm0, 384(%r13)
.Ltmp98:
	#DEBUG_VALUE: main:_18_dealloc <- 1
	.loc	1 400 2 is_stmt 1       # CoinGame_array.c:400:2
	movl	$50, %esi
	movq	%r13, %rdi
	callq	printf_s
	.loc	1 404 2                 # CoinGame_array.c:404:2
	movl	$.L.str, %edi
	xorl	%eax, %eax
	movq	%r12, %rsi
	callq	printf
.Ltmp99:
	#DEBUG_VALUE: main:_23_size <- 23
	.loc	1 409 2                 # CoinGame_array.c:409:2
	xorl	%edi, %edi
	movl	$23, %esi
	callq	create1DArray
	movq	%rax, %rbx
.Ltmp100:
	#DEBUG_VALUE: main:_23 <- %RBX
	.loc	1 410 9                 # CoinGame_array.c:410:9
	movaps	.LCPI1_24(%rip), %xmm0  # xmm0 = [80,97]
	movups	%xmm0, (%rbx)
	.loc	1 410 35 is_stmt 0      # CoinGame_array.c:410:35
	movaps	.LCPI1_25(%rip), %xmm0  # xmm0 = [115,115]
	movups	%xmm0, 16(%rbx)
	.loc	1 410 63                # CoinGame_array.c:410:63
	movaps	.LCPI1_26(%rip), %xmm0  # xmm0 = [32,67]
	movups	%xmm0, 32(%rbx)
	.loc	1 410 89                # CoinGame_array.c:410:89
	movaps	.LCPI1_27(%rip), %xmm0  # xmm0 = [111,105]
	movups	%xmm0, 48(%rbx)
	.loc	1 410 117               # CoinGame_array.c:410:117
	movaps	.LCPI1_28(%rip), %xmm0  # xmm0 = [110,71]
	movups	%xmm0, 64(%rbx)
	.loc	1 397 146 is_stmt 1     # CoinGame_array.c:397:146
	movaps	.LCPI1_5(%rip), %xmm0   # xmm0 = [97,109]
	.loc	1 410 145               # CoinGame_array.c:410:145
	movups	%xmm0, 80(%rbx)
	.loc	1 397 36                # CoinGame_array.c:397:36
	movaps	.LCPI1_1(%rip), %xmm0   # xmm0 = [101,32]
	.loc	1 410 174               # CoinGame_array.c:410:174
	movups	%xmm0, 96(%rbx)
	.loc	1 410 203 is_stmt 0     # CoinGame_array.c:410:203
	movaps	.LCPI1_29(%rip), %xmm0  # xmm0 = [116,101]
	movups	%xmm0, 112(%rbx)
	.loc	1 410 233               # CoinGame_array.c:410:233
	movaps	.LCPI1_30(%rip), %xmm0  # xmm0 = [115,116]
	movups	%xmm0, 128(%rbx)
	.loc	1 410 263               # CoinGame_array.c:410:263
	movaps	.LCPI1_31(%rip), %xmm0  # xmm0 = [32,99]
	movups	%xmm0, 144(%rbx)
	.loc	1 410 291               # CoinGame_array.c:410:291
	movaps	.LCPI1_32(%rip), %xmm0  # xmm0 = [97,115]
	movups	%xmm0, 160(%rbx)
	.loc	1 410 320               # CoinGame_array.c:410:320
	movq	$101, 176(%rbx)
.Ltmp101:
	#DEBUG_VALUE: main:_23_dealloc <- 1
	.loc	1 413 2 is_stmt 1       # CoinGame_array.c:413:2
	movl	$23, %esi
	movq	%rbx, %rdi
	callq	println_s
.Ltmp102:
	.loc	1 417 2 discriminator 1 # CoinGame_array.c:417:2
	movq	%r15, %rdi
	callq	free
.Ltmp103:
	#DEBUG_VALUE: main:max_dealloc <- 0
	.loc	1 418 2 discriminator 1 # CoinGame_array.c:418:2
	movq	%r14, %rdi
	callq	free
.Ltmp104:
	#DEBUG_VALUE: main:moves_dealloc <- 0
	.loc	1 424 2 discriminator 1 # CoinGame_array.c:424:2
	movq	%r13, %rdi
	callq	free
.Ltmp105:
	#DEBUG_VALUE: main:_18_dealloc <- 0
	.loc	1 425 2 discriminator 1 # CoinGame_array.c:425:2
	movq	%rbx, %rdi
	callq	free
.Ltmp106:
	#DEBUG_VALUE: main:_23_dealloc <- 0
.LBB1_2:                                # %if.end139
	#DEBUG_VALUE: main:_5 <- %R15
	#DEBUG_VALUE: main:max <- %R15
	.loc	1 426 2                 # CoinGame_array.c:426:2
	xorl	%edi, %edi
	callq	exit
.Ltmp107:
.Lfunc_end1:
	.size	main, .Lfunc_end1-main
	.cfi_endproc

	.type	.L.str,@object          # @.str
	.section	.rodata.str1.1,"aMS",@progbits,1
.L.str:
	.asciz	"%lld\n"
	.size	.L.str, 6

	.section	".note.GNU-stack","",@progbits