	.text
	.file	"llvm/NQueens.polly.enablevc.ll"
	.globl	copy_POS
	.p2align	4, 0x90
	.type	copy_POS,@function
copy_POS:                               # @copy_POS
.Lfunc_begin0:
	.file	1 "NQueens.c"
	.loc	1 2 0                   # NQueens.c:2:0
	.cfi_startproc
# BB#0:                                 # %entry
	pushq	%rbx
.Ltmp0:
	.cfi_def_cfa_offset 16
.Ltmp1:
	.cfi_offset %rbx, -16
	#DEBUG_VALUE: copy_POS:_POS <- %RDI
	movq	%rdi, %rbx
.Ltmp2:
	#DEBUG_VALUE: copy_POS:_POS <- %RBX
	.loc	1 3 17 prologue_end discriminator 1 # NQueens.c:3:17
	movl	$16, %edi
	callq	malloc
.Ltmp3:
	#DEBUG_VALUE: copy_POS:new_POS <- %RAX
	.loc	1 4 21                  # NQueens.c:4:21
	movups	(%rbx), %xmm0
	.loc	1 4 13 is_stmt 0        # NQueens.c:4:13
	movups	%xmm0, (%rax)
	.loc	1 6 2 is_stmt 1         # NQueens.c:6:2
	popq	%rbx
.Ltmp4:
	retq
.Ltmp5:
.Lfunc_end0:
	.size	copy_POS, .Lfunc_end0-copy_POS
	.cfi_endproc

	.globl	copy_array_POS
	.p2align	4, 0x90
	.type	copy_array_POS,@function
copy_array_POS:                         # @copy_array_POS
.Lfunc_begin1:
	.loc	1 8 0                   # NQueens.c:8:0
	.cfi_startproc
# BB#0:                                 # %entry
	pushq	%r15
.Ltmp6:
	.cfi_def_cfa_offset 16
	pushq	%r14
.Ltmp7:
	.cfi_def_cfa_offset 24
	pushq	%r13
.Ltmp8:
	.cfi_def_cfa_offset 32
	pushq	%r12
.Ltmp9:
	.cfi_def_cfa_offset 40
	pushq	%rbx
.Ltmp10:
	.cfi_def_cfa_offset 48
.Ltmp11:
	.cfi_offset %rbx, -48
.Ltmp12:
	.cfi_offset %r12, -40
.Ltmp13:
	.cfi_offset %r13, -32
.Ltmp14:
	.cfi_offset %r14, -24
.Ltmp15:
	.cfi_offset %r15, -16
	#DEBUG_VALUE: copy_array_POS:_POS <- %RDI
	#DEBUG_VALUE: copy_array_POS:_POS_size <- %RSI
	movq	%rsi, %r14
.Ltmp16:
	#DEBUG_VALUE: copy_array_POS:_POS_size <- %R14
	movq	%rdi, %r12
.Ltmp17:
	#DEBUG_VALUE: copy_array_POS:_POS <- %R12
	.loc	1 9 34 prologue_end     # NQueens.c:9:34
	leaq	(,%r14,8), %rdi
	.loc	1 9 18 is_stmt 0 discriminator 1 # NQueens.c:9:18
	callq	malloc
	movq	%rax, %r15
.Ltmp18:
	#DEBUG_VALUE: i <- 0
	.loc	1 10 15 is_stmt 1 discriminator 1 # NQueens.c:10:15
	testq	%r14, %r14
	jle	.LBB1_3
.Ltmp19:
# BB#1:
	#DEBUG_VALUE: copy_array_POS:_POS <- %R12
	#DEBUG_VALUE: copy_array_POS:_POS_size <- %R14
	movq	%r15, %rbx
.Ltmp20:
	.p2align	4, 0x90
.LBB1_2:                                # %for.body
                                        # =>This Inner Loop Header: Depth=1
	.loc	1 11 25                 # NQueens.c:11:25
	movq	(%r12), %r13
.Ltmp21:
	.loc	1 3 17 discriminator 1  # NQueens.c:3:17
	movl	$16, %edi
	callq	malloc
.Ltmp22:
	.loc	1 4 21                  # NQueens.c:4:21
	movups	(%r13), %xmm0
	.loc	1 4 13 is_stmt 0        # NQueens.c:4:13
	movups	%xmm0, (%rax)
.Ltmp23:
	.loc	1 11 14 is_stmt 1       # NQueens.c:11:14
	movq	%rax, (%rbx)
.Ltmp24:
	.loc	1 10 2 discriminator 1  # NQueens.c:10:2
	addq	$8, %rbx
	addq	$8, %r12
	decq	%r14
	jne	.LBB1_2
.Ltmp25:
.LBB1_3:                                # %for.cond.cleanup
	.loc	1 13 2                  # NQueens.c:13:2
	movq	%r15, %rax
	popq	%rbx
	popq	%r12
	popq	%r13
	popq	%r14
	popq	%r15
	retq
.Ltmp26:
.Lfunc_end1:
	.size	copy_array_POS, .Lfunc_end1-copy_array_POS
	.cfi_endproc
	.file	2 "./NQueens.h"

	.globl	free_POS
	.p2align	4, 0x90
	.type	free_POS,@function
free_POS:                               # @free_POS
.Lfunc_begin2:
	.loc	1 15 0                  # NQueens.c:15:0
	.cfi_startproc
# BB#0:                                 # %entry
	#DEBUG_VALUE: free_POS:pos <- %RDI
	.loc	1 16 2 prologue_end     # NQueens.c:16:2
	jmp	free                    # TAILCALL
.Ltmp27:
.Lfunc_end2:
	.size	free_POS, .Lfunc_end2-free_POS
	.cfi_endproc

	.globl	printf_POS
	.p2align	4, 0x90
	.type	printf_POS,@function
printf_POS:                             # @printf_POS
.Lfunc_begin3:
	.loc	1 18 0                  # NQueens.c:18:0
	.cfi_startproc
# BB#0:                                 # %entry
	pushq	%rbx
.Ltmp28:
	.cfi_def_cfa_offset 16
.Ltmp29:
	.cfi_offset %rbx, -16
	#DEBUG_VALUE: printf_POS:pos <- %RDI
	movq	%rdi, %rbx
.Ltmp30:
	#DEBUG_VALUE: printf_POS:pos <- %RBX
	.loc	1 19 2 prologue_end     # NQueens.c:19:2
	movl	$123, %edi
	callq	putchar
	.loc	1 20 2                  # NQueens.c:20:2
	movl	$.L.str.1, %edi
	xorl	%eax, %eax
	callq	printf
	.loc	1 21 22                 # NQueens.c:21:22
	movq	(%rbx), %rsi
	.loc	1 21 2 is_stmt 0        # NQueens.c:21:2
	movl	$.L.str.2, %edi
	xorl	%eax, %eax
	callq	printf
	.loc	1 22 2 is_stmt 1        # NQueens.c:22:2
	movl	$.L.str.3, %edi
	xorl	%eax, %eax
	callq	printf
	.loc	1 23 22                 # NQueens.c:23:22
	movq	8(%rbx), %rsi
	.loc	1 23 2 is_stmt 0        # NQueens.c:23:2
	movl	$.L.str.2, %edi
	xorl	%eax, %eax
	callq	printf
	.loc	1 24 2 is_stmt 1        # NQueens.c:24:2
	movl	$125, %edi
	popq	%rbx
.Ltmp31:
	jmp	putchar                 # TAILCALL
.Ltmp32:
.Lfunc_end3:
	.size	printf_POS, .Lfunc_end3-printf_POS
	.cfi_endproc

	.globl	conflict
	.p2align	4, 0x90
	.type	conflict,@function
conflict:                               # @conflict
.Lfunc_begin4:
	.loc	1 26 0                  # NQueens.c:26:0
	.cfi_startproc
# BB#0:                                 # %entry
	movq	(%rdi), %rsi
	movq	8(%rdi), %rdi
	subq	%rcx, %rdi
	setg	%r8b
	setl	%r10b
	setne	%r9b
	subq	%rdx, %rsi
	setg	%cl
	setl	%dl
	movl	$1, %eax
	testb	%r10b, %dl
	jne	.LBB4_3
# BB#1:                                 # %entry
	andb	%r9b, %cl
	jne	.LBB4_3
# BB#2:                                 # %entry
	andb	%r8b, %dl
	je	.LBB4_4
.LBB4_3:                                # %polly.stmt.blklab0
.Ltmp33:
	.loc	1 61 7 prologue_end     # NQueens.c:61:7
	movq	%rdi, %rax
	negq	%rax
	cmovlq	%rdi, %rax
	.loc	1 67 7                  # NQueens.c:67:7
	movq	%rsi, %rcx
	negq	%rcx
	cmovlq	%rsi, %rcx
.Ltmp34:
	.loc	1 73 12                 # NQueens.c:73:12
	cmpq	%rcx, %rax
	sete	%al
.Ltmp35:
	.loc	1 81 2                  # NQueens.c:81:2
	movzbl	%al, %eax
.LBB4_4:                                # %polly.exiting
	.loc	1 87 1                  # NQueens.c:87:1
	retq
.Ltmp36:
.Lfunc_end4:
	.size	conflict, .Lfunc_end4-conflict
	.cfi_endproc

	.globl	run
	.p2align	4, 0x90
	.type	run,@function
run:                                    # @run
.Lfunc_begin5:
	.loc	1 89 0                  # NQueens.c:89:0
	.cfi_startproc
# BB#0:                                 # %entry
	pushq	%rbp
.Ltmp37:
	.cfi_def_cfa_offset 16
	pushq	%r15
.Ltmp38:
	.cfi_def_cfa_offset 24
	pushq	%r14
.Ltmp39:
	.cfi_def_cfa_offset 32
	pushq	%r13
.Ltmp40:
	.cfi_def_cfa_offset 40
	pushq	%r12
.Ltmp41:
	.cfi_def_cfa_offset 48
	pushq	%rbx
.Ltmp42:
	.cfi_def_cfa_offset 56
	subq	$56, %rsp
.Ltmp43:
	.cfi_def_cfa_offset 112
.Ltmp44:
	.cfi_offset %rbx, -56
.Ltmp45:
	.cfi_offset %r12, -48
.Ltmp46:
	.cfi_offset %r13, -40
.Ltmp47:
	.cfi_offset %r14, -32
.Ltmp48:
	.cfi_offset %r15, -24
.Ltmp49:
	.cfi_offset %rbp, -16
	#DEBUG_VALUE: run:queens <- %RDI
	#DEBUG_VALUE: run:queens_size <- %RSI
	#DEBUG_VALUE: run:queens_has_ownership [bit_piece offset=0 size=1] <- %EDX
	#DEBUG_VALUE: run:n <- %RCX
	#DEBUG_VALUE: run:dim <- %R8
.Ltmp50:
	#DEBUG_VALUE: run:_12 <- %RSI
	#DEBUG_VALUE: run:_13 <- %RSI
	movq	%r8, 32(%rsp)           # 8-byte Spill
	movq	%rcx, %r15
.Ltmp51:
	#DEBUG_VALUE: run:n <- %R15
	movq	%rdi, 40(%rsp)          # 8-byte Spill
.Ltmp52:
	#DEBUG_VALUE: run:_32 <- 0
	#DEBUG_VALUE: run:_31 <- 0
	#DEBUG_VALUE: run:_30 <- 0
	#DEBUG_VALUE: run:_29 <- 0
	#DEBUG_VALUE: run:_28 <- 0
	#DEBUG_VALUE: run:_27 <- 0
	#DEBUG_VALUE: run:_26_has_ownership <- 0
	#DEBUG_VALUE: run:_24 <- 0
	#DEBUG_VALUE: run:_23 <- 0
	#DEBUG_VALUE: run:_19_has_ownership <- 0
	#DEBUG_VALUE: run:_18 <- 0
	#DEBUG_VALUE: run:_17 <- 0
	#DEBUG_VALUE: run:_16 <- 0
	#DEBUG_VALUE: run:_15 <- 0
	#DEBUG_VALUE: run:_11 <- 0
	#DEBUG_VALUE: run:_10 <- 0
	#DEBUG_VALUE: run:_9 <- 0
	#DEBUG_VALUE: run:p_has_ownership <- 0
	#DEBUG_VALUE: run:i <- 0
	#DEBUG_VALUE: run:col <- 0
	#DEBUG_VALUE: run:num_solutions <- 0
	#DEBUG_VALUE: run:_3 <- 0
	#DEBUG_VALUE: run:_13 <- 0
	#DEBUG_VALUE: run:_12 <- 0
	#DEBUG_VALUE: run:queens <- [%RSP+40]
	movl	$1, %ebp
.Ltmp53:
	.loc	1 124 8 prologue_end    # NQueens.c:124:8
	cmpq	%r15, %r8
	je	.LBB5_9
.Ltmp54:
# BB#1:                                 # %while.cond.preheader
	#DEBUG_VALUE: run:queens <- [%RSP+40]
	#DEBUG_VALUE: run:n <- %R15
	#DEBUG_VALUE: run:dim <- %R8
	#DEBUG_VALUE: run:queens_has_ownership [bit_piece offset=0 size=1] <- %EDX
	#DEBUG_VALUE: run:queens_size <- %RSI
	.loc	1 151 7                 # NQueens.c:151:7
	cmpq	%rsi, %r15
	jge	.LBB5_24
.Ltmp55:
# BB#2:                                 # %while.cond.preheader
	#DEBUG_VALUE: run:queens_size <- %RSI
	#DEBUG_VALUE: run:queens_has_ownership [bit_piece offset=0 size=1] <- %EDX
	#DEBUG_VALUE: run:dim <- %R8
	#DEBUG_VALUE: run:n <- %R15
	#DEBUG_VALUE: run:queens <- [%RSP+40]
	cmpq	%rsi, %r8
	jne	.LBB5_24
.Ltmp56:
# BB#3:                                 # %blklab10.preheader
	#DEBUG_VALUE: run:queens <- [%RSP+40]
	#DEBUG_VALUE: run:n <- %R15
	#DEBUG_VALUE: run:dim <- %R8
	#DEBUG_VALUE: run:queens_has_ownership [bit_piece offset=0 size=1] <- %EDX
	#DEBUG_VALUE: run:queens_size <- %RSI
	xorl	%ebx, %ebx
	xorl	%r13d, %r13d
.Ltmp57:
	.loc	1 166 9                 # NQueens.c:166:9
	testq	%r8, %r8
	jle	.LBB5_4
.Ltmp58:
# BB#10:
	#DEBUG_VALUE: run:queens_size <- %RSI
	#DEBUG_VALUE: run:queens_has_ownership [bit_piece offset=0 size=1] <- %EDX
	#DEBUG_VALUE: run:dim <- %R8
	#DEBUG_VALUE: run:n <- %R15
	#DEBUG_VALUE: run:queens <- [%RSP+40]
	.loc	1 258 8                 # NQueens.c:258:8
	leaq	1(%r15), %rax
.Ltmp59:
	#DEBUG_VALUE: run:_29 <- [%RSP+48]
	movq	%rax, 48(%rsp)          # 8-byte Spill
                                        # implicit-def: %R14
                                        # implicit-def: %RBP
	xorl	%eax, %eax
	movq	%rax, (%rsp)            # 8-byte Spill
                                        # implicit-def: %RAX
	movq	%rax, 8(%rsp)           # 8-byte Spill
	xorl	%eax, %eax
	movq	%rax, 16(%rsp)          # 8-byte Spill
.Ltmp60:
	.p2align	4, 0x90
.LBB5_23:                               # %blklab14.preheader.us
                                        # =>This Loop Header: Depth=1
                                        #     Child Loop BB5_15 Depth 2
	movq	%rbx, 24(%rsp)          # 8-byte Spill
	testq	%r15, %r15
	movl	$0, %r12d
	jle	.LBB5_12
	.p2align	4, 0x90
.LBB5_15:                               # %if.end35.us
                                        #   Parent Loop BB5_23 Depth=1
                                        # =>  This Inner Loop Header: Depth=2
.Ltmp61:
	.loc	1 206 19                # NQueens.c:206:19
	movq	40(%rsp), %rax          # 8-byte Reload
	movq	(%rax,%r12,8), %rbx
.Ltmp62:
	#DEBUG_VALUE: copy_POS:_POS <- %RBX
	.loc	1 3 17 discriminator 1  # NQueens.c:3:17
	movl	$16, %edi
	callq	malloc
	movq	%rax, %rbp
.Ltmp63:
	.loc	1 4 21                  # NQueens.c:4:21
	movq	(%rbx), %rax
	.loc	1 4 13 is_stmt 0        # NQueens.c:4:13
	movq	%rax, (%rbp)
	.loc	1 5 21 is_stmt 1        # NQueens.c:5:21
	movq	8(%rbx), %rcx
.Ltmp64:
	#DEBUG_VALUE: run:_19_has_ownership <- 1
	.loc	1 5 13 is_stmt 0        # NQueens.c:5:13
	movq	%rcx, 8(%rbp)
.Ltmp65:
	.loc	1 209 4 is_stmt 1       # NQueens.c:209:4
	testb	$1, %r13b
	je	.LBB5_17
.Ltmp66:
# BB#16:                                # %if.then38.us
                                        #   in Loop: Header=BB5_15 Depth=2
	#DEBUG_VALUE: copy_POS:_POS <- %RBX
	.loc	1 16 2                  # NQueens.c:16:2
	movq	%r14, %rdi
	callq	free
.Ltmp67:
	#DEBUG_VALUE: run:p_has_ownership <- 0
	.loc	1 215 10                # NQueens.c:215:10
	movq	(%rbp), %rax
	movq	8(%rbp), %rcx
.Ltmp68:
.LBB5_17:                               # %if.end39.us
                                        #   in Loop: Header=BB5_15 Depth=2
	#DEBUG_VALUE: copy_POS:_POS <- %RBX
	#DEBUG_VALUE: run:p_has_ownership <- 1
	#DEBUG_VALUE: run:_19_has_ownership <- 0
	subq	24(%rsp), %rcx          # 8-byte Folded Reload
	setg	%sil
	setl	%dl
	setne	%dil
	subq	%r15, %rax
	setg	%r8b
	setl	%bl
.Ltmp69:
	movb	$1, %r13b
	testb	%dl, %bl
	jne	.LBB5_20
# BB#18:                                # %if.end39.us
                                        #   in Loop: Header=BB5_15 Depth=2
	andb	%dil, %r8b
	jne	.LBB5_20
# BB#19:                                # %if.end39.us
                                        #   in Loop: Header=BB5_15 Depth=2
	andb	%sil, %bl
	je	.LBB5_21
.LBB5_20:                               # %conflict.exit.us
                                        #   in Loop: Header=BB5_15 Depth=2
.Ltmp70:
	.loc	1 61 7                  # NQueens.c:61:7
	movq	%rcx, %rdx
	negq	%rdx
	cmovlq	%rcx, %rdx
	.loc	1 67 7                  # NQueens.c:67:7
	movq	%rax, %rcx
	negq	%rcx
.Ltmp71:
	#DEBUG_VALUE: run:_21 <- 1
	#DEBUG_VALUE: run:_23 <- 1
	cmovlq	%rax, %rcx
.Ltmp72:
	#DEBUG_VALUE: run:_17 <- 0
	.loc	1 219 7                 # NQueens.c:219:7
	cmpq	%rcx, %rdx
	je	.LBB5_21
# BB#11:                                # %blklab14.us
                                        #   in Loop: Header=BB5_15 Depth=2
	.loc	1 235 9                 # NQueens.c:235:9
	incq	%r12
.Ltmp73:
	#DEBUG_VALUE: run:_24 <- %R12
	#DEBUG_VALUE: run:i <- %R12
	movb	$1, %r13b
.Ltmp74:
	.loc	1 203 8                 # NQueens.c:203:8
	cmpq	%r15, %r12
	movq	%rbp, %r14
	jl	.LBB5_15
.Ltmp75:
.LBB5_12:                               # %if.end46.us
                                        #   in Loop: Header=BB5_23 Depth=1
	#DEBUG_VALUE: run:_25 <- 1
	.loc	1 248 3                 # NQueens.c:248:3
	movq	16(%rsp), %rax          # 8-byte Reload
	testb	$1, %al
	je	.LBB5_14
# BB#13:                                # %if.then48.us
                                        #   in Loop: Header=BB5_23 Depth=1
.Ltmp76:
	.loc	1 16 2                  # NQueens.c:16:2
	movq	8(%rsp), %rdi           # 8-byte Reload
	callq	free
.Ltmp77:
	#DEBUG_VALUE: run:_26_has_ownership <- 0
.LBB5_14:                               # %if.end49.us
                                        #   in Loop: Header=BB5_23 Depth=1
	.loc	1 249 9                 # NQueens.c:249:9
	movl	$16, %edi
	callq	malloc
	movq	%rax, 8(%rsp)           # 8-byte Spill
	movq	24(%rsp), %rbx          # 8-byte Reload
	.loc	1 250 10                # NQueens.c:250:10
	movq	%rbx, 8(%rax)
.Ltmp78:
	#DEBUG_VALUE: run:_26_has_ownership <- 1
	.loc	1 251 10                # NQueens.c:251:10
	movq	%r15, (%rax)
	movq	40(%rsp), %rdi          # 8-byte Reload
	.loc	1 254 13                # NQueens.c:254:13
	movq	%rax, (%rdi,%r15,8)
.Ltmp79:
	#DEBUG_VALUE: run:queens_has_ownership <- 1
	#DEBUG_VALUE: run:_28 <- 1
	.loc	1 261 9                 # NQueens.c:261:9
	xorl	%edx, %edx
	movq	32(%rsp), %r12          # 8-byte Reload
	movq	%r12, %rsi
	movq	48(%rsp), %rcx          # 8-byte Reload
	movq	%r12, %r8
	callq	run
.Ltmp80:
	#DEBUG_VALUE: run:_27 <- [%RSP+0]
	.loc	1 263 20                # NQueens.c:263:20
	addq	%rax, (%rsp)            # 8-byte Folded Spill
.Ltmp81:
	#DEBUG_VALUE: run:_30 <- [%RSP+0]
	#DEBUG_VALUE: run:num_solutions <- [%RSP+0]
	movb	$1, %al
	.loc	1 265 3                 # NQueens.c:265:3
	movq	%rax, 16(%rsp)          # 8-byte Spill
	jmp	.LBB5_22
.Ltmp82:
	.p2align	4, 0x90
.LBB5_21:                               #   in Loop: Header=BB5_23 Depth=1
	movq	%rbp, %r14
	movq	32(%rsp), %r12          # 8-byte Reload
	movq	24(%rsp), %rbx          # 8-byte Reload
.LBB5_22:                               # %blklab19.us
                                        #   in Loop: Header=BB5_23 Depth=1
.Ltmp83:
	#DEBUG_VALUE: run:_31 <- 1
	.loc	1 271 10                # NQueens.c:271:10
	incq	%rbx
.Ltmp84:
	#DEBUG_VALUE: run:_32 <- %RBX
	#DEBUG_VALUE: run:col <- %RBX
	.loc	1 166 6                 # NQueens.c:166:6
	cmpq	%r12, %rbx
	jl	.LBB5_23
	jmp	.LBB5_5
.Ltmp85:
.LBB5_4:
	#DEBUG_VALUE: run:queens_size <- %RSI
	#DEBUG_VALUE: run:queens_has_ownership [bit_piece offset=0 size=1] <- %EDX
	#DEBUG_VALUE: run:dim <- %R8
	#DEBUG_VALUE: run:n <- %R15
	#DEBUG_VALUE: run:queens <- [%RSP+40]
                                        # implicit-def: %RBP
	xorl	%eax, %eax
	movq	%rax, (%rsp)            # 8-byte Spill
                                        # implicit-def: %RAX
	movq	%rax, 8(%rsp)           # 8-byte Spill
	xorl	%eax, %eax
	movq	%rax, 16(%rsp)          # 8-byte Spill
.Ltmp86:
.LBB5_5:                                # %blklab8
	.loc	1 280 2                 # NQueens.c:280:2
	testb	$1, %r13b
	je	.LBB5_7
# BB#6:                                 # %if.then57
.Ltmp87:
	.loc	1 16 2                  # NQueens.c:16:2
	movq	%rbp, %rdi
	callq	free
.Ltmp88:
	#DEBUG_VALUE: run:p_has_ownership <- 0
.LBB5_7:                                # %if.end61
	.loc	1 282 2                 # NQueens.c:282:2
	movq	16(%rsp), %rax          # 8-byte Reload
	testb	$1, %al
	movq	(%rsp), %rbp            # 8-byte Reload
	je	.LBB5_9
# BB#8:                                 # %if.then63
.Ltmp89:
	.loc	1 16 2                  # NQueens.c:16:2
	movq	8(%rsp), %rdi           # 8-byte Reload
	callq	free
.Ltmp90:
	#DEBUG_VALUE: run:_26_has_ownership <- 0
.LBB5_9:                                # %cleanup
	.loc	1 287 1 discriminator 2 # NQueens.c:287:1
	movq	%rbp, %rax
	addq	$56, %rsp
	popq	%rbx
	popq	%r12
	popq	%r13
	popq	%r14
	popq	%r15
	popq	%rbp
	retq
.LBB5_24:                               # %blklab11
.Ltmp91:
	#DEBUG_VALUE: run:queens_size <- %RSI
	#DEBUG_VALUE: run:queens_has_ownership [bit_piece offset=0 size=1] <- %EDX
	#DEBUG_VALUE: run:dim <- %R8
	#DEBUG_VALUE: run:n <- %R15
	#DEBUG_VALUE: run:queens <- [%RSP+40]
	.loc	1 159 12                # NQueens.c:159:12
	movq	stderr(%rip), %rcx
	.loc	1 159 4 is_stmt 0       # NQueens.c:159:4
	movl	$.L.str.5, %edi
	movl	$4, %esi
.Ltmp92:
	movl	$1, %edx
.Ltmp93:
	callq	fwrite
.Ltmp94:
	.loc	1 160 4 is_stmt 1       # NQueens.c:160:4
	movl	$-1, %edi
	callq	exit
.Ltmp95:
.Lfunc_end5:
	.size	run, .Lfunc_end5-run
	.cfi_endproc

	.section	.rodata.cst16,"aM",@progbits,16
	.p2align	4
.LCPI6_0:
	.quad	78                      # 0x4e
	.quad	45                      # 0x2d
.LCPI6_1:
	.quad	81                      # 0x51
	.quad	117                     # 0x75
.LCPI6_2:
	.quad	101                     # 0x65
	.quad	101                     # 0x65
.LCPI6_3:
	.quad	110                     # 0x6e
	.quad	32                      # 0x20
.LCPI6_4:
	.quad	80                      # 0x50
	.quad	114                     # 0x72
.LCPI6_5:
	.quad	111                     # 0x6f
	.quad	98                      # 0x62
.LCPI6_6:
	.quad	108                     # 0x6c
	.quad	101                     # 0x65
.LCPI6_7:
	.quad	109                     # 0x6d
	.quad	32                      # 0x20
.LCPI6_8:
	.quad	111                     # 0x6f
	.quad	110                     # 0x6e
.LCPI6_9:
	.quad	32                      # 0x20
	.quad	97                      # 0x61
.LCPI6_10:
	.quad	32                      # 0x20
	.quad	78                      # 0x4e
.LCPI6_11:
	.quad	32                      # 0x20
	.quad	88                      # 0x58
.LCPI6_12:
	.quad	32                      # 0x20
	.quad	66                      # 0x42
.LCPI6_13:
	.quad	111                     # 0x6f
	.quad	97                      # 0x61
.LCPI6_14:
	.quad	114                     # 0x72
	.quad	100                     # 0x64
.LCPI6_15:
	.quad	78                      # 0x4e
	.quad	32                      # 0x20
.LCPI6_16:
	.quad	61                      # 0x3d
	.quad	32                      # 0x20
.LCPI6_17:
	.quad	70                      # 0x46
	.quad	111                     # 0x6f
.LCPI6_18:
	.quad	117                     # 0x75
	.quad	110                     # 0x6e
.LCPI6_19:
	.quad	100                     # 0x64
	.quad	32                      # 0x20
.LCPI6_20:
	.quad	32                      # 0x20
	.quad	115                     # 0x73
.LCPI6_21:
	.quad	111                     # 0x6f
	.quad	108                     # 0x6c
.LCPI6_22:
	.quad	117                     # 0x75
	.quad	116                     # 0x74
.LCPI6_23:
	.quad	105                     # 0x69
	.quad	111                     # 0x6f
.LCPI6_24:
	.quad	110                     # 0x6e
	.quad	115                     # 0x73
.LCPI6_25:
	.zero	16
	.text
	.globl	main
	.p2align	4, 0x90
	.type	main,@function
main:                                   # @main
.Lfunc_begin6:
	.loc	1 289 0                 # NQueens.c:289:0
	.cfi_startproc
# BB#0:                                 # %entry
	pushq	%rbp
.Ltmp96:
	.cfi_def_cfa_offset 16
	pushq	%r15
.Ltmp97:
	.cfi_def_cfa_offset 24
	pushq	%r14
.Ltmp98:
	.cfi_def_cfa_offset 32
	pushq	%r13
.Ltmp99:
	.cfi_def_cfa_offset 40
	pushq	%r12
.Ltmp100:
	.cfi_def_cfa_offset 48
	pushq	%rbx
.Ltmp101:
	.cfi_def_cfa_offset 56
	subq	$24, %rsp
.Ltmp102:
	.cfi_def_cfa_offset 80
.Ltmp103:
	.cfi_offset %rbx, -56
.Ltmp104:
	.cfi_offset %r12, -48
.Ltmp105:
	.cfi_offset %r13, -40
.Ltmp106:
	.cfi_offset %r14, -32
.Ltmp107:
	.cfi_offset %r15, -24
.Ltmp108:
	.cfi_offset %rbp, -16
	#DEBUG_VALUE: main:argc <- %EDI
	#DEBUG_VALUE: main:args <- %RSI
	movl	%edi, %ebx
.Ltmp109:
	#DEBUG_VALUE: main:_30_has_ownership <- 0
	#DEBUG_VALUE: main:_30_size <- 0
	#DEBUG_VALUE: main:_25_has_ownership <- 0
	#DEBUG_VALUE: main:_25_size <- 0
	#DEBUG_VALUE: main:_20_has_ownership <- 0
	#DEBUG_VALUE: main:_20_size <- 0
	#DEBUG_VALUE: main:_17_has_ownership <- 0
	#DEBUG_VALUE: main:_17_size <- 0
	#DEBUG_VALUE: main:_14 <- 0
	#DEBUG_VALUE: main:_13 <- 0
	#DEBUG_VALUE: main:_12_has_ownership <- 0
	#DEBUG_VALUE: main:_12_size <- 0
	#DEBUG_VALUE: main:_11_has_ownership <- 0
	#DEBUG_VALUE: main:_10 <- 0
	#DEBUG_VALUE: main:_9 <- 0
	#DEBUG_VALUE: main:_8_has_ownership <- 0
	#DEBUG_VALUE: main:_8_size <- 0
	#DEBUG_VALUE: main:_7 <- 0
	#DEBUG_VALUE: main:_6_has_ownership <- 0
	#DEBUG_VALUE: main:_6_size_size <- 0
	#DEBUG_VALUE: main:_6_size <- 0
	#DEBUG_VALUE: main:num_solutions <- 0
	#DEBUG_VALUE: main:init_has_ownership <- 0
	#DEBUG_VALUE: main:init_size <- 0
	#DEBUG_VALUE: main:n <- 0
	#DEBUG_VALUE: main:argc <- %EBX
	.loc	1 326 2 prologue_end    # NQueens.c:326:2
	callq	convertArgsToIntArray
.Ltmp110:
	movq	%rax, %rbp
.Ltmp111:
	#DEBUG_VALUE: main:_6 <- %RBP
	decl	%ebx
.Ltmp112:
	movslq	%ebx, %rbx
.Ltmp113:
	#DEBUG_VALUE: main:_6_has_ownership <- 1
	#DEBUG_VALUE: main:_6_size <- %EBX
	.loc	1 331 5                 # NQueens.c:331:5
	movq	(%rbp), %rdi
.Ltmp114:
	#DEBUG_VALUE: main:_8 <- %RDI
	.loc	1 333 2                 # NQueens.c:333:2
	callq	parseStringToInt
.Ltmp115:
	#DEBUG_VALUE: main:max <- %RAX
	#DEBUG_VALUE: main:_5 <- %RAX
	.loc	1 337 9                 # NQueens.c:337:9
	testq	%rax, %rax
.Ltmp116:
	.loc	1 337 5 is_stmt 0       # NQueens.c:337:5
	je	.LBB6_5
.Ltmp117:
# BB#1:                                 # %if.end
	#DEBUG_VALUE: main:_5 <- %RAX
	#DEBUG_VALUE: main:max <- %RAX
	#DEBUG_VALUE: main:_6_size <- %EBX
	#DEBUG_VALUE: main:_6 <- %RBP
	movq	%rbx, 8(%rsp)           # 8-byte Spill
	movq	%rbp, 16(%rsp)          # 8-byte Spill
	.loc	1 339 6 is_stmt 1       # NQueens.c:339:6
	movq	(%rax), %r13
.Ltmp118:
	#DEBUG_VALUE: main:_12_size <- %R13
	#DEBUG_VALUE: main:_11_has_ownership <- 1
	#DEBUG_VALUE: main:_10 <- 0
	#DEBUG_VALUE: main:_9 <- 0
	#DEBUG_VALUE: main:init_size <- %R13
	#DEBUG_VALUE: main:n <- %R13
	.loc	1 352 16                # NQueens.c:352:16
	leaq	(,%r13,8), %rdi
	.loc	1 352 8 is_stmt 0       # NQueens.c:352:8
	callq	malloc
.Ltmp119:
	movq	%rax, %r12
.Ltmp120:
	#DEBUG_VALUE: _12_i <- 0
	.loc	1 353 2 is_stmt 1 discriminator 1 # NQueens.c:353:2
	testq	%r13, %r13
	jle	.LBB6_4
.Ltmp121:
# BB#2:
	#DEBUG_VALUE: main:_6 <- %RBP
	#DEBUG_VALUE: main:_6_size <- %EBX
	#DEBUG_VALUE: main:n <- %R13
	#DEBUG_VALUE: main:init_size <- %R13
	#DEBUG_VALUE: main:_12_size <- %R13
	movq	%r12, %rbx
.Ltmp122:
	movq	%r13, %rbp
.Ltmp123:
	.p2align	4, 0x90
.LBB6_3:                                # %for.body
                                        # =>This Inner Loop Header: Depth=1
	.loc	1 3 17 discriminator 1  # NQueens.c:3:17
	movl	$16, %edi
	callq	malloc
.Ltmp124:
	.loc	1 5 13                  # NQueens.c:5:13
	xorps	%xmm0, %xmm0
	movups	%xmm0, (%rax)
.Ltmp125:
	.loc	1 353 46 discriminator 3 # NQueens.c:353:46
	movq	%rax, (%rbx)
.Ltmp126:
	.loc	1 353 2 is_stmt 0 discriminator 1 # NQueens.c:353:2
	addq	$8, %rbx
	decq	%rbp
	jne	.LBB6_3
.Ltmp127:
.LBB6_4:                                # %if.then92
	#DEBUG_VALUE: main:init_has_ownership <- 1
	#DEBUG_VALUE: main:_12_has_ownership <- 0
	#DEBUG_VALUE: main:_14 <- 0
	.loc	1 365 8 is_stmt 1       # NQueens.c:365:8
	xorl	%edx, %edx
	xorl	%ecx, %ecx
	movq	%r12, %rdi
	movq	%r13, %rsi
	movq	%r13, %r8
	callq	run
	movq	%rax, %r15
.Ltmp128:
	#DEBUG_VALUE: main:_17_size <- 33
	#DEBUG_VALUE: main:_13 <- %R15
	#DEBUG_VALUE: main:num_solutions <- %R15
	.loc	1 372 2                 # NQueens.c:372:2
	movl	$264, %edi              # imm = 0x108
	callq	malloc
	movq	%rax, %rbx
.Ltmp129:
	#DEBUG_VALUE: main:_17 <- %RBX
	.loc	1 373 9                 # NQueens.c:373:9
	movaps	.LCPI6_0(%rip), %xmm0   # xmm0 = [78,45]
	movups	%xmm0, (%rbx)
	.loc	1 373 35 is_stmt 0      # NQueens.c:373:35
	movaps	.LCPI6_1(%rip), %xmm0   # xmm0 = [81,117]
	movups	%xmm0, 16(%rbx)
	.loc	1 373 62                # NQueens.c:373:62
	movaps	.LCPI6_2(%rip), %xmm0   # xmm0 = [101,101]
	movups	%xmm0, 32(%rbx)
	.loc	1 373 90                # NQueens.c:373:90
	movaps	.LCPI6_3(%rip), %xmm0   # xmm0 = [110,32]
	movups	%xmm0, 48(%rbx)
	.loc	1 373 117               # NQueens.c:373:117
	movaps	.LCPI6_4(%rip), %xmm0   # xmm0 = [80,114]
	movups	%xmm0, 64(%rbx)
	.loc	1 373 145               # NQueens.c:373:145
	movaps	.LCPI6_5(%rip), %xmm0   # xmm0 = [111,98]
	movups	%xmm0, 80(%rbx)
	.loc	1 373 174               # NQueens.c:373:174
	movaps	.LCPI6_6(%rip), %xmm0   # xmm0 = [108,101]
	movups	%xmm0, 96(%rbx)
	.loc	1 373 204               # NQueens.c:373:204
	movaps	.LCPI6_7(%rip), %xmm0   # xmm0 = [109,32]
	movups	%xmm0, 112(%rbx)
	.loc	1 373 233               # NQueens.c:373:233
	movaps	.LCPI6_8(%rip), %xmm0   # xmm0 = [111,110]
	movups	%xmm0, 128(%rbx)
	.loc	1 373 263               # NQueens.c:373:263
	movaps	.LCPI6_9(%rip), %xmm0   # xmm0 = [32,97]
	movups	%xmm0, 144(%rbx)
	.loc	1 373 291               # NQueens.c:373:291
	movaps	.LCPI6_10(%rip), %xmm0  # xmm0 = [32,78]
	movups	%xmm0, 160(%rbx)
	.loc	1 373 319               # NQueens.c:373:319
	movaps	.LCPI6_11(%rip), %xmm1  # xmm1 = [32,88]
	movups	%xmm1, 176(%rbx)
	.loc	1 373 347               # NQueens.c:373:347
	movups	%xmm0, 192(%rbx)
	.loc	1 373 375               # NQueens.c:373:375
	movaps	.LCPI6_12(%rip), %xmm0  # xmm0 = [32,66]
	movups	%xmm0, 208(%rbx)
	.loc	1 373 403               # NQueens.c:373:403
	movaps	.LCPI6_13(%rip), %xmm0  # xmm0 = [111,97]
	movups	%xmm0, 224(%rbx)
	.loc	1 373 432               # NQueens.c:373:432
	movaps	.LCPI6_14(%rip), %xmm0  # xmm0 = [114,100]
	movups	%xmm0, 240(%rbx)
	.loc	1 373 462               # NQueens.c:373:462
	movq	$46, 256(%rbx)
.Ltmp130:
	#DEBUG_VALUE: main:_17_has_ownership <- 1
	.loc	1 376 2 is_stmt 1       # NQueens.c:376:2
	movl	$33, %esi
	movq	%rbx, %rdi
	callq	println_s
.Ltmp131:
	#DEBUG_VALUE: main:_20_size <- 4
	.loc	1 381 2                 # NQueens.c:381:2
	movl	$32, %edi
	callq	malloc
	movq	%rax, %r14
.Ltmp132:
	#DEBUG_VALUE: main:_20 <- %R14
	.loc	1 382 9                 # NQueens.c:382:9
	movaps	.LCPI6_15(%rip), %xmm0  # xmm0 = [78,32]
	movups	%xmm0, (%r14)
	.loc	1 382 35 is_stmt 0      # NQueens.c:382:35
	movaps	.LCPI6_16(%rip), %xmm0  # xmm0 = [61,32]
	movups	%xmm0, 16(%r14)
.Ltmp133:
	#DEBUG_VALUE: main:_20_has_ownership <- 1
	.loc	1 385 2 is_stmt 1       # NQueens.c:385:2
	movl	$4, %esi
	movq	%r14, %rdi
	callq	printf_s
	.loc	1 389 2                 # NQueens.c:389:2
	movl	$.L.str.6, %edi
	xorl	%eax, %eax
	movq	%r13, %rsi
	callq	printf
.Ltmp134:
	#DEBUG_VALUE: main:_25_size <- 6
	.loc	1 394 2                 # NQueens.c:394:2
	movl	$48, %edi
	callq	malloc
	movq	%rax, %r13
.Ltmp135:
	#DEBUG_VALUE: main:_25 <- %R13
	.loc	1 395 9                 # NQueens.c:395:9
	movaps	.LCPI6_17(%rip), %xmm0  # xmm0 = [70,111]
	movups	%xmm0, (%r13)
	.loc	1 395 36 is_stmt 0      # NQueens.c:395:36
	movaps	.LCPI6_18(%rip), %xmm0  # xmm0 = [117,110]
	movups	%xmm0, 16(%r13)
	.loc	1 395 64                # NQueens.c:395:64
	movaps	.LCPI6_19(%rip), %xmm0  # xmm0 = [100,32]
	movups	%xmm0, 32(%r13)
.Ltmp136:
	#DEBUG_VALUE: main:_25_has_ownership <- 1
	.loc	1 398 2 is_stmt 1       # NQueens.c:398:2
	movl	$6, %esi
	movq	%r13, %rdi
	callq	printf_s
	.loc	1 402 2                 # NQueens.c:402:2
	movl	$.L.str.2, %edi
	xorl	%eax, %eax
	movq	%r15, %rsi
	callq	printf
.Ltmp137:
	#DEBUG_VALUE: main:_30_size <- 11
	.loc	1 407 2                 # NQueens.c:407:2
	movl	$88, %edi
	callq	malloc
	movq	%rax, %rbp
.Ltmp138:
	#DEBUG_VALUE: main:_30 <- %RBP
	.loc	1 408 9                 # NQueens.c:408:9
	movaps	.LCPI6_20(%rip), %xmm0  # xmm0 = [32,115]
	movups	%xmm0, (%rbp)
	.loc	1 408 36 is_stmt 0      # NQueens.c:408:36
	movaps	.LCPI6_21(%rip), %xmm0  # xmm0 = [111,108]
	movups	%xmm0, 16(%rbp)
	.loc	1 408 64                # NQueens.c:408:64
	movaps	.LCPI6_22(%rip), %xmm0  # xmm0 = [117,116]
	movups	%xmm0, 32(%rbp)
	.loc	1 408 92                # NQueens.c:408:92
	movaps	.LCPI6_23(%rip), %xmm0  # xmm0 = [105,111]
	movups	%xmm0, 48(%rbp)
	.loc	1 408 120               # NQueens.c:408:120
	movaps	.LCPI6_24(%rip), %xmm0  # xmm0 = [110,115]
	movups	%xmm0, 64(%rbp)
	.loc	1 408 149               # NQueens.c:408:149
	movq	$46, 80(%rbp)
.Ltmp139:
	#DEBUG_VALUE: main:_30_has_ownership <- 1
	.loc	1 411 2 is_stmt 1       # NQueens.c:411:2
	movl	$11, %esi
	movq	%rbp, %rdi
	callq	println_s
.Ltmp140:
	.loc	1 415 2 discriminator 1 # NQueens.c:415:2
	movq	%r12, %rdi
	callq	free
.Ltmp141:
	#DEBUG_VALUE: main:init_has_ownership <- 0
	.loc	1 416 2 discriminator 1 # NQueens.c:416:2
	movq	16(%rsp), %rdi          # 8-byte Reload
	movq	8(%rsp), %rsi           # 8-byte Reload
	callq	free2DArray
.Ltmp142:
	#DEBUG_VALUE: main:_11_has_ownership <- 0
	#DEBUG_VALUE: main:_6_has_ownership <- 0
	.loc	1 420 2 discriminator 1 # NQueens.c:420:2
	movq	%rbx, %rdi
	callq	free
.Ltmp143:
	#DEBUG_VALUE: main:_17_has_ownership <- 0
	.loc	1 421 2 discriminator 1 # NQueens.c:421:2
	movq	%r14, %rdi
	callq	free
.Ltmp144:
	#DEBUG_VALUE: main:_20_has_ownership <- 0
	.loc	1 422 2 discriminator 1 # NQueens.c:422:2
	movq	%r13, %rdi
	callq	free
.Ltmp145:
	#DEBUG_VALUE: main:_25_has_ownership <- 0
	.loc	1 423 2 discriminator 1 # NQueens.c:423:2
	movq	%rbp, %rdi
	callq	free
.Ltmp146:
	#DEBUG_VALUE: main:_30_has_ownership <- 0
	.loc	1 424 2                 # NQueens.c:424:2
	xorl	%edi, %edi
	callq	exit
.Ltmp147:
.LBB6_5:                                # %if.end117.critedge
	#DEBUG_VALUE: main:_5 <- %RAX
	#DEBUG_VALUE: main:max <- %RAX
	#DEBUG_VALUE: main:_6_size <- %EBX
	#DEBUG_VALUE: main:_6 <- %RBP
	.loc	1 416 2 discriminator 1 # NQueens.c:416:2
	movq	%rbp, %rdi
	movq	%rbx, %rsi
	callq	free2DArray
.Ltmp148:
	#DEBUG_VALUE: main:_6_has_ownership <- 0
	.loc	1 424 2                 # NQueens.c:424:2
	xorl	%edi, %edi
	callq	exit
.Ltmp149:
.Lfunc_end6:
	.size	main, .Lfunc_end6-main
	.cfi_endproc

	.type	.L.str.1,@object        # @.str.1
	.section	.rodata.str1.1,"aMS",@progbits,1
.L.str.1:
	.asciz	" r:"
	.size	.L.str.1, 4

	.type	.L.str.2,@object        # @.str.2
.L.str.2:
	.asciz	"%lld"
	.size	.L.str.2, 5

	.type	.L.str.3,@object        # @.str.3
.L.str.3:
	.asciz	" c:"
	.size	.L.str.3, 4

	.type	.L.str.5,@object        # @.str.5
.L.str.5:
	.asciz	"fail"
	.size	.L.str.5, 5

	.type	.L.str.6,@object        # @.str.6
.L.str.6:
	.asciz	"%lld\n"
	.size	.L.str.6, 6

	.section	".note.GNU-stack","",@progbits