	.text
	.file	"llvm/GCD.polly.enablevc.ll"
	.globl	gcd
	.p2align	4, 0x90
	.type	gcd,@function
gcd:                                    # @gcd
.Lfunc_begin0:
	.file	1 "GCD.c"
	.loc	1 2 0                   # GCD.c:2:0
	.cfi_startproc
# BB#0:                                 # %entry
	#DEBUG_VALUE: gcd:a <- %RDI
	#DEBUG_VALUE: gcd:b <- %RSI
	#DEBUG_VALUE: gcd:_2 <- 0
	#DEBUG_VALUE: gcd:_3 <- 0
	#DEBUG_VALUE: gcd:_4 <- 0
	#DEBUG_VALUE: gcd:_5 <- 0
	#DEBUG_VALUE: gcd:_6 <- 0
	#DEBUG_VALUE: gcd:_7 <- 0
	.loc	1 12 6 prologue_end     # GCD.c:12:6
	testq	%rdi, %rdi
	je	.LBB0_1
.Ltmp0:
# BB#2:                                 # %while.cond.preheader
	#DEBUG_VALUE: gcd:b <- %RSI
	#DEBUG_VALUE: gcd:a <- %RDI
	#DEBUG_VALUE: gcd:_4 <- 0
	js	.LBB0_6
.Ltmp1:
# BB#3:                                 # %blklab4.lr.ph.preheader
	#DEBUG_VALUE: gcd:a <- %RDI
	#DEBUG_VALUE: gcd:b <- %RSI
	.loc	1 35 7                  # GCD.c:35:7
	testq	%rsi, %rsi
	je	.LBB0_8
.Ltmp2:
	.p2align	4, 0x90
.LBB0_4:                                # %blklab4
                                        # =>This Inner Loop Header: Depth=1
	#DEBUG_VALUE: gcd:_5 <- 0
	.loc	1 37 6                  # GCD.c:37:6
	movq	%rdi, %rax
	subq	%rsi, %rax
	jle	.LBB0_7
# BB#5:                                 # %if.end9
                                        #   in Loop: Header=BB0_4 Depth=1
	#DEBUG_VALUE: gcd:_4 <- 0
	movq	%rax, %rdi
	jns	.LBB0_4
	jmp	.LBB0_6
.LBB0_7:                                # %blklab5
                                        #   in Loop: Header=BB0_4 Depth=1
	#DEBUG_VALUE: gcd:_4 <- 0
	.loc	1 35 6                  # GCD.c:35:6
	subq	%rdi, %rsi
	jne	.LBB0_4
.Ltmp3:
.LBB0_8:                                # %cleanup
	.loc	1 60 1                  # GCD.c:60:1
	movq	%rdi, %rax
	retq
.LBB0_1:
.Ltmp4:
	#DEBUG_VALUE: gcd:b <- %RSI
	#DEBUG_VALUE: gcd:a <- %RDI
	movq	%rsi, %rdi
.Ltmp5:
	movq	%rdi, %rax
	retq
.Ltmp6:
.LBB0_6:                                # %if.end3
	.loc	1 26 12                 # GCD.c:26:12
	pushq	%rax
.Ltmp7:
	.cfi_def_cfa_offset 16
	movq	stderr(%rip), %rcx
	.loc	1 26 4 is_stmt 0        # GCD.c:26:4
	movl	$.L.str, %edi
	movl	$4, %esi
	movl	$1, %edx
	callq	fwrite
	.loc	1 27 4 is_stmt 1        # GCD.c:27:4
	movl	$-1, %edi
	callq	exit
.Ltmp8:
.Lfunc_end0:
	.size	gcd, .Lfunc_end0-gcd
	.cfi_endproc

	.globl	gcd_cached
	.p2align	4, 0x90
	.type	gcd_cached,@function
gcd_cached:                             # @gcd_cached
.Lfunc_begin1:
	.loc	1 62 0                  # GCD.c:62:0
	.cfi_startproc
# BB#0:                                 # %entry
	#DEBUG_VALUE: gcd_cached:a <- %RDI
	#DEBUG_VALUE: gcd_cached:b <- %RSI
	#DEBUG_VALUE: gcd_cached:n <- %RDX
	#DEBUG_VALUE: gcd_cached:gcds <- %RCX
	#DEBUG_VALUE: gcd_cached:gcds_size <- %R8
	#DEBUG_VALUE: gcd_cached:_4 <- 0
	#DEBUG_VALUE: gcd_cached:_5 <- 0
	#DEBUG_VALUE: gcd_cached:_6 <- 0
	#DEBUG_VALUE: gcd_cached:_7 <- 0
	#DEBUG_VALUE: gcd_cached:_8 <- 0
	#DEBUG_VALUE: gcd_cached:_9 <- 0
	#DEBUG_VALUE: gcd_cached:_10 <- 0
	#DEBUG_VALUE: gcd_cached:_11 <- 0
	.loc	1 74 6 prologue_end     # GCD.c:74:6
	testq	%rdi, %rdi
	je	.LBB1_4
.Ltmp9:
# BB#1:                                 # %blklab7
	#DEBUG_VALUE: gcd_cached:gcds_size <- %R8
	#DEBUG_VALUE: gcd_cached:gcds <- %RCX
	#DEBUG_VALUE: gcd_cached:n <- %RDX
	#DEBUG_VALUE: gcd_cached:b <- %RSI
	#DEBUG_VALUE: gcd_cached:a <- %RDI
	#DEBUG_VALUE: gcd_cached:_6 <- 0
	.loc	1 84 6                  # GCD.c:84:6
	testq	%rsi, %rsi
	je	.LBB1_2
.Ltmp10:
# BB#3:                                 # %blklab9
	#DEBUG_VALUE: gcd_cached:a <- %RDI
	#DEBUG_VALUE: gcd_cached:b <- %RSI
	#DEBUG_VALUE: gcd_cached:n <- %RDX
	#DEBUG_VALUE: gcd_cached:gcds <- %RCX
	#DEBUG_VALUE: gcd_cached:gcds_size <- %R8
	movq	%rdi, %rax
	negq	%rax
	xorl	%r8d, %r8d
.Ltmp11:
	.loc	1 92 6                  # GCD.c:92:6
	cmpq	%rsi, %rdi
	cmovgq	%r8, %rax
.Ltmp12:
	.loc	1 92 5 is_stmt 0        # GCD.c:92:5
	cmovgq	%rsi, %r8
	addq	%rsi, %rax
	subq	%r8, %rdi
.Ltmp13:
	.loc	1 108 6 is_stmt 1       # GCD.c:108:6
	imulq	%rdx, %rdi
.Ltmp14:
	#DEBUG_VALUE: gcd_cached:_9 <- %RDI
	.loc	1 110 8                 # GCD.c:110:8
	addq	%rax, %rdi
.Ltmp15:
	#DEBUG_VALUE: gcd_cached:_10 <- %RDI
	.loc	1 112 6                 # GCD.c:112:6
	movq	(%rcx,%rdi,8), %rsi
.Ltmp16:
	#DEBUG_VALUE: gcd_cached:_11 <- %RSI
.LBB1_4:                                # %cleanup
	#DEBUG_VALUE: gcd_cached:gcds <- %RCX
	#DEBUG_VALUE: gcd_cached:n <- %RDX
	.loc	1 120 1 discriminator 2 # GCD.c:120:1
	movq	%rsi, %rax
	retq
.LBB1_2:
.Ltmp17:
	#DEBUG_VALUE: gcd_cached:a <- %RDI
	#DEBUG_VALUE: gcd_cached:b <- %RSI
	#DEBUG_VALUE: gcd_cached:n <- %RDX
	#DEBUG_VALUE: gcd_cached:gcds <- %RCX
	#DEBUG_VALUE: gcd_cached:gcds_size <- %R8
	movq	%rdi, %rsi
.Ltmp18:
	movq	%rsi, %rax
	retq
.Ltmp19:
.Lfunc_end1:
	.size	gcd_cached, .Lfunc_end1-gcd_cached
	.cfi_endproc

	.section	.rodata.cst16,"aM",@progbits,16
	.p2align	4
.LCPI2_0:
	.quad	78                      # 0x4e
	.quad	32                      # 0x20
.LCPI2_1:
	.quad	61                      # 0x3d
	.quad	32                      # 0x20
.LCPI2_2:
	.quad	2                       # 0x2
	.quad	3                       # 0x3
.LCPI2_3:
	.quad	83                      # 0x53
	.quad	117                     # 0x75
.LCPI2_4:
	.quad	109                     # 0x6d
	.quad	58                      # 0x3a
.LCPI2_5:
	.quad	80                      # 0x50
	.quad	97                      # 0x61
.LCPI2_6:
	.quad	115                     # 0x73
	.quad	115                     # 0x73
.LCPI2_7:
	.quad	32                      # 0x20
	.quad	99                      # 0x63
.LCPI2_8:
	.quad	97                      # 0x61
	.quad	99                      # 0x63
.LCPI2_9:
	.quad	104                     # 0x68
	.quad	101                     # 0x65
.LCPI2_10:
	.quad	100                     # 0x64
	.quad	32                      # 0x20
.LCPI2_11:
	.quad	69                      # 0x45
	.quad	117                     # 0x75
.LCPI2_12:
	.quad	99                      # 0x63
	.quad	108                     # 0x6c
.LCPI2_13:
	.quad	105                     # 0x69
	.quad	100                     # 0x64
.LCPI2_14:
	.quad	32                      # 0x20
	.quad	71                      # 0x47
.LCPI2_15:
	.quad	67                      # 0x43
	.quad	68                      # 0x44
.LCPI2_16:
	.quad	32                      # 0x20
	.quad	116                     # 0x74
.LCPI2_17:
	.quad	101                     # 0x65
	.quad	115                     # 0x73
.LCPI2_18:
	.quad	116                     # 0x74
	.quad	32                      # 0x20
.LCPI2_19:
	.quad	99                      # 0x63
	.quad	97                      # 0x61
.LCPI2_20:
	.quad	115                     # 0x73
	.quad	101                     # 0x65
	.text
	.globl	main
	.p2align	4, 0x90
	.type	main,@function
main:                                   # @main
.Lfunc_begin2:
	.loc	1 122 0                 # GCD.c:122:0
	.cfi_startproc
# BB#0:                                 # %entry
	.loc	1 159 2 prologue_end    # GCD.c:159:2
	pushq	%rbp
.Ltmp20:
	.cfi_def_cfa_offset 16
	pushq	%r15
.Ltmp21:
	.cfi_def_cfa_offset 24
	pushq	%r14
.Ltmp22:
	.cfi_def_cfa_offset 32
	pushq	%r13
.Ltmp23:
	.cfi_def_cfa_offset 40
	pushq	%r12
.Ltmp24:
	.cfi_def_cfa_offset 48
	pushq	%rbx
.Ltmp25:
	.cfi_def_cfa_offset 56
	subq	$24, %rsp
.Ltmp26:
	.cfi_def_cfa_offset 80
.Ltmp27:
	.cfi_offset %rbx, -56
.Ltmp28:
	.cfi_offset %r12, -48
.Ltmp29:
	.cfi_offset %r13, -40
.Ltmp30:
	.cfi_offset %r14, -32
.Ltmp31:
	.cfi_offset %r15, -24
.Ltmp32:
	.cfi_offset %rbp, -16
	#DEBUG_VALUE: main:argc <- %EDI
	#DEBUG_VALUE: main:args <- %RSI
.Ltmp33:
	#DEBUG_VALUE: main:n <- 0
	#DEBUG_VALUE: main:gcds_size <- 0
	#DEBUG_VALUE: main:sum <- 0
	#DEBUG_VALUE: main:i <- 0
	#DEBUG_VALUE: main:j <- 0
	#DEBUG_VALUE: main:_8_size <- 0
	#DEBUG_VALUE: main:_8_size_size <- 0
	#DEBUG_VALUE: main:_9 <- 0
	#DEBUG_VALUE: main:_10_size <- 0
	#DEBUG_VALUE: main:_13_size <- 0
	#DEBUG_VALUE: main:_16 <- 0
	#DEBUG_VALUE: main:_17 <- 0
	#DEBUG_VALUE: main:_18_size <- 0
	#DEBUG_VALUE: main:_19 <- 0
	#DEBUG_VALUE: main:_20 <- 0
	#DEBUG_VALUE: main:_21 <- 0
	#DEBUG_VALUE: main:_22 <- 0
	#DEBUG_VALUE: main:_23 <- 0
	#DEBUG_VALUE: main:_24 <- 0
	#DEBUG_VALUE: main:_25 <- 0
	#DEBUG_VALUE: main:_26 <- 0
	#DEBUG_VALUE: main:_27 <- 0
	#DEBUG_VALUE: main:_28 <- 0
	#DEBUG_VALUE: main:_29 <- 0
	#DEBUG_VALUE: main:_30 <- 0
	#DEBUG_VALUE: main:_31 <- 0
	#DEBUG_VALUE: main:_32 <- 0
	#DEBUG_VALUE: main:_35_size <- 0
	#DEBUG_VALUE: main:_40_size <- 0
	callq	convertArgsToIntArray
.Ltmp34:
	#DEBUG_VALUE: main:_8 <- %RAX
	.loc	1 163 6                 # GCD.c:163:6
	movq	(%rax), %rdi
.Ltmp35:
	#DEBUG_VALUE: main:_10 <- %RDI
	.loc	1 165 2                 # GCD.c:165:2
	callq	parseStringToInt
.Ltmp36:
	#DEBUG_VALUE: main:max <- %RAX
	#DEBUG_VALUE: main:_7 <- %RAX
	.loc	1 169 9                 # GCD.c:169:9
	testq	%rax, %rax
	je	.LBB2_21
.Ltmp37:
# BB#1:                                 # %if.end
	#DEBUG_VALUE: main:_7 <- %RAX
	#DEBUG_VALUE: main:max <- %RAX
	.loc	1 171 6                 # GCD.c:171:6
	movq	(%rax), %r14
.Ltmp38:
	#DEBUG_VALUE: gcd_cached:n <- %R14
	#DEBUG_VALUE: main:_13_size <- 4
	#DEBUG_VALUE: main:n <- %R14
	.loc	1 175 2                 # GCD.c:175:2
	movl	$32, %edi
	callq	malloc
.Ltmp39:
	#DEBUG_VALUE: main:_13 <- %RAX
	.loc	1 176 9                 # GCD.c:176:9
	movaps	.LCPI2_0(%rip), %xmm0   # xmm0 = [78,32]
	movups	%xmm0, (%rax)
	.loc	1 176 35 is_stmt 0      # GCD.c:176:35
	movdqa	.LCPI2_1(%rip), %xmm0   # xmm0 = [61,32]
	movdqu	%xmm0, 16(%rax)
	.loc	1 178 2 is_stmt 1       # GCD.c:178:2
	movl	$4, %esi
	movq	%rax, %rdi
	callq	printf_s
.Ltmp40:
	.loc	1 188 2                 # GCD.c:188:2
	xorl	%ebx, %ebx
	.loc	1 182 2                 # GCD.c:182:2
	movl	$.L.str.1, %edi
	xorl	%eax, %eax
	movq	%r14, %rsi
	callq	printf
	#DEBUG_VALUE: main:_16 <- 0
	.loc	1 186 7                 # GCD.c:186:7
	movl	%r14d, %esi
	imull	%esi, %esi
	.loc	1 188 2                 # GCD.c:188:2
	xorl	%edi, %edi
	callq	gen1DArray
.Ltmp41:
	#DEBUG_VALUE: main:gcds <- %RAX
	#DEBUG_VALUE: main:_18 <- %RAX
	#DEBUG_VALUE: gcd_cached:gcds <- %RAX
	#DEBUG_VALUE: main:_20 <- 0
	#DEBUG_VALUE: main:_19 <- 0
	#DEBUG_VALUE: main:i <- 0
	#DEBUG_VALUE: main:sum <- 0
	.loc	1 202 6                 # GCD.c:202:6
	testq	%r14, %r14
	jle	.LBB2_20
.Ltmp42:
# BB#2:                                 # %while.cond16.preheader.us.preheader
	#DEBUG_VALUE: gcd_cached:gcds <- %RAX
	#DEBUG_VALUE: main:_18 <- %RAX
	#DEBUG_VALUE: main:gcds <- %RAX
	#DEBUG_VALUE: main:n <- %R14
	#DEBUG_VALUE: gcd_cached:n <- %R14
	.loc	1 74 6                  # GCD.c:74:6
	leaq	-4(%r14), %rcx
	shrq	$2, %rcx
	leaq	1(%rcx), %rdx
.Ltmp43:
	.loc	1 62 32                 # GCD.c:62:32
	movq	%r14, %r11
	andq	$-4, %r11
	movq	%rdx, 16(%rsp)          # 8-byte Spill
	andl	$1, %edx
.Ltmp44:
	.loc	1 74 6                  # GCD.c:74:6
	leaq	(,%r14,8), %r12
	movq	%rdx, (%rsp)            # 8-byte Spill
	decq	%rdx
	subq	%rcx, %rdx
	movq	%rdx, 8(%rsp)           # 8-byte Spill
	xorl	%r13d, %r13d
	movl	$1, %r15d
	movd	%r15, %xmm0
	pslldq	$8, %xmm0               # xmm0 = zero,zero,zero,zero,zero,zero,zero,zero,xmm0[0,1,2,3,4,5,6,7]
	movdqa	.LCPI2_2(%rip), %xmm1   # xmm1 = [2,3]
	movq	%rax, %rcx
	xorl	%ebx, %ebx
	xorl	%r10d, %r10d
.Ltmp45:
	.p2align	4, 0x90
.LBB2_3:                                # %while.cond16.preheader.us
                                        # =>This Loop Header: Depth=1
                                        #     Child Loop BB2_5 Depth 2
                                        #     Child Loop BB2_15 Depth 2
                                        #     Child Loop BB2_10 Depth 2
	#DEBUG_VALUE: gcd_cached:a <- %R10
	testq	%r10, %r10
.Ltmp46:
	.loc	1 74 5 is_stmt 0        # GCD.c:74:5
	je	.LBB2_8
.Ltmp47:
# BB#4:                                 # %if.end21.us142.preheader
                                        #   in Loop: Header=BB2_3 Depth=1
	#DEBUG_VALUE: gcd_cached:a <- %R10
	.loc	1 212 10 is_stmt 1      # GCD.c:212:10
	movq	%r10, %rdi
	negq	%rdi
	movq	%rcx, %rdx
	xorl	%ebp, %ebp
.Ltmp48:
	.p2align	4, 0x90
.LBB2_5:                                # %if.end21.us142
                                        #   Parent Loop BB2_3 Depth=1
                                        # =>  This Inner Loop Header: Depth=2
	#DEBUG_VALUE: gcd_cached:_4 <- 0
	#DEBUG_VALUE: gcd_cached:_5 <- 0
	#DEBUG_VALUE: gcd_cached:_6 <- 0
	#DEBUG_VALUE: gcd_cached:_7 <- 0
	#DEBUG_VALUE: gcd_cached:_8 <- 0
	#DEBUG_VALUE: gcd_cached:_9 <- 0
	#DEBUG_VALUE: gcd_cached:_10 <- 0
	#DEBUG_VALUE: gcd_cached:_11 <- 0
	#DEBUG_VALUE: gcd_cached:b <- %RBP
	.loc	1 84 6                  # GCD.c:84:6
	testq	%rbp, %rbp
.Ltmp49:
	.loc	1 212 10                # GCD.c:212:10
	movq	%r10, %rsi
	je	.LBB2_7
.Ltmp50:
# BB#6:                                 # %blklab9.i.us147
                                        #   in Loop: Header=BB2_5 Depth=2
	#DEBUG_VALUE: gcd_cached:b <- %RBP
	.loc	1 92 6                  # GCD.c:92:6
	cmpq	%rbp, %r10
.Ltmp51:
	.loc	1 212 10                # GCD.c:212:10
	movq	%rdi, %rsi
	cmovgq	%r13, %rsi
.Ltmp52:
	.loc	1 92 5                  # GCD.c:92:5
	movl	$0, %r9d
	cmovgq	%rbp, %r9
	movq	%r10, %r8
	subq	%r9, %r8
	.loc	1 112 6                 # GCD.c:112:6
	imulq	%r14, %r8
	addq	%rsi, %r8
	addq	%rbp, %r8
	movq	(%rax,%r8,8), %rsi
.Ltmp53:
	#DEBUG_VALUE: gcd_cached:_11 <- %RSI
.LBB2_7:                                # %gcd_cached.exit.us156
                                        #   in Loop: Header=BB2_5 Depth=2
	#DEBUG_VALUE: gcd_cached:b <- %RBP
	#DEBUG_VALUE: main:_22 <- %RSI
	.loc	1 218 14                # GCD.c:218:14
	movq	%rsi, (%rdx)
	.loc	1 226 11                # GCD.c:226:11
	addq	%rsi, %rbx
.Ltmp54:
	#DEBUG_VALUE: main:_29 <- 1
	#DEBUG_VALUE: main:_28 <- %RBX
	#DEBUG_VALUE: main:sum <- %RBX
	.loc	1 232 9                 # GCD.c:232:9
	incq	%rbp
.Ltmp55:
	#DEBUG_VALUE: main:_30 <- %RBP
	#DEBUG_VALUE: main:j <- %RBP
	.loc	1 210 7                 # GCD.c:210:7
	addq	$8, %rdx
	cmpq	%rbp, %r14
	jne	.LBB2_5
	jmp	.LBB2_19
.Ltmp56:
	.p2align	4, 0x90
.LBB2_8:                                # %if.end21.us.us.preheader
                                        #   in Loop: Header=BB2_3 Depth=1
	#DEBUG_VALUE: gcd_cached:a <- %R10
	.loc	1 62 32                 # GCD.c:62:32
	cmpq	$3, %r14
	jbe	.LBB2_9
.Ltmp57:
# BB#11:                                # %min.iters.checked
                                        #   in Loop: Header=BB2_3 Depth=1
	#DEBUG_VALUE: gcd_cached:a <- %R10
	testq	%r11, %r11
	je	.LBB2_9
.Ltmp58:
# BB#12:                                # %vector.ph
                                        #   in Loop: Header=BB2_3 Depth=1
	#DEBUG_VALUE: gcd_cached:a <- %R10
	movq	(%rsp), %rdx            # 8-byte Reload
	cmpq	%rdx, 16(%rsp)          # 8-byte Folded Reload
	movd	%rbx, %xmm4
	pxor	%xmm2, %xmm2
	jne	.LBB2_14
.Ltmp59:
# BB#13:                                #   in Loop: Header=BB2_3 Depth=1
	#DEBUG_VALUE: gcd_cached:a <- %R10
	xorl	%ebx, %ebx
	movdqa	%xmm4, %xmm3
	jmp	.LBB2_16
.Ltmp60:
	.p2align	4, 0x90
.LBB2_9:                                #   in Loop: Header=BB2_3 Depth=1
	#DEBUG_VALUE: gcd_cached:a <- %R10
	xorl	%edx, %edx
	jmp	.LBB2_10
.Ltmp61:
.LBB2_14:                               # %vector.ph.new
                                        #   in Loop: Header=BB2_3 Depth=1
	#DEBUG_VALUE: gcd_cached:a <- %R10
	pxor	%xmm2, %xmm2
	.loc	1 232 9                 # GCD.c:232:9
	movq	8(%rsp), %rdi           # 8-byte Reload
	xorl	%ebx, %ebx
.Ltmp62:
	.p2align	4, 0x90
.LBB2_15:                               # %vector.body
                                        #   Parent Loop BB2_3 Depth=1
                                        # =>  This Inner Loop Header: Depth=2
	movd	%rbx, %xmm3
	pshufd	$68, %xmm3, %xmm5       # xmm5 = xmm3[0,1,0,1]
	movd	%r15, %xmm3
	pslldq	$8, %xmm3               # xmm3 = zero,zero,zero,zero,zero,zero,zero,zero,xmm3[0,1,2,3,4,5,6,7]
	movdqa	%xmm5, %xmm6
	paddq	%xmm3, %xmm6
	paddq	%xmm1, %xmm5
	.loc	1 218 14                # GCD.c:218:14
	movdqu	%xmm6, (%rcx,%rbx,8)
	movdqu	%xmm5, 16(%rcx,%rbx,8)
	.loc	1 226 11                # GCD.c:226:11
	paddq	%xmm4, %xmm6
	paddq	%xmm2, %xmm5
	leaq	4(%rbx), %rdx
	movd	%rdx, %xmm2
	pshufd	$68, %xmm2, %xmm2       # xmm2 = xmm2[0,1,0,1]
	paddq	%xmm2, %xmm3
	paddq	%xmm1, %xmm2
	.loc	1 218 14                # GCD.c:218:14
	movdqu	%xmm3, 32(%rcx,%rbx,8)
	movdqu	%xmm2, 48(%rcx,%rbx,8)
	.loc	1 226 11                # GCD.c:226:11
	paddq	%xmm6, %xmm3
	paddq	%xmm5, %xmm2
.Ltmp63:
	.loc	1 62 32                 # GCD.c:62:32
	addq	$8, %rbx
	addq	$2, %rdi
	movdqa	%xmm3, %xmm4
	jne	.LBB2_15
.Ltmp64:
.LBB2_16:                               # %middle.block.unr-lcssa
                                        #   in Loop: Header=BB2_3 Depth=1
	cmpq	$0, (%rsp)              # 8-byte Folded Reload
	je	.LBB2_18
# BB#17:                                # %middle.block.epilog-lcssa
                                        #   in Loop: Header=BB2_3 Depth=1
	.loc	1 214 9                 # GCD.c:214:9
	movq	%r10, %rdx
	imulq	%r14, %rdx
.Ltmp65:
	#DEBUG_VALUE: main:_25 <- %RDX
	#DEBUG_VALUE: main:_23 <- %RDX
	movd	%rbx, %xmm4
	pshufd	$68, %xmm4, %xmm4       # xmm4 = xmm4[0,1,0,1]
	movdqa	%xmm4, %xmm5
	paddq	%xmm0, %xmm5
	paddq	%xmm1, %xmm4
	.loc	1 218 4                 # GCD.c:218:4
	addq	%rbx, %rdx
.Ltmp66:
	.loc	1 218 14 is_stmt 0      # GCD.c:218:14
	movdqu	%xmm5, (%rax,%rdx,8)
	movdqu	%xmm4, 16(%rax,%rdx,8)
	.loc	1 226 11 is_stmt 1      # GCD.c:226:11
	paddq	%xmm4, %xmm2
	paddq	%xmm5, %xmm3
.LBB2_18:                               # %middle.block
                                        #   in Loop: Header=BB2_3 Depth=1
	cmpq	%r11, %r14
	paddq	%xmm3, %xmm2
	pshufd	$78, %xmm2, %xmm3       # xmm3 = xmm2[2,3,0,1]
	paddq	%xmm2, %xmm3
	movd	%xmm3, %rbx
	movq	%r11, %rdx
	je	.LBB2_19
	.p2align	4, 0x90
.LBB2_10:                               # %if.end21.us.us
                                        #   Parent Loop BB2_3 Depth=1
                                        # =>  This Inner Loop Header: Depth=2
.Ltmp67:
	#DEBUG_VALUE: main:_22 <- %RDX
	#DEBUG_VALUE: gcd_cached:_4 <- 0
	#DEBUG_VALUE: gcd_cached:_5 <- 0
	#DEBUG_VALUE: gcd_cached:_6 <- 0
	#DEBUG_VALUE: gcd_cached:_7 <- 0
	#DEBUG_VALUE: gcd_cached:_8 <- 0
	#DEBUG_VALUE: gcd_cached:_9 <- 0
	#DEBUG_VALUE: gcd_cached:_10 <- 0
	#DEBUG_VALUE: gcd_cached:_11 <- 0
	.loc	1 218 14                # GCD.c:218:14
	movq	%rdx, (%rcx,%rdx,8)
	.loc	1 226 11                # GCD.c:226:11
	addq	%rdx, %rbx
	#DEBUG_VALUE: main:_29 <- 1
.Ltmp68:
	#DEBUG_VALUE: main:_28 <- %RBX
	#DEBUG_VALUE: main:sum <- %RBX
	.loc	1 232 9                 # GCD.c:232:9
	incq	%rdx
.Ltmp69:
	#DEBUG_VALUE: main:_30 <- %RDX
	#DEBUG_VALUE: main:j <- %RDX
	.loc	1 210 7                 # GCD.c:210:7
	cmpq	%rdx, %r14
	jne	.LBB2_10
.Ltmp70:
.LBB2_19:                               # %blklab16.loopexit.us
                                        #   in Loop: Header=BB2_3 Depth=1
	#DEBUG_VALUE: main:_31 <- 1
	.loc	1 243 8                 # GCD.c:243:8
	incq	%r10
.Ltmp71:
	#DEBUG_VALUE: main:_32 <- %R10
	#DEBUG_VALUE: main:i <- %R10
	.loc	1 202 6                 # GCD.c:202:6
	addq	%r12, %rcx
	cmpq	%r14, %r10
	jne	.LBB2_3
.Ltmp72:
.LBB2_20:                               # %blklab14
	#DEBUG_VALUE: main:_35_size <- 5
	.loc	1 254 2                 # GCD.c:254:2
	movl	$40, %edi
	callq	malloc
.Ltmp73:
	#DEBUG_VALUE: main:_35 <- %RAX
	.loc	1 255 9                 # GCD.c:255:9
	movaps	.LCPI2_3(%rip), %xmm0   # xmm0 = [83,117]
	movups	%xmm0, (%rax)
	.loc	1 255 36 is_stmt 0      # GCD.c:255:36
	movaps	.LCPI2_4(%rip), %xmm0   # xmm0 = [109,58]
	movups	%xmm0, 16(%rax)
	.loc	1 255 63                # GCD.c:255:63
	movq	$32, 32(%rax)
	.loc	1 257 2 is_stmt 1       # GCD.c:257:2
	movl	$5, %esi
	movq	%rax, %rdi
	callq	printf_s
.Ltmp74:
	.loc	1 261 2                 # GCD.c:261:2
	movl	$.L.str.1, %edi
	xorl	%eax, %eax
	movq	%rbx, %rsi
	callq	printf
.Ltmp75:
	#DEBUG_VALUE: main:_40_size <- 32
	.loc	1 265 2                 # GCD.c:265:2
	movl	$256, %edi              # imm = 0x100
	callq	malloc
.Ltmp76:
	#DEBUG_VALUE: main:_40 <- %RAX
	.loc	1 266 9                 # GCD.c:266:9
	movaps	.LCPI2_5(%rip), %xmm0   # xmm0 = [80,97]
	movups	%xmm0, (%rax)
	.loc	1 266 35 is_stmt 0      # GCD.c:266:35
	movaps	.LCPI2_6(%rip), %xmm0   # xmm0 = [115,115]
	movups	%xmm0, 16(%rax)
	.loc	1 266 63                # GCD.c:266:63
	movaps	.LCPI2_7(%rip), %xmm0   # xmm0 = [32,99]
	movups	%xmm0, 32(%rax)
	.loc	1 266 89                # GCD.c:266:89
	movaps	.LCPI2_8(%rip), %xmm0   # xmm0 = [97,99]
	movups	%xmm0, 48(%rax)
	.loc	1 266 115               # GCD.c:266:115
	movaps	.LCPI2_9(%rip), %xmm0   # xmm0 = [104,101]
	movups	%xmm0, 64(%rax)
	.loc	1 266 144               # GCD.c:266:144
	movaps	.LCPI2_10(%rip), %xmm0  # xmm0 = [100,32]
	movups	%xmm0, 80(%rax)
	.loc	1 266 173               # GCD.c:266:173
	movaps	.LCPI2_11(%rip), %xmm0  # xmm0 = [69,117]
	movups	%xmm0, 96(%rax)
	.loc	1 266 202               # GCD.c:266:202
	movaps	.LCPI2_12(%rip), %xmm0  # xmm0 = [99,108]
	movups	%xmm0, 112(%rax)
	.loc	1 266 231               # GCD.c:266:231
	movaps	.LCPI2_13(%rip), %xmm0  # xmm0 = [105,100]
	movups	%xmm0, 128(%rax)
	.loc	1 266 261               # GCD.c:266:261
	movaps	.LCPI2_14(%rip), %xmm0  # xmm0 = [32,71]
	movups	%xmm0, 144(%rax)
	.loc	1 266 289               # GCD.c:266:289
	movaps	.LCPI2_15(%rip), %xmm0  # xmm0 = [67,68]
	movups	%xmm0, 160(%rax)
	.loc	1 266 317               # GCD.c:266:317
	movaps	.LCPI2_16(%rip), %xmm0  # xmm0 = [32,116]
	movups	%xmm0, 176(%rax)
	.loc	1 266 346               # GCD.c:266:346
	movaps	.LCPI2_17(%rip), %xmm0  # xmm0 = [101,115]
	movups	%xmm0, 192(%rax)
	.loc	1 266 376               # GCD.c:266:376
	movaps	.LCPI2_18(%rip), %xmm0  # xmm0 = [116,32]
	movups	%xmm0, 208(%rax)
	.loc	1 266 405               # GCD.c:266:405
	movaps	.LCPI2_19(%rip), %xmm0  # xmm0 = [99,97]
	movups	%xmm0, 224(%rax)
	.loc	1 266 433               # GCD.c:266:433
	movaps	.LCPI2_20(%rip), %xmm0  # xmm0 = [115,101]
	movups	%xmm0, 240(%rax)
	.loc	1 268 2 is_stmt 1       # GCD.c:268:2
	movl	$32, %esi
	movq	%rax, %rdi
	callq	println_s
.Ltmp77:
.LBB2_21:                               # %blklab13
	.loc	1 272 2                 # GCD.c:272:2
	xorl	%edi, %edi
	callq	exit
.Ltmp78:
.Lfunc_end2:
	.size	main, .Lfunc_end2-main
	.cfi_endproc

	.type	.L.str,@object          # @.str
	.section	.rodata.str1.1,"aMS",@progbits,1
.L.str:
	.asciz	"fail"
	.size	.L.str, 5

	.type	.L.str.1,@object        # @.str.1
.L.str.1:
	.asciz	"%lld\n"
	.size	.L.str.1, 6

	.section	".note.GNU-stack","",@progbits