	.text
	.file	"llvm/GCD.polly.enablevc.ll"
	.globl	gcd
	.p2align	4, 0x90
	.type	gcd,@function
gcd:                                    # @gcd
.Lfunc_begin0:
	.file	1 "GCD.c"
	.loc	1 2 0                   # GCD.c:2:0
	.cfi_startproc
# BB#0:                                 # %entry
	#DEBUG_VALUE: gcd:a <- %RDI
	#DEBUG_VALUE: gcd:b <- %RSI
	#DEBUG_VALUE: gcd:_2 <- 0
	#DEBUG_VALUE: gcd:_3 <- 0
	#DEBUG_VALUE: gcd:_4 <- 0
	#DEBUG_VALUE: gcd:_5 <- 0
	#DEBUG_VALUE: gcd:_6 <- 0
	#DEBUG_VALUE: gcd:_7 <- 0
	.loc	1 12 6 prologue_end     # GCD.c:12:6
	testq	%rdi, %rdi
	je	.LBB0_1
.Ltmp0:
# BB#2:                                 # %while.cond.preheader
	#DEBUG_VALUE: gcd:b <- %RSI
	#DEBUG_VALUE: gcd:a <- %RDI
	#DEBUG_VALUE: gcd:_4 <- 0
	js	.LBB0_6
.Ltmp1:
# BB#3:                                 # %blklab4.lr.ph.preheader
	#DEBUG_VALUE: gcd:a <- %RDI
	#DEBUG_VALUE: gcd:b <- %RSI
	.loc	1 35 7                  # GCD.c:35:7
	testq	%rsi, %rsi
	je	.LBB0_8
.Ltmp2:
	.p2align	4, 0x90
.LBB0_4:                                # %blklab4
                                        # =>This Inner Loop Header: Depth=1
	#DEBUG_VALUE: gcd:_5 <- 0
	.loc	1 37 6                  # GCD.c:37:6
	movq	%rdi, %rax
	subq	%rsi, %rax
	jle	.LBB0_7
# BB#5:                                 # %if.end9
                                        #   in Loop: Header=BB0_4 Depth=1
	#DEBUG_VALUE: gcd:_4 <- 0
	movq	%rax, %rdi
	jns	.LBB0_4
	jmp	.LBB0_6
.LBB0_7:                                # %blklab5
                                        #   in Loop: Header=BB0_4 Depth=1
	#DEBUG_VALUE: gcd:_4 <- 0
	.loc	1 35 6                  # GCD.c:35:6
	subq	%rdi, %rsi
	jne	.LBB0_4
.Ltmp3:
.LBB0_8:                                # %cleanup
	.loc	1 60 1                  # GCD.c:60:1
	movq	%rdi, %rax
	retq
.LBB0_1:
.Ltmp4:
	#DEBUG_VALUE: gcd:b <- %RSI
	#DEBUG_VALUE: gcd:a <- %RDI
	movq	%rsi, %rdi
.Ltmp5:
	movq	%rdi, %rax
	retq
.Ltmp6:
.LBB0_6:                                # %if.end3
	.loc	1 26 12                 # GCD.c:26:12
	pushq	%rax
.Ltmp7:
	.cfi_def_cfa_offset 16
	movq	stderr(%rip), %rcx
	.loc	1 26 4 is_stmt 0        # GCD.c:26:4
	movl	$.L.str, %edi
	movl	$4, %esi
	movl	$1, %edx
	callq	fwrite
	.loc	1 27 4 is_stmt 1        # GCD.c:27:4
	movl	$-1, %edi
	callq	exit
.Ltmp8:
.Lfunc_end0:
	.size	gcd, .Lfunc_end0-gcd
	.cfi_endproc

	.globl	gcd_cached
	.p2align	4, 0x90
	.type	gcd_cached,@function
gcd_cached:                             # @gcd_cached
.Lfunc_begin1:
	.loc	1 62 0                  # GCD.c:62:0
	.cfi_startproc
# BB#0:                                 # %entry
	pushq	%r14
.Ltmp9:
	.cfi_def_cfa_offset 16
	pushq	%rbx
.Ltmp10:
	.cfi_def_cfa_offset 24
	pushq	%rax
.Ltmp11:
	.cfi_def_cfa_offset 32
.Ltmp12:
	.cfi_offset %rbx, -24
.Ltmp13:
	.cfi_offset %r14, -16
	#DEBUG_VALUE: gcd_cached:a <- %RDI
	#DEBUG_VALUE: gcd_cached:b <- %RSI
	#DEBUG_VALUE: gcd_cached:n <- %RDX
	#DEBUG_VALUE: gcd_cached:gcds <- %RCX
	#DEBUG_VALUE: gcd_cached:gcds_size <- %R8
	#DEBUG_VALUE: gcd_cached:gcds_has_ownership [bit_piece offset=0 size=1] <- %R9D
	movq	%rsi, %r14
.Ltmp14:
	#DEBUG_VALUE: gcd_cached:b <- %R14
	movq	%rdi, %rbx
.Ltmp15:
	#DEBUG_VALUE: gcd_cached:_11 <- 0
	#DEBUG_VALUE: gcd_cached:_10 <- 0
	#DEBUG_VALUE: gcd_cached:_9 <- 0
	#DEBUG_VALUE: gcd_cached:_8 <- 0
	#DEBUG_VALUE: gcd_cached:_7 <- 0
	#DEBUG_VALUE: gcd_cached:_6 <- 0
	#DEBUG_VALUE: gcd_cached:_5 <- 0
	#DEBUG_VALUE: gcd_cached:_4 <- 0
	#DEBUG_VALUE: gcd_cached:gcds_has_ownership [bit_piece offset=0 size=1] <- %R9B
	#DEBUG_VALUE: gcd_cached:a <- %RBX
	.loc	1 74 5 prologue_end     # GCD.c:74:5
	testq	%rbx, %rbx
	je	.LBB1_6
.Ltmp16:
# BB#1:                                 # %blklab7
	#DEBUG_VALUE: gcd_cached:a <- %RBX
	#DEBUG_VALUE: gcd_cached:gcds_has_ownership [bit_piece offset=0 size=1] <- %R9B
	#DEBUG_VALUE: gcd_cached:b <- %R14
	#DEBUG_VALUE: gcd_cached:gcds_size <- %R8
	#DEBUG_VALUE: gcd_cached:gcds <- %RCX
	#DEBUG_VALUE: gcd_cached:n <- %RDX
	#DEBUG_VALUE: gcd_cached:_6 <- 0
	.loc	1 85 5                  # GCD.c:85:5
	testq	%r14, %r14
	je	.LBB1_2
.Ltmp17:
# BB#5:                                 # %blklab9
	#DEBUG_VALUE: gcd_cached:n <- %RDX
	#DEBUG_VALUE: gcd_cached:gcds <- %RCX
	#DEBUG_VALUE: gcd_cached:gcds_size <- %R8
	#DEBUG_VALUE: gcd_cached:b <- %R14
	#DEBUG_VALUE: gcd_cached:gcds_has_ownership [bit_piece offset=0 size=1] <- %R9B
	#DEBUG_VALUE: gcd_cached:a <- %RBX
	movq	%rbx, %rax
	negq	%rax
	xorl	%esi, %esi
.Ltmp18:
	.loc	1 94 6                  # GCD.c:94:6
	cmpq	%r14, %rbx
	cmovgq	%rsi, %rax
.Ltmp19:
	.loc	1 94 5 is_stmt 0        # GCD.c:94:5
	cmovgq	%r14, %rsi
	addq	%r14, %rax
	subq	%rsi, %rbx
.Ltmp20:
	.loc	1 110 6 is_stmt 1       # GCD.c:110:6
	imulq	%rdx, %rbx
.Ltmp21:
	#DEBUG_VALUE: gcd_cached:_9 <- %RBX
	.loc	1 112 8                 # GCD.c:112:8
	addq	%rax, %rbx
.Ltmp22:
	#DEBUG_VALUE: gcd_cached:_10 <- %RBX
	.loc	1 114 6                 # GCD.c:114:6
	movq	(%rcx,%rbx,8), %r14
.Ltmp23:
.LBB1_6:                                # %blklab9
	#DEBUG_VALUE: gcd_cached:gcds_has_ownership [bit_piece offset=0 size=1] <- %R9B
	#DEBUG_VALUE: gcd_cached:gcds_size <- %R8
	#DEBUG_VALUE: gcd_cached:gcds <- %RCX
	#DEBUG_VALUE: gcd_cached:n <- %RDX
	#DEBUG_VALUE: gcd_cached:_11 <- %R14
	.loc	1 116 2                 # GCD.c:116:2
	testb	%r9b, %r9b
	je	.LBB1_8
.Ltmp24:
# BB#7:                                 # %if.then14
	#DEBUG_VALUE: gcd_cached:n <- %RDX
	#DEBUG_VALUE: gcd_cached:gcds <- %RCX
	#DEBUG_VALUE: gcd_cached:gcds_size <- %R8
	#DEBUG_VALUE: gcd_cached:gcds_has_ownership [bit_piece offset=0 size=1] <- %R9B
	#DEBUG_VALUE: gcd_cached:_11 <- %R14
	.loc	1 116 2 is_stmt 0 discriminator 1 # GCD.c:116:2
	movq	%rcx, %rdi
	callq	free
.Ltmp25:
	#DEBUG_VALUE: gcd_cached:gcds_has_ownership <- 0
	jmp	.LBB1_8
.Ltmp26:
.LBB1_2:                                # %if.end5
	#DEBUG_VALUE: gcd_cached:n <- %RDX
	#DEBUG_VALUE: gcd_cached:gcds <- %RCX
	#DEBUG_VALUE: gcd_cached:gcds_size <- %R8
	#DEBUG_VALUE: gcd_cached:b <- %R14
	#DEBUG_VALUE: gcd_cached:gcds_has_ownership [bit_piece offset=0 size=1] <- %R9B
	#DEBUG_VALUE: gcd_cached:a <- %RBX
	.loc	1 87 2 is_stmt 1        # GCD.c:87:2
	testb	%r9b, %r9b
	je	.LBB1_3
.Ltmp27:
# BB#4:                                 # %if.then7
	#DEBUG_VALUE: gcd_cached:a <- %RBX
	#DEBUG_VALUE: gcd_cached:gcds_has_ownership [bit_piece offset=0 size=1] <- %R9B
	#DEBUG_VALUE: gcd_cached:b <- %R14
	#DEBUG_VALUE: gcd_cached:gcds_size <- %R8
	#DEBUG_VALUE: gcd_cached:gcds <- %RCX
	#DEBUG_VALUE: gcd_cached:n <- %RDX
	.loc	1 87 2 is_stmt 0 discriminator 1 # GCD.c:87:2
	movq	%rcx, %rdi
	callq	free
.Ltmp28:
	#DEBUG_VALUE: gcd_cached:gcds_has_ownership <- 0
	movq	%rbx, %r14
.Ltmp29:
	jmp	.LBB1_8
.Ltmp30:
.LBB1_3:
	#DEBUG_VALUE: gcd_cached:a <- %RBX
	#DEBUG_VALUE: gcd_cached:gcds_has_ownership [bit_piece offset=0 size=1] <- %R9B
	#DEBUG_VALUE: gcd_cached:b <- %R14
	#DEBUG_VALUE: gcd_cached:gcds_size <- %R8
	#DEBUG_VALUE: gcd_cached:gcds <- %RCX
	#DEBUG_VALUE: gcd_cached:n <- %RDX
	movq	%rbx, %r14
.Ltmp31:
.LBB1_8:                                # %cleanup
	.loc	1 123 1 is_stmt 1 discriminator 2 # GCD.c:123:1
	movq	%r14, %rax
	addq	$8, %rsp
	popq	%rbx
	popq	%r14
	retq
.Ltmp32:
.Lfunc_end1:
	.size	gcd_cached, .Lfunc_end1-gcd_cached
	.cfi_endproc

	.section	.rodata.cst16,"aM",@progbits,16
	.p2align	4
.LCPI2_0:
	.quad	78                      # 0x4e
	.quad	32                      # 0x20
.LCPI2_1:
	.quad	61                      # 0x3d
	.quad	32                      # 0x20
.LCPI2_2:
	.quad	78                      # 0x4e
	.quad	117                     # 0x75
.LCPI2_3:
	.quad	109                     # 0x6d
	.quad	98                      # 0x62
.LCPI2_4:
	.quad	101                     # 0x65
	.quad	114                     # 0x72
.LCPI2_5:
	.quad	58                      # 0x3a
	.quad	32                      # 0x20
.LCPI2_6:
	.quad	32                      # 0x20
	.quad	78                      # 0x4e
.LCPI2_7:
	.quad	117                     # 0x75
	.quad	109                     # 0x6d
.LCPI2_8:
	.quad	98                      # 0x62
	.quad	101                     # 0x65
.LCPI2_9:
	.quad	114                     # 0x72
	.quad	58                      # 0x3a
.LCPI2_10:
	.quad	32                      # 0x20
	.quad	71                      # 0x47
.LCPI2_11:
	.quad	67                      # 0x43
	.quad	68                      # 0x44
	.text
	.globl	main
	.p2align	4, 0x90
	.type	main,@function
main:                                   # @main
.Lfunc_begin2:
	.loc	1 125 0                 # GCD.c:125:0
	.cfi_startproc
# BB#0:                                 # %entry
	pushq	%rbp
.Ltmp33:
	.cfi_def_cfa_offset 16
	pushq	%r15
.Ltmp34:
	.cfi_def_cfa_offset 24
	pushq	%r14
.Ltmp35:
	.cfi_def_cfa_offset 32
	pushq	%r13
.Ltmp36:
	.cfi_def_cfa_offset 40
	pushq	%r12
.Ltmp37:
	.cfi_def_cfa_offset 48
	pushq	%rbx
.Ltmp38:
	.cfi_def_cfa_offset 56
	subq	$72, %rsp
.Ltmp39:
	.cfi_def_cfa_offset 128
.Ltmp40:
	.cfi_offset %rbx, -56
.Ltmp41:
	.cfi_offset %r12, -48
.Ltmp42:
	.cfi_offset %r13, -40
.Ltmp43:
	.cfi_offset %r14, -32
.Ltmp44:
	.cfi_offset %r15, -24
.Ltmp45:
	.cfi_offset %rbp, -16
	#DEBUG_VALUE: main:argc <- %EDI
	#DEBUG_VALUE: main:args <- %RSI
	movl	%edi, %ebx
.Ltmp46:
	#DEBUG_VALUE: main:_48 <- 0
	#DEBUG_VALUE: main:_47 <- 0
	#DEBUG_VALUE: main:_46 <- 0
	#DEBUG_VALUE: main:_45 <- 0
	#DEBUG_VALUE: main:_44 <- 0
	#DEBUG_VALUE: main:_43 <- 0
	#DEBUG_VALUE: main:_42 <- 0
	#DEBUG_VALUE: main:_39_has_ownership <- 0
	#DEBUG_VALUE: main:_39_size <- 0
	#DEBUG_VALUE: main:_34_has_ownership <- 0
	#DEBUG_VALUE: main:_34_size <- 0
	#DEBUG_VALUE: main:_29_has_ownership <- 0
	#DEBUG_VALUE: main:_29_size <- 0
	#DEBUG_VALUE: main:_26 <- 0
	#DEBUG_VALUE: main:_25 <- 0
	#DEBUG_VALUE: main:_24 <- 0
	#DEBUG_VALUE: main:_23 <- 0
	#DEBUG_VALUE: main:_22 <- 0
	#DEBUG_VALUE: main:_21 <- 0
	#DEBUG_VALUE: main:_20 <- 0
	#DEBUG_VALUE: main:_19 <- 0
	#DEBUG_VALUE: main:_18 <- 0
	#DEBUG_VALUE: main:_17_has_ownership <- 0
	#DEBUG_VALUE: main:_17_size <- 0
	#DEBUG_VALUE: main:_16 <- 0
	#DEBUG_VALUE: main:_15 <- 0
	#DEBUG_VALUE: main:_12_has_ownership <- 0
	#DEBUG_VALUE: main:_12_size <- 0
	#DEBUG_VALUE: main:_9_has_ownership <- 0
	#DEBUG_VALUE: main:_9_size <- 0
	#DEBUG_VALUE: main:_8 <- 0
	#DEBUG_VALUE: main:_7_has_ownership <- 0
	#DEBUG_VALUE: main:_7_size_size <- 0
	#DEBUG_VALUE: main:_7_size <- 0
	#DEBUG_VALUE: main:j <- 0
	#DEBUG_VALUE: main:i <- 0
	#DEBUG_VALUE: main:gcds_has_ownership <- 0
	#DEBUG_VALUE: main:gcds_size <- 0
	#DEBUG_VALUE: main:n <- 0
	#DEBUG_VALUE: main:argc <- %EBX
	.loc	1 175 2 prologue_end    # GCD.c:175:2
	callq	convertArgsToIntArray
.Ltmp47:
	movq	%rax, %rbp
.Ltmp48:
	#DEBUG_VALUE: main:_7 <- %RBP
	decl	%ebx
.Ltmp49:
	movslq	%ebx, %rbx
.Ltmp50:
	#DEBUG_VALUE: main:_7_has_ownership <- 1
	#DEBUG_VALUE: main:_7_size <- %EBX
	.loc	1 180 5                 # GCD.c:180:5
	movq	(%rbp), %rdi
.Ltmp51:
	#DEBUG_VALUE: main:_9 <- %RDI
	.loc	1 182 2                 # GCD.c:182:2
	callq	parseStringToInt
.Ltmp52:
	#DEBUG_VALUE: main:max <- %RAX
	#DEBUG_VALUE: main:_6 <- %RAX
	.loc	1 186 9                 # GCD.c:186:9
	testq	%rax, %rax
.Ltmp53:
	.loc	1 186 5 is_stmt 0       # GCD.c:186:5
	je	.LBB2_29
.Ltmp54:
# BB#1:                                 # %if.end
	#DEBUG_VALUE: main:_6 <- %RAX
	#DEBUG_VALUE: main:max <- %RAX
	#DEBUG_VALUE: main:_7_size <- %EBX
	#DEBUG_VALUE: main:_7 <- %RBP
	movq	%rbx, 32(%rsp)          # 8-byte Spill
	movq	%rbp, 40(%rsp)          # 8-byte Spill
	.loc	1 188 6 is_stmt 1       # GCD.c:188:6
	movq	(%rax), %r14
.Ltmp55:
	#DEBUG_VALUE: gcd_cached:n <- %R14
	#DEBUG_VALUE: main:_12_size <- 4
	#DEBUG_VALUE: main:n <- %R14
	.loc	1 193 2                 # GCD.c:193:2
	movq	%r14, 56(%rsp)          # 8-byte Spill
	movl	$32, %edi
	callq	malloc
.Ltmp56:
	#DEBUG_VALUE: main:_12 <- %RAX
	.loc	1 194 9                 # GCD.c:194:9
	movq	%rax, 24(%rsp)          # 8-byte Spill
	movaps	.LCPI2_0(%rip), %xmm0   # xmm0 = [78,32]
	movups	%xmm0, (%rax)
	.loc	1 194 35 is_stmt 0      # GCD.c:194:35
	movaps	.LCPI2_1(%rip), %xmm0   # xmm0 = [61,32]
	movups	%xmm0, 16(%rax)
.Ltmp57:
	#DEBUG_VALUE: main:_12_has_ownership <- 1
	.loc	1 197 2 is_stmt 1       # GCD.c:197:2
	movl	$4, %esi
	movq	%rax, %rdi
.Ltmp58:
	#DEBUG_VALUE: main:_12 <- [%RSP+24]
	callq	printf_s
.Ltmp59:
	.loc	1 208 2                 # GCD.c:208:2
	xorl	%ebx, %ebx
.Ltmp60:
	xorl	%ebp, %ebp
.Ltmp61:
	.loc	1 201 2                 # GCD.c:201:2
	movl	$.L.str.1, %edi
	xorl	%eax, %eax
	movq	%r14, %rsi
	callq	printf
	#DEBUG_VALUE: main:_15 <- 0
	.loc	1 205 7                 # GCD.c:205:7
	movl	%r14d, %esi
	imull	%esi, %esi
	.loc	1 208 2                 # GCD.c:208:2
	xorl	%edi, %edi
	callq	gen1DArray
	movq	%r14, %rsi
.Ltmp62:
	#DEBUG_VALUE: gcd_cached:n <- %RSI
	#DEBUG_VALUE: main:n <- %RSI
	movq	%rax, 8(%rsp)           # 8-byte Spill
.Ltmp63:
	#DEBUG_VALUE: main:gcds <- [%RSP+8]
	#DEBUG_VALUE: main:_17 <- [%RSP+8]
	#DEBUG_VALUE: gcd_cached:gcds <- [%RSP+8]
	#DEBUG_VALUE: main:_18 <- 0
	#DEBUG_VALUE: main:_17_has_ownership <- 0
	#DEBUG_VALUE: main:i <- 0
	#DEBUG_VALUE: main:gcds_has_ownership <- 1
	movb	$1, %r12b
	xorl	%r14d, %r14d
.Ltmp64:
	.loc	1 222 6                 # GCD.c:222:6
	testq	%rsi, %rsi
	jle	.LBB2_2
.Ltmp65:
# BB#3:
	#DEBUG_VALUE: gcd_cached:gcds <- [%RSP+8]
	#DEBUG_VALUE: main:_17 <- [%RSP+8]
	#DEBUG_VALUE: main:gcds <- [%RSP+8]
	#DEBUG_VALUE: main:n <- %RSI
	#DEBUG_VALUE: gcd_cached:n <- %RSI
	xorl	%r12d, %r12d
	xorl	%r15d, %r15d
.Ltmp66:
	.p2align	4, 0x90
.LBB2_4:                                # %if.end29.preheader
                                        # =>This Loop Header: Depth=1
                                        #     Child Loop BB2_5 Depth 2
                                        #       Child Loop BB2_9 Depth 3
	#DEBUG_VALUE: gcd_cached:a <- %R12
	.loc	1 235 9                 # GCD.c:235:9
	movq	%r12, %rax
	imulq	%rsi, %rax
.Ltmp67:
	#DEBUG_VALUE: main:_42 <- %RAX
	#DEBUG_VALUE: main:_23 <- %RAX
	#DEBUG_VALUE: main:_21 <- %RAX
	movq	%rax, 16(%rsp)          # 8-byte Spill
.Ltmp68:
	#DEBUG_VALUE: main:_42 <- [%RSP+16]
	#DEBUG_VALUE: main:_23 <- [%RSP+16]
	#DEBUG_VALUE: main:_21 <- [%RSP+16]
	.loc	1 233 10                # GCD.c:233:10
	movq	%r12, %rax
	negq	%rax
	movq	%rax, 48(%rsp)          # 8-byte Spill
	xorl	%r13d, %r13d
.Ltmp69:
	.p2align	4, 0x90
.LBB2_5:                                # %if.end29
                                        #   Parent Loop BB2_4 Depth=1
                                        # =>  This Loop Header: Depth=2
                                        #       Child Loop BB2_9 Depth 3
	#DEBUG_VALUE: main:gcds_has_ownership <- 1
	#DEBUG_VALUE: gcd_cached:gcds_has_ownership [bit_piece offset=0 size=1] <- 0
	#DEBUG_VALUE: gcd_cached:_4 <- 0
	#DEBUG_VALUE: gcd_cached:_5 <- 0
	#DEBUG_VALUE: gcd_cached:_6 <- 0
	#DEBUG_VALUE: gcd_cached:_7 <- 0
	#DEBUG_VALUE: gcd_cached:_8 <- 0
	#DEBUG_VALUE: gcd_cached:_9 <- 0
	#DEBUG_VALUE: gcd_cached:_10 <- 0
	#DEBUG_VALUE: gcd_cached:_11 <- 0
	testq	%r12, %r12
.Ltmp70:
	.loc	1 74 5                  # GCD.c:74:5
	je	.LBB2_14
# BB#6:                                 # %blklab7.i
                                        #   in Loop: Header=BB2_5 Depth=2
	#DEBUG_VALUE: gcd_cached:_6 <- 0
	.loc	1 85 5                  # GCD.c:85:5
	testq	%r13, %r13
.Ltmp71:
	#DEBUG_VALUE: gcd_cached:b <- %R13
	je	.LBB2_7
.Ltmp72:
# BB#8:                                 # %blklab4.i.preheader.preheader
                                        #   in Loop: Header=BB2_5 Depth=2
	#DEBUG_VALUE: gcd_cached:b <- %R13
	.loc	1 94 6                  # GCD.c:94:6
	cmpq	%r13, %r12
.Ltmp73:
	.loc	1 233 10                # GCD.c:233:10
	movq	48(%rsp), %rax          # 8-byte Reload
	movl	$0, %ecx
	cmovgq	%rcx, %rax
.Ltmp74:
	.loc	1 94 5                  # GCD.c:94:5
	movl	$0, %ecx
	cmovgq	%r13, %rcx
	addq	%r13, %rax
	movq	%r12, %rdx
	subq	%rcx, %rdx
	.loc	1 110 6                 # GCD.c:110:6
	imulq	%rsi, %rdx
.Ltmp75:
	#DEBUG_VALUE: gcd_cached:_9 <- %RDX
	.loc	1 112 8                 # GCD.c:112:8
	addq	%rax, %rdx
.Ltmp76:
	#DEBUG_VALUE: gcd_cached:_10 <- %RDX
	movq	8(%rsp), %rsi           # 8-byte Reload
	.loc	1 114 6                 # GCD.c:114:6
	movq	(%rsi,%rdx,8), %rax
.Ltmp77:
	#DEBUG_VALUE: gcd_cached:_11 <- %RAX
	.loc	1 237 11                # GCD.c:237:11
	movq	16(%rsp), %rcx          # 8-byte Reload
	leaq	(%r13,%rcx), %rcx
	.loc	1 239 4                 # GCD.c:239:4
	leaq	(%rsi,%rcx,8), %rdi
.Ltmp78:
	#DEBUG_VALUE: gcd:_7 <- 0
	#DEBUG_VALUE: gcd:_6 <- 0
	#DEBUG_VALUE: gcd:_5 <- 0
	#DEBUG_VALUE: gcd:_4 <- 0
	#DEBUG_VALUE: gcd:_3 <- 0
	#DEBUG_VALUE: gcd:_2 <- 0
	.loc	1 239 14 is_stmt 0      # GCD.c:239:14
	movq	%rax, (%rsi,%rcx,8)
	movq	%r13, %rcx
	movq	%r12, %rdx
.Ltmp79:
	.p2align	4, 0x90
.LBB2_9:                                # %blklab4.i
                                        #   Parent Loop BB2_4 Depth=1
                                        #     Parent Loop BB2_5 Depth=2
                                        # =>    This Inner Loop Header: Depth=3
	#DEBUG_VALUE: main:_26 <- %RDX
	#DEBUG_VALUE: gcd:_5 <- 0
	.loc	1 37 6 is_stmt 1        # GCD.c:37:6
	movq	%rdx, %rsi
	subq	%rcx, %rsi
	jle	.LBB2_12
.Ltmp80:
# BB#10:                                # %if.end9.i
                                        #   in Loop: Header=BB2_9 Depth=3
	#DEBUG_VALUE: main:_26 <- %RDX
	#DEBUG_VALUE: gcd:_4 <- 0
	.loc	1 249 11                # GCD.c:249:11
	movq	%rsi, %rdx
.Ltmp81:
	jns	.LBB2_9
	jmp	.LBB2_11
.LBB2_12:                               # %blklab5.i
                                        #   in Loop: Header=BB2_9 Depth=3
.Ltmp82:
	#DEBUG_VALUE: main:_26 <- %RDX
	#DEBUG_VALUE: gcd:_4 <- 0
	.loc	1 35 6                  # GCD.c:35:6
	subq	%rdx, %rcx
	jne	.LBB2_9
.Ltmp83:
# BB#13:                                # %gcd.exit
                                        #   in Loop: Header=BB2_5 Depth=2
	#DEBUG_VALUE: main:_26 <- %RDX
	.loc	1 251 11                # GCD.c:251:11
	cmpq	%rdx, %rax
	je	.LBB2_15
	jmp	.LBB2_11
.Ltmp84:
	.p2align	4, 0x90
.LBB2_14:                               # %gcd_cached.exit
                                        #   in Loop: Header=BB2_5 Depth=2
	.loc	1 237 11                # GCD.c:237:11
	movq	16(%rsp), %rax          # 8-byte Reload
	leaq	(%r13,%rax), %rax
.Ltmp85:
	#DEBUG_VALUE: main:_43 <- %RAX
	#DEBUG_VALUE: main:_24 <- %RAX
	#DEBUG_VALUE: main:_22 <- %RAX
	movq	8(%rsp), %rcx           # 8-byte Reload
	.loc	1 239 4                 # GCD.c:239:4
	leaq	(%rcx,%rax,8), %rdi
	#DEBUG_VALUE: gcd:_7 <- 0
	#DEBUG_VALUE: gcd:_6 <- 0
	#DEBUG_VALUE: gcd:_5 <- 0
	#DEBUG_VALUE: gcd:_4 <- 0
	#DEBUG_VALUE: gcd:_3 <- 0
	#DEBUG_VALUE: gcd:_2 <- 0
	.loc	1 239 14 is_stmt 0      # GCD.c:239:14
	movq	%r13, (%rcx,%rax,8)
	jmp	.LBB2_15
.Ltmp86:
	.p2align	4, 0x90
.LBB2_7:                                # %blklab4.lr.ph.i.preheader.thread
                                        #   in Loop: Header=BB2_5 Depth=2
	#DEBUG_VALUE: gcd_cached:b <- %R13
	.loc	1 237 11 is_stmt 1      # GCD.c:237:11
	movq	16(%rsp), %rax          # 8-byte Reload
	leaq	(%r13,%rax), %rax
	movq	8(%rsp), %rcx           # 8-byte Reload
	.loc	1 239 4                 # GCD.c:239:4
	leaq	(%rcx,%rax,8), %rdi
	#DEBUG_VALUE: gcd:_7 <- 0
	#DEBUG_VALUE: gcd:_6 <- 0
	#DEBUG_VALUE: gcd:_5 <- 0
	#DEBUG_VALUE: gcd:_4 <- 0
	#DEBUG_VALUE: gcd:_3 <- 0
	#DEBUG_VALUE: gcd:_2 <- 0
	.loc	1 239 14 is_stmt 0      # GCD.c:239:14
	movq	%r12, (%rcx,%rax,8)
.Ltmp87:
.LBB2_15:                               # %blklab18
                                        #   in Loop: Header=BB2_5 Depth=2
	movq	%rdi, 64(%rsp)          # 8-byte Spill
.Ltmp88:
	.loc	1 262 4 is_stmt 1       # GCD.c:262:4
	testb	$1, %bpl
	je	.LBB2_17
# BB#16:                                # %if.then43
                                        #   in Loop: Header=BB2_5 Depth=2
.Ltmp89:
	.loc	1 262 4 is_stmt 0 discriminator 1 # GCD.c:262:4
	movq	%r15, %rdi
	callq	free
.Ltmp90:
	#DEBUG_VALUE: main:_29_has_ownership <- 0
.LBB2_17:                               # %if.end44
                                        #   in Loop: Header=BB2_5 Depth=2
	#DEBUG_VALUE: main:_29_size <- 8
	.loc	1 263 4 is_stmt 1       # GCD.c:263:4
	movl	$64, %edi
	callq	malloc
	movq	%rax, %r15
.Ltmp91:
	#DEBUG_VALUE: main:_29 <- %R15
	.loc	1 264 11                # GCD.c:264:11
	movaps	.LCPI2_2(%rip), %xmm0   # xmm0 = [78,117]
	movups	%xmm0, (%r15)
	.loc	1 264 38 is_stmt 0      # GCD.c:264:38
	movaps	.LCPI2_3(%rip), %xmm0   # xmm0 = [109,98]
	movups	%xmm0, 16(%r15)
	.loc	1 264 65                # GCD.c:264:65
	movaps	.LCPI2_4(%rip), %xmm0   # xmm0 = [101,114]
	movups	%xmm0, 32(%r15)
	.loc	1 264 93                # GCD.c:264:93
	movaps	.LCPI2_5(%rip), %xmm0   # xmm0 = [58,32]
	movups	%xmm0, 48(%r15)
.Ltmp92:
	#DEBUG_VALUE: main:_29_has_ownership <- 1
	.loc	1 267 4 is_stmt 1       # GCD.c:267:4
	movl	$8, %esi
	movq	%r15, %rdi
	callq	printf_s
	.loc	1 271 4                 # GCD.c:271:4
	movl	$.L.str.2, %edi
	xorl	%eax, %eax
	movq	%r12, %rsi
	callq	printf
.Ltmp93:
	.loc	1 275 4                 # GCD.c:275:4
	testb	$1, %bpl
	je	.LBB2_19
.Ltmp94:
# BB#18:                                # %if.then56
                                        #   in Loop: Header=BB2_5 Depth=2
	#DEBUG_VALUE: main:_29 <- %R15
	.loc	1 275 4 is_stmt 0 discriminator 1 # GCD.c:275:4
	movq	%r14, %rdi
	callq	free
.Ltmp95:
	#DEBUG_VALUE: main:_34_has_ownership <- 0
.LBB2_19:                               # %if.end57
                                        #   in Loop: Header=BB2_5 Depth=2
	#DEBUG_VALUE: main:_29 <- %R15
	#DEBUG_VALUE: main:_34_size <- 9
	.loc	1 276 4 is_stmt 1       # GCD.c:276:4
	movl	$72, %edi
	callq	malloc
	movq	%rax, %r14
.Ltmp96:
	#DEBUG_VALUE: main:_34 <- %R14
	.loc	1 277 11                # GCD.c:277:11
	movaps	.LCPI2_6(%rip), %xmm0   # xmm0 = [32,78]
	movups	%xmm0, (%r14)
	.loc	1 277 37 is_stmt 0      # GCD.c:277:37
	movaps	.LCPI2_7(%rip), %xmm0   # xmm0 = [117,109]
	movups	%xmm0, 16(%r14)
	.loc	1 277 65                # GCD.c:277:65
	movaps	.LCPI2_8(%rip), %xmm0   # xmm0 = [98,101]
	movups	%xmm0, 32(%r14)
	.loc	1 277 92                # GCD.c:277:92
	movaps	.LCPI2_9(%rip), %xmm0   # xmm0 = [114,58]
	movups	%xmm0, 48(%r14)
	.loc	1 277 119               # GCD.c:277:119
	movq	$32, 64(%r14)
.Ltmp97:
	#DEBUG_VALUE: main:_34_has_ownership <- 1
	.loc	1 280 4 is_stmt 1       # GCD.c:280:4
	movl	$9, %esi
	movq	%r14, %rdi
	callq	printf_s
	.loc	1 284 4                 # GCD.c:284:4
	movl	$.L.str.2, %edi
	xorl	%eax, %eax
	movq	%r13, %rsi
	callq	printf
.Ltmp98:
	.loc	1 288 4                 # GCD.c:288:4
	testb	$1, %bpl
	je	.LBB2_21
.Ltmp99:
# BB#20:                                # %if.then70
                                        #   in Loop: Header=BB2_5 Depth=2
	#DEBUG_VALUE: main:_29 <- %R15
	#DEBUG_VALUE: main:_34 <- %R14
	.loc	1 288 4 is_stmt 0 discriminator 1 # GCD.c:288:4
	movq	%rbx, %rdi
	callq	free
.Ltmp100:
	#DEBUG_VALUE: main:_39_has_ownership <- 0
.LBB2_21:                               # %if.end71
                                        #   in Loop: Header=BB2_5 Depth=2
	#DEBUG_VALUE: main:_29 <- %R15
	#DEBUG_VALUE: main:_34 <- %R14
	#DEBUG_VALUE: main:_39_size <- 5
	.loc	1 289 4 is_stmt 1       # GCD.c:289:4
	movl	$40, %edi
	callq	malloc
	movq	%rax, %rbx
.Ltmp101:
	#DEBUG_VALUE: main:_39 <- %RBX
	.loc	1 290 11                # GCD.c:290:11
	movaps	.LCPI2_10(%rip), %xmm0  # xmm0 = [32,71]
	movups	%xmm0, (%rbx)
	.loc	1 290 37 is_stmt 0      # GCD.c:290:37
	movaps	.LCPI2_11(%rip), %xmm0  # xmm0 = [67,68]
	movups	%xmm0, 16(%rbx)
	.loc	1 290 63                # GCD.c:290:63
	movq	$58, 32(%rbx)
.Ltmp102:
	#DEBUG_VALUE: main:_39_has_ownership <- 1
	.loc	1 293 4 is_stmt 1       # GCD.c:293:4
	movl	$5, %esi
	movq	%rbx, %rdi
	callq	printf_s
	.loc	1 301 8                 # GCD.c:301:8
	movq	64(%rsp), %rax          # 8-byte Reload
	movq	(%rax), %rsi
.Ltmp103:
	#DEBUG_VALUE: main:_44 <- %RSI
	.loc	1 303 4                 # GCD.c:303:4
	movl	$.L.str.1, %edi
	xorl	%eax, %eax
	callq	printf
.Ltmp104:
	#DEBUG_VALUE: main:_45 <- 1
	.loc	1 307 9                 # GCD.c:307:9
	incq	%r13
.Ltmp105:
	#DEBUG_VALUE: main:_46 <- %R13
	#DEBUG_VALUE: main:j <- %R13
	movb	$1, %bpl
	movq	56(%rsp), %rsi          # 8-byte Reload
.Ltmp106:
	.loc	1 230 8                 # GCD.c:230:8
	cmpq	%rsi, %r13
	jl	.LBB2_5
.Ltmp107:
# BB#22:                                # %blklab16
                                        #   in Loop: Header=BB2_4 Depth=1
	#DEBUG_VALUE: main:_34 <- %R14
	#DEBUG_VALUE: main:_29 <- %R15
	#DEBUG_VALUE: main:j <- %R13
	#DEBUG_VALUE: main:_46 <- %R13
	#DEBUG_VALUE: main:_39 <- %RBX
	#DEBUG_VALUE: main:_47 <- 1
	.loc	1 318 8                 # GCD.c:318:8
	incq	%r12
.Ltmp108:
	#DEBUG_VALUE: main:_48 <- %R12
	#DEBUG_VALUE: main:i <- %R12
	movb	$1, %bpl
.Ltmp109:
	.loc	1 222 7                 # GCD.c:222:7
	cmpq	%rsi, %r12
	jl	.LBB2_4
.Ltmp110:
# BB#23:
	#DEBUG_VALUE: main:_39 <- %RBX
	#DEBUG_VALUE: main:_46 <- %R13
	#DEBUG_VALUE: main:j <- %R13
	#DEBUG_VALUE: main:_29 <- %R15
	#DEBUG_VALUE: main:_34 <- %R14
	#DEBUG_VALUE: main:i <- %R12
	#DEBUG_VALUE: main:_48 <- %R12
	xorl	%r12d, %r12d
.Ltmp111:
.LBB2_24:                               # %if.end98
	.loc	1 329 2 discriminator 1 # GCD.c:329:2
	movq	8(%rsp), %rdi           # 8-byte Reload
	callq	free
.Ltmp112:
	#DEBUG_VALUE: main:gcds_has_ownership <- 0
	.loc	1 330 2 discriminator 1 # GCD.c:330:2
	movq	40(%rsp), %rdi          # 8-byte Reload
	movq	32(%rsp), %rsi          # 8-byte Reload
	callq	free2DArray
.Ltmp113:
	#DEBUG_VALUE: main:_7_has_ownership <- 0
	.loc	1 332 2 discriminator 1 # GCD.c:332:2
	movq	24(%rsp), %rdi          # 8-byte Reload
	callq	free
.Ltmp114:
	#DEBUG_VALUE: main:_12_has_ownership <- 0
	.loc	1 334 2                 # GCD.c:334:2
	testb	%r12b, %r12b
	jne	.LBB2_26
# BB#25:                                # %if.then100
.Ltmp115:
	.loc	1 334 2 is_stmt 0 discriminator 1 # GCD.c:334:2
	movq	%r15, %rdi
	callq	free
.Ltmp116:
	#DEBUG_VALUE: main:_29_has_ownership <- 0
.LBB2_26:                               # %if.end101
	.loc	1 335 2 is_stmt 1       # GCD.c:335:2
	testb	%bpl, %bpl
	je	.LBB2_28
# BB#27:                                # %if.then103
.Ltmp117:
	.loc	1 335 2 is_stmt 0 discriminator 1 # GCD.c:335:2
	movq	%r14, %rdi
	callq	free
.Ltmp118:
	#DEBUG_VALUE: main:_34_has_ownership <- 0
	.loc	1 336 2 is_stmt 1 discriminator 1 # GCD.c:336:2
	movq	%rbx, %rdi
	callq	free
.Ltmp119:
	#DEBUG_VALUE: main:_39_has_ownership <- 0
.LBB2_28:                               # %if.end107
	.loc	1 337 2                 # GCD.c:337:2
	xorl	%edi, %edi
	callq	exit
.LBB2_11:                               # %if.end3.i
.Ltmp120:
	.loc	1 26 12                 # GCD.c:26:12
	movq	stderr(%rip), %rcx
	.loc	1 26 4 is_stmt 0        # GCD.c:26:4
	movl	$.L.str, %edi
	movl	$4, %esi
	movl	$1, %edx
	callq	fwrite
	.loc	1 27 4 is_stmt 1        # GCD.c:27:4
	movl	$-1, %edi
	callq	exit
.Ltmp121:
.LBB2_29:                               # %if.end104.thread
	#DEBUG_VALUE: main:_6 <- %RAX
	#DEBUG_VALUE: main:max <- %RAX
	#DEBUG_VALUE: main:_7_size <- %EBX
	#DEBUG_VALUE: main:_7 <- %RBP
	.loc	1 330 2 discriminator 1 # GCD.c:330:2
	movq	%rbp, %rdi
	movq	%rbx, %rsi
	callq	free2DArray
.Ltmp122:
	#DEBUG_VALUE: main:_7_has_ownership <- 0
	.loc	1 337 2                 # GCD.c:337:2
	xorl	%edi, %edi
	callq	exit
.Ltmp123:
.LBB2_2:
	#DEBUG_VALUE: gcd_cached:gcds <- [%RSP+8]
	#DEBUG_VALUE: main:_17 <- [%RSP+8]
	#DEBUG_VALUE: main:gcds <- [%RSP+8]
	#DEBUG_VALUE: main:n <- %RSI
	#DEBUG_VALUE: gcd_cached:n <- %RSI
	xorl	%r15d, %r15d
	jmp	.LBB2_24
.Lfunc_end2:
	.size	main, .Lfunc_end2-main
	.cfi_endproc

	.type	.L.str,@object          # @.str
	.section	.rodata.str1.1,"aMS",@progbits,1
.L.str:
	.asciz	"fail"
	.size	.L.str, 5

	.type	.L.str.1,@object        # @.str.1
.L.str.1:
	.asciz	"%lld\n"
	.size	.L.str.1, 6

	.type	.L.str.2,@object        # @.str.2
.L.str.2:
	.asciz	"%lld"
	.size	.L.str.2, 5

	.section	".note.GNU-stack","",@progbits