	.text
	.file	"llvm/GCD.openmp.disablevc.ll"
	.globl	gcd
	.p2align	4, 0x90
	.type	gcd,@function
gcd:                                    # @gcd
.Lfunc_begin0:
	.file	1 "GCD.c"
	.loc	1 2 0                   # GCD.c:2:0
	.cfi_startproc
# BB#0:                                 # %entry
	#DEBUG_VALUE: gcd:a <- %RDI
	#DEBUG_VALUE: gcd:b <- %RSI
	#DEBUG_VALUE: gcd:_2 <- 0
	#DEBUG_VALUE: gcd:_3 <- 0
	#DEBUG_VALUE: gcd:_4 <- 0
	#DEBUG_VALUE: gcd:_5 <- 0
	#DEBUG_VALUE: gcd:_6 <- 0
	#DEBUG_VALUE: gcd:_7 <- 0
	.loc	1 12 6 prologue_end     # GCD.c:12:6
	testq	%rdi, %rdi
	je	.LBB0_1
.Ltmp0:
# BB#2:                                 # %while.cond.preheader
	#DEBUG_VALUE: gcd:b <- %RSI
	#DEBUG_VALUE: gcd:a <- %RDI
	#DEBUG_VALUE: gcd:_4 <- 0
	js	.LBB0_6
.Ltmp1:
# BB#3:                                 # %blklab4.lr.ph.preheader
	#DEBUG_VALUE: gcd:a <- %RDI
	#DEBUG_VALUE: gcd:b <- %RSI
	.loc	1 35 7                  # GCD.c:35:7
	testq	%rsi, %rsi
	je	.LBB0_8
.Ltmp2:
	.p2align	4, 0x90
.LBB0_4:                                # %blklab4
                                        # =>This Inner Loop Header: Depth=1
	#DEBUG_VALUE: gcd:_5 <- 0
	.loc	1 37 6                  # GCD.c:37:6
	movq	%rdi, %rax
	subq	%rsi, %rax
	jle	.LBB0_7
# BB#5:                                 # %if.end9
                                        #   in Loop: Header=BB0_4 Depth=1
	#DEBUG_VALUE: gcd:_4 <- 0
	movq	%rax, %rdi
	jns	.LBB0_4
	jmp	.LBB0_6
.LBB0_7:                                # %blklab5
                                        #   in Loop: Header=BB0_4 Depth=1
	#DEBUG_VALUE: gcd:_4 <- 0
	.loc	1 35 6                  # GCD.c:35:6
	subq	%rdi, %rsi
	jne	.LBB0_4
.Ltmp3:
.LBB0_8:                                # %cleanup
	.loc	1 60 1                  # GCD.c:60:1
	movq	%rdi, %rax
	retq
.LBB0_1:
.Ltmp4:
	#DEBUG_VALUE: gcd:b <- %RSI
	#DEBUG_VALUE: gcd:a <- %RDI
	movq	%rsi, %rdi
.Ltmp5:
	movq	%rdi, %rax
	retq
.Ltmp6:
.LBB0_6:                                # %if.end3
	.loc	1 26 12                 # GCD.c:26:12
	pushq	%rax
.Ltmp7:
	.cfi_def_cfa_offset 16
	movq	stderr(%rip), %rcx
	.loc	1 26 4 is_stmt 0        # GCD.c:26:4
	movl	$.L.str, %edi
	movl	$4, %esi
	movl	$1, %edx
	callq	fwrite
	.loc	1 27 4 is_stmt 1        # GCD.c:27:4
	movl	$-1, %edi
	callq	exit
.Ltmp8:
.Lfunc_end0:
	.size	gcd, .Lfunc_end0-gcd
	.cfi_endproc

	.globl	gcd_array
	.p2align	4, 0x90
	.type	gcd_array,@function
gcd_array:                              # @gcd_array
.Lfunc_begin1:
	.loc	1 62 0                  # GCD.c:62:0
	.cfi_startproc
# BB#0:                                 # %entry
	pushq	%rbp
.Ltmp9:
	.cfi_def_cfa_offset 16
	pushq	%r15
.Ltmp10:
	.cfi_def_cfa_offset 24
	pushq	%r14
.Ltmp11:
	.cfi_def_cfa_offset 32
	pushq	%r12
.Ltmp12:
	.cfi_def_cfa_offset 40
	pushq	%rbx
.Ltmp13:
	.cfi_def_cfa_offset 48
.Ltmp14:
	.cfi_offset %rbx, -48
.Ltmp15:
	.cfi_offset %r12, -40
.Ltmp16:
	.cfi_offset %r14, -32
.Ltmp17:
	.cfi_offset %r15, -24
.Ltmp18:
	.cfi_offset %rbp, -16
	#DEBUG_VALUE: gcd_array:data <- %RDI
	#DEBUG_VALUE: gcd_array:data_size <- %RSI
	#DEBUG_VALUE: gcd_array:data_has_ownership [bit_piece offset=0 size=1] <- %EDX
	#DEBUG_VALUE: gcd_array:n <- %RCX
	movq	%rcx, %r12
.Ltmp19:
	#DEBUG_VALUE: gcd_array:n <- %R12
	movl	%edx, %r14d
.Ltmp20:
	#DEBUG_VALUE: gcd_array:data_has_ownership [bit_piece offset=0 size=1] <- %R14D
	movq	%rdi, %rbx
.Ltmp21:
	#DEBUG_VALUE: gcd_array:_33 <- 0
	#DEBUG_VALUE: gcd_array:_32 <- 0
	#DEBUG_VALUE: gcd_array:_31 <- 0
	#DEBUG_VALUE: gcd_array:_30 <- 0
	#DEBUG_VALUE: gcd_array:_29 <- 0
	#DEBUG_VALUE: gcd_array:_28 <- 0
	#DEBUG_VALUE: gcd_array:_27 <- 0
	#DEBUG_VALUE: gcd_array:_26 <- 0
	#DEBUG_VALUE: gcd_array:_25 <- 0
	#DEBUG_VALUE: gcd_array:_24 <- 0
	#DEBUG_VALUE: gcd_array:_23 <- 0
	#DEBUG_VALUE: gcd_array:_22 <- 0
	#DEBUG_VALUE: gcd_array:_21 <- 0
	#DEBUG_VALUE: gcd_array:_20 <- 0
	#DEBUG_VALUE: gcd_array:_19 <- 0
	#DEBUG_VALUE: gcd_array:_18 <- 0
	#DEBUG_VALUE: gcd_array:_17 <- 0
	#DEBUG_VALUE: gcd_array:_16 <- 0
	#DEBUG_VALUE: gcd_array:_15 <- 0
	#DEBUG_VALUE: gcd_array:_14 <- 0
	#DEBUG_VALUE: gcd_array:_13 <- 0
	#DEBUG_VALUE: gcd_array:_12_has_ownership <- 0
	#DEBUG_VALUE: gcd_array:_12_size <- 0
	#DEBUG_VALUE: gcd_array:_11 <- 0
	#DEBUG_VALUE: gcd_array:_10 <- 0
	#DEBUG_VALUE: gcd_array:g <- 0
	#DEBUG_VALUE: gcd_array:b <- 0
	#DEBUG_VALUE: gcd_array:a <- 0
	#DEBUG_VALUE: gcd_array:j <- 0
	#DEBUG_VALUE: gcd_array:i <- 0
	#DEBUG_VALUE: gcd_array:sum <- 0
	#DEBUG_VALUE: gcd_array:gcds_has_ownership <- 0
	#DEBUG_VALUE: gcd_array:gcds_size <- 0
	#DEBUG_VALUE: gcd_array:_2_has_ownership <- 0
	#DEBUG_VALUE: gcd_array:_2_size <- 0
	#DEBUG_VALUE: gcd_array:data <- %RBX
	.loc	1 101 7 prologue_end    # GCD.c:101:7
	movl	%r12d, %esi
.Ltmp22:
	imull	%esi, %esi
	xorl	%ebp, %ebp
	.loc	1 104 2                 # GCD.c:104:2
	xorl	%edi, %edi
	callq	gen1DArray
	movq	%rax, %r15
.Ltmp23:
	#DEBUG_VALUE: gcd_array:gcds <- %R15
	#DEBUG_VALUE: gcd_array:_12 <- %R15
	#DEBUG_VALUE: gcd_array:gcds_has_ownership <- 1
	.loc	1 122 6                 # GCD.c:122:6
	testq	%r12, %r12
	jle	.LBB1_10
.Ltmp24:
	.p2align	4, 0x90
.LBB1_1:                                # %while.cond8.preheader.us
                                        # =>This Loop Header: Depth=1
                                        #     Child Loop BB1_2 Depth 2
                                        #       Child Loop BB1_4 Depth 3
                                        #         Child Loop BB1_5 Depth 4
	.loc	1 198 9                 # GCD.c:198:9
	movq	%rbp, %rax
	imulq	%r12, %rax
.Ltmp25:
	#DEBUG_VALUE: gcd_array:_28 <- %RAX
	#DEBUG_VALUE: gcd_array:_24 <- %RAX
	xorl	%ecx, %ecx
.Ltmp26:
	.p2align	4, 0x90
.LBB1_2:                                # %if.end13.us
                                        #   Parent Loop BB1_1 Depth=1
                                        # =>  This Loop Header: Depth=2
                                        #       Child Loop BB1_4 Depth 3
                                        #         Child Loop BB1_5 Depth 4
	.loc	1 132 8                 # GCD.c:132:8
	movq	(%rbx,%rbp,8), %rsi
.Ltmp27:
	#DEBUG_VALUE: gcd_array:_16 <- %RSI
	#DEBUG_VALUE: gcd_array:a <- %RSI
	.loc	1 136 8                 # GCD.c:136:8
	movq	(%rbx,%rcx,8), %rdx
	#DEBUG_VALUE: gcd_array:_19 <- 0
	#DEBUG_VALUE: gcd_array:_18 <- 0
.Ltmp28:
	#DEBUG_VALUE: gcd_array:_17 <- %RDX
	#DEBUG_VALUE: gcd_array:g <- 0
	#DEBUG_VALUE: gcd_array:b <- %RDX
	.loc	1 146 8                 # GCD.c:146:8
	testq	%rsi, %rsi
	je	.LBB1_8
.Ltmp29:
# BB#3:                                 # %while.cond19.preheader.us
                                        #   in Loop: Header=BB1_2 Depth=2
	#DEBUG_VALUE: gcd_array:b <- %RDX
	#DEBUG_VALUE: gcd_array:_17 <- %RDX
	#DEBUG_VALUE: gcd_array:a <- %RSI
	#DEBUG_VALUE: gcd_array:_16 <- %RSI
	#DEBUG_VALUE: gcd_array:_20 <- 0
	js	.LBB1_14
.Ltmp30:
.LBB1_4:                                # %blklab15.lr.ph.us
                                        #   Parent Loop BB1_1 Depth=1
                                        #     Parent Loop BB1_2 Depth=2
                                        # =>    This Loop Header: Depth=3
                                        #         Child Loop BB1_5 Depth 4
	#DEBUG_VALUE: gcd_array:_21 <- 0
	.loc	1 171 9                 # GCD.c:171:9
	testq	%rdx, %rdx
	je	.LBB1_7
.Ltmp31:
	.p2align	4, 0x90
.LBB1_5:                                # %if.end29.us
                                        #   Parent Loop BB1_1 Depth=1
                                        #     Parent Loop BB1_2 Depth=2
                                        #       Parent Loop BB1_4 Depth=3
                                        # =>      This Inner Loop Header: Depth=4
	.loc	1 173 9                 # GCD.c:173:9
	movq	%rdx, %rdi
	subq	%rsi, %rdi
.Ltmp32:
	.loc	1 173 8 is_stmt 0       # GCD.c:173:8
	jl	.LBB1_13
# BB#6:                                 # %blklab16.thread.us
                                        #   in Loop: Header=BB1_5 Depth=4
	#DEBUG_VALUE: gcd_array:_20 <- 0
	#DEBUG_VALUE: gcd_array:_21 <- 0
	movq	%rdi, %rdx
	jne	.LBB1_5
	jmp	.LBB1_7
	.p2align	4, 0x90
.LBB1_13:                               # %if.end33.us
                                        #   in Loop: Header=BB1_4 Depth=3
	#DEBUG_VALUE: gcd_array:_20 <- 0
.Ltmp33:
	.loc	1 160 10 is_stmt 1      # GCD.c:160:10
	subq	%rdx, %rsi
	jns	.LBB1_4
	jmp	.LBB1_14
.Ltmp34:
	.p2align	4, 0x90
.LBB1_7:                                #   in Loop: Header=BB1_2 Depth=2
	movq	%rsi, %rdx
.LBB1_8:                                # %blklab12.us
                                        #   in Loop: Header=BB1_2 Depth=2
	.loc	1 200 11                # GCD.c:200:11
	leaq	(%rcx,%rax), %rsi
.Ltmp35:
	#DEBUG_VALUE: gcd_array:_29 <- %RSI
	#DEBUG_VALUE: gcd_array:_25 <- %RSI
	.loc	1 210 14                # GCD.c:210:14
	addq	%rdx, (%r15,%rsi,8)
.Ltmp36:
	#DEBUG_VALUE: gcd_array:_30 <- 1
	.loc	1 214 9                 # GCD.c:214:9
	incq	%rcx
.Ltmp37:
	#DEBUG_VALUE: gcd_array:_31 <- %RCX
	#DEBUG_VALUE: gcd_array:j <- %RCX
	.loc	1 130 8                 # GCD.c:130:8
	cmpq	%r12, %rcx
	jl	.LBB1_2
.Ltmp38:
# BB#9:                                 # %blklab9.loopexit.us
                                        #   in Loop: Header=BB1_1 Depth=1
	#DEBUG_VALUE: gcd_array:j <- %RCX
	#DEBUG_VALUE: gcd_array:_31 <- %RCX
	#DEBUG_VALUE: gcd_array:_25 <- %RSI
	#DEBUG_VALUE: gcd_array:_29 <- %RSI
	#DEBUG_VALUE: gcd_array:_32 <- 1
	.loc	1 225 8                 # GCD.c:225:8
	incq	%rbp
.Ltmp39:
	#DEBUG_VALUE: gcd_array:_33 <- %RBP
	#DEBUG_VALUE: gcd_array:i <- %RBP
	.loc	1 122 7                 # GCD.c:122:7
	cmpq	%r12, %rbp
	jl	.LBB1_1
.Ltmp40:
.LBB1_10:                               # %blklab7
	#DEBUG_VALUE: gcd_array:data_has_ownership [bit_piece offset=0 size=1] <- %R14B
	.loc	1 234 2                 # GCD.c:234:2
	testb	%r14b, %r14b
	je	.LBB1_12
.Ltmp41:
# BB#11:                                # %if.then44
	#DEBUG_VALUE: gcd_array:data_has_ownership [bit_piece offset=0 size=1] <- %R14B
	.loc	1 234 2 is_stmt 0 discriminator 1 # GCD.c:234:2
	movq	%rbx, %rdi
	callq	free
.Ltmp42:
	#DEBUG_VALUE: gcd_array:data_has_ownership <- 0
.LBB1_12:                               # %if.end51
	.loc	1 237 2 is_stmt 1       # GCD.c:237:2
	movq	%r15, %rax
	popq	%rbx
	popq	%r12
	popq	%r14
	popq	%r15
	popq	%rbp
	retq
.LBB1_14:                               # %if.end24
.Ltmp43:
	.loc	1 162 14                # GCD.c:162:14
	movq	stderr(%rip), %rcx
	.loc	1 162 6 is_stmt 0       # GCD.c:162:6
	movl	$.L.str, %edi
	movl	$4, %esi
	movl	$1, %edx
	callq	fwrite
	.loc	1 163 6 is_stmt 1       # GCD.c:163:6
	movl	$-1, %edi
	callq	exit
.Ltmp44:
.Lfunc_end1:
	.size	gcd_array, .Lfunc_end1-gcd_array
	.cfi_endproc

	.globl	init
	.p2align	4, 0x90
	.type	init,@function
init:                                   # @init
.Lfunc_begin2:
	.loc	1 241 0                 # GCD.c:241:0
	.cfi_startproc
# BB#0:                                 # %entry
	pushq	%rbx
.Ltmp45:
	.cfi_def_cfa_offset 16
.Ltmp46:
	.cfi_offset %rbx, -16
	#DEBUG_VALUE: init:n <- %RDI
.Ltmp47:
	#DEBUG_VALUE: init:_5_size <- %RDI
	#DEBUG_VALUE: init:data_size <- %RDI
	movq	%rdi, %rbx
.Ltmp48:
	#DEBUG_VALUE: init:_10 <- 0
	#DEBUG_VALUE: init:_9 <- 0
	#DEBUG_VALUE: init:_8 <- 0
	#DEBUG_VALUE: init:_7 <- 0
	#DEBUG_VALUE: init:_6 <- 0
	#DEBUG_VALUE: init:_5_has_ownership <- 0
	#DEBUG_VALUE: init:_4 <- 0
	#DEBUG_VALUE: init:i <- 0
	#DEBUG_VALUE: init:data_has_ownership <- 0
	#DEBUG_VALUE: init:_1_has_ownership <- 0
	#DEBUG_VALUE: init:_1_size <- 0
	#DEBUG_VALUE: init:data_size <- 0
	#DEBUG_VALUE: init:_5_size <- 0
	#DEBUG_VALUE: init:n <- %RBX
	.loc	1 259 2 prologue_end    # GCD.c:259:2
	xorl	%edi, %edi
	movl	%ebx, %esi
	callq	gen1DArray
.Ltmp49:
	#DEBUG_VALUE: init:data <- %RAX
	#DEBUG_VALUE: init:_5 <- %RAX
	#DEBUG_VALUE: init:data_has_ownership <- 1
	.loc	1 273 6                 # GCD.c:273:6
	testq	%rbx, %rbx
	jle	.LBB2_5
.Ltmp50:
# BB#1:                                 # %if.end7.preheader
	#DEBUG_VALUE: init:_5 <- %RAX
	#DEBUG_VALUE: init:data <- %RAX
	#DEBUG_VALUE: init:n <- %RBX
	.loc	1 275 6                 # GCD.c:275:6
	leaq	-1(%rbx), %rdx
	xorl	%ecx, %ecx
	movq	%rbx, %rsi
	andq	$3, %rsi
	je	.LBB2_3
.Ltmp51:
	.p2align	4, 0x90
.LBB2_2:                                # %if.end7.prol
                                        # =>This Inner Loop Header: Depth=1
	.loc	1 279 11                # GCD.c:279:11
	addq	%rcx, (%rax,%rcx,8)
.Ltmp52:
	#DEBUG_VALUE: init:_9 <- 1
	.loc	1 283 8                 # GCD.c:283:8
	incq	%rcx
.Ltmp53:
	#DEBUG_VALUE: init:_10 <- %RCX
	#DEBUG_VALUE: init:i <- %RCX
	.loc	1 273 6                 # GCD.c:273:6
	cmpq	%rcx, %rsi
	jne	.LBB2_2
.Ltmp54:
.LBB2_3:                                # %if.end7.preheader.split
	.loc	1 275 6                 # GCD.c:275:6
	cmpq	$3, %rdx
	jb	.LBB2_5
	.p2align	4, 0x90
.LBB2_4:                                # %if.end7
                                        # =>This Inner Loop Header: Depth=1
	.loc	1 279 11                # GCD.c:279:11
	addq	%rcx, (%rax,%rcx,8)
	#DEBUG_VALUE: init:_9 <- 1
	.loc	1 275 6                 # GCD.c:275:6
	movq	8(%rax,%rcx,8), %rdx
	.loc	1 279 11                # GCD.c:279:11
	leaq	1(%rcx,%rdx), %rdx
	movq	%rdx, 8(%rax,%rcx,8)
	.loc	1 275 6                 # GCD.c:275:6
	movq	16(%rax,%rcx,8), %rdx
	.loc	1 279 11                # GCD.c:279:11
	leaq	2(%rcx,%rdx), %rdx
	movq	%rdx, 16(%rax,%rcx,8)
	.loc	1 275 6                 # GCD.c:275:6
	movq	24(%rax,%rcx,8), %rdx
	.loc	1 279 11                # GCD.c:279:11
	leaq	3(%rcx,%rdx), %rdx
	movq	%rdx, 24(%rax,%rcx,8)
	.loc	1 283 8                 # GCD.c:283:8
	addq	$4, %rcx
	.loc	1 273 6                 # GCD.c:273:6
	cmpq	%rcx, %rbx
	jne	.LBB2_4
.Ltmp55:
.LBB2_5:                                # %if.end15
	.loc	1 294 2                 # GCD.c:294:2
	popq	%rbx
	retq
.Ltmp56:
.Lfunc_end2:
	.size	init, .Lfunc_end2-init
	.cfi_endproc

	.section	.rodata.cst16,"aM",@progbits,16
	.p2align	4
.LCPI3_0:
	.quad	83                      # 0x53
	.quad	85                      # 0x55
.LCPI3_1:
	.quad	77                      # 0x4d
	.quad	58                      # 0x3a
	.text
	.globl	main
	.p2align	4, 0x90
	.type	main,@function
main:                                   # @main
.Lfunc_begin3:
	.loc	1 298 0                 # GCD.c:298:0
	.cfi_startproc
# BB#0:                                 # %entry
	.loc	1 259 2 prologue_end    # GCD.c:259:2
	pushq	%r15
.Ltmp57:
	.cfi_def_cfa_offset 16
	pushq	%r14
.Ltmp58:
	.cfi_def_cfa_offset 24
	pushq	%r12
.Ltmp59:
	.cfi_def_cfa_offset 32
	pushq	%rbx
.Ltmp60:
	.cfi_def_cfa_offset 40
	pushq	%rax
.Ltmp61:
	.cfi_def_cfa_offset 48
.Ltmp62:
	.cfi_offset %rbx, -40
.Ltmp63:
	.cfi_offset %r12, -32
.Ltmp64:
	.cfi_offset %r14, -24
.Ltmp65:
	.cfi_offset %r15, -16
	#DEBUG_VALUE: main:argc <- %EDI
	#DEBUG_VALUE: main:args <- %RSI
.Ltmp66:
	#DEBUG_VALUE: main:n <- 1000
	#DEBUG_VALUE: main:data_size <- 0
	#DEBUG_VALUE: main:data_has_ownership <- 0
	#DEBUG_VALUE: main:gcds_size <- 0
	#DEBUG_VALUE: main:gcds_has_ownership <- 0
	#DEBUG_VALUE: main:sum <- 0
	#DEBUG_VALUE: main:i <- 0
	#DEBUG_VALUE: main:j <- 0
	#DEBUG_VALUE: main:_7 <- 1000
	#DEBUG_VALUE: main:_8_size <- 0
	#DEBUG_VALUE: main:_8_has_ownership <- 0
	#DEBUG_VALUE: main:_9_size <- 0
	#DEBUG_VALUE: main:_9_has_ownership <- 0
	#DEBUG_VALUE: main:_10 <- 0
	#DEBUG_VALUE: main:_11 <- 0
	#DEBUG_VALUE: main:_12 <- 0
	#DEBUG_VALUE: main:_13 <- 0
	#DEBUG_VALUE: main:_14 <- 0
	#DEBUG_VALUE: main:_15 <- 0
	#DEBUG_VALUE: main:_16 <- 0
	#DEBUG_VALUE: main:_17 <- 0
	#DEBUG_VALUE: main:_18 <- 0
	#DEBUG_VALUE: main:_19 <- 0
	#DEBUG_VALUE: main:_20 <- 0
	#DEBUG_VALUE: main:_23_size <- 0
	#DEBUG_VALUE: main:_23_has_ownership <- 0
	#DEBUG_VALUE: init:n <- 1000
	#DEBUG_VALUE: init:_1_size <- 0
	#DEBUG_VALUE: init:_1_has_ownership <- 0
	#DEBUG_VALUE: init:data_size <- 0
	#DEBUG_VALUE: init:data_has_ownership <- 0
	#DEBUG_VALUE: init:i <- 0
	#DEBUG_VALUE: init:_4 <- 0
	#DEBUG_VALUE: init:_5_size <- 1000
	#DEBUG_VALUE: init:_5_has_ownership <- 0
	#DEBUG_VALUE: init:_6 <- 0
	#DEBUG_VALUE: init:_7 <- 0
	#DEBUG_VALUE: init:_8 <- 0
	#DEBUG_VALUE: init:_9 <- 0
	#DEBUG_VALUE: init:_10 <- 0
	xorl	%edi, %edi
.Ltmp67:
	movl	$1000, %esi             # imm = 0x3E8
.Ltmp68:
	callq	gen1DArray
	movq	%rax, %r15
.Ltmp69:
	#DEBUG_VALUE: init:data <- %R15
	#DEBUG_VALUE: init:_5 <- %R15
	#DEBUG_VALUE: main:_8 <- %R15
	#DEBUG_VALUE: main:data <- %R15
	#DEBUG_VALUE: gcd_array:data <- %R15
	#DEBUG_VALUE: init:_5_has_ownership <- 1
	#DEBUG_VALUE: init:data_size <- 1000
	movl	$4, %eax
.Ltmp70:
	#DEBUG_VALUE: init:_5_has_ownership <- 0
	#DEBUG_VALUE: init:data_has_ownership <- 1
	.p2align	4, 0x90
.LBB3_1:                                # %if.end7.i
                                        # =>This Inner Loop Header: Depth=1
	.loc	1 275 6                 # GCD.c:275:6
	movq	-32(%r15,%rax,8), %rcx
.Ltmp71:
	#DEBUG_VALUE: init:_7 <- %RCX
	.loc	1 279 11                # GCD.c:279:11
	leaq	-4(%rax,%rcx), %rcx
.Ltmp72:
	movq	%rcx, -32(%r15,%rax,8)
.Ltmp73:
	#DEBUG_VALUE: init:_9 <- 1
	.loc	1 275 6                 # GCD.c:275:6
	movq	-24(%r15,%rax,8), %rcx
	.loc	1 279 11                # GCD.c:279:11
	leaq	-3(%rax,%rcx), %rcx
	movq	%rcx, -24(%r15,%rax,8)
	.loc	1 275 6                 # GCD.c:275:6
	movq	-16(%r15,%rax,8), %rcx
	.loc	1 279 11                # GCD.c:279:11
	leaq	-2(%rax,%rcx), %rcx
	movq	%rcx, -16(%r15,%rax,8)
	.loc	1 275 6                 # GCD.c:275:6
	movq	-8(%r15,%rax,8), %rcx
	.loc	1 279 11                # GCD.c:279:11
	leaq	-1(%rax,%rcx), %rcx
	movq	%rcx, -8(%r15,%rax,8)
	addq	%rax, (%r15,%rax,8)
	.loc	1 273 6                 # GCD.c:273:6
	addq	$5, %rax
	cmpq	$1004, %rax             # imm = 0x3EC
	jne	.LBB3_1
.Ltmp74:
# BB#2:                                 # %init.exit
	#DEBUG_VALUE: main:data_size <- 0
	#DEBUG_VALUE: main:data_has_ownership <- 1
	#DEBUG_VALUE: main:_8_has_ownership <- 0
	#DEBUG_VALUE: main:_9_size <- 0
	#DEBUG_VALUE: gcd_array:data_has_ownership [bit_piece offset=0 size=1] <- 0
	#DEBUG_VALUE: gcd_array:n <- 1000
	#DEBUG_VALUE: gcd_array:_2_size <- 0
	#DEBUG_VALUE: gcd_array:_2_has_ownership <- 0
	#DEBUG_VALUE: gcd_array:gcds_size <- 0
	#DEBUG_VALUE: gcd_array:gcds_has_ownership <- 0
	#DEBUG_VALUE: gcd_array:sum <- 0
	#DEBUG_VALUE: gcd_array:i <- 0
	#DEBUG_VALUE: gcd_array:j <- 0
	#DEBUG_VALUE: gcd_array:a <- 0
	#DEBUG_VALUE: gcd_array:b <- 0
	#DEBUG_VALUE: gcd_array:g <- 0
	#DEBUG_VALUE: gcd_array:_10 <- 0
	#DEBUG_VALUE: gcd_array:_11 <- 1000000
	#DEBUG_VALUE: gcd_array:_12_size <- 1000000
	#DEBUG_VALUE: gcd_array:_12_has_ownership <- 0
	#DEBUG_VALUE: gcd_array:_13 <- 0
	#DEBUG_VALUE: gcd_array:_14 <- 0
	#DEBUG_VALUE: gcd_array:_15 <- 0
	#DEBUG_VALUE: gcd_array:_16 <- 0
	#DEBUG_VALUE: gcd_array:_17 <- 0
	#DEBUG_VALUE: gcd_array:_18 <- 0
	#DEBUG_VALUE: gcd_array:_19 <- 0
	#DEBUG_VALUE: gcd_array:_20 <- 0
	#DEBUG_VALUE: gcd_array:_21 <- 0
	#DEBUG_VALUE: gcd_array:_22 <- 0
	#DEBUG_VALUE: gcd_array:_23 <- 0
	#DEBUG_VALUE: gcd_array:_24 <- 0
	#DEBUG_VALUE: gcd_array:_25 <- 0
	#DEBUG_VALUE: gcd_array:_26 <- 0
	#DEBUG_VALUE: gcd_array:_27 <- 0
	#DEBUG_VALUE: gcd_array:_28 <- 0
	#DEBUG_VALUE: gcd_array:_29 <- 0
	#DEBUG_VALUE: gcd_array:_30 <- 0
	#DEBUG_VALUE: gcd_array:_31 <- 0
	#DEBUG_VALUE: gcd_array:_32 <- 0
	#DEBUG_VALUE: gcd_array:_33 <- 0
	xorl	%ebx, %ebx
.Ltmp75:
	.loc	1 104 2                 # GCD.c:104:2
	xorl	%edi, %edi
	movl	$1000000, %esi          # imm = 0xF4240
	callq	gen1DArray
	movq	%rax, %r14
.Ltmp76:
	#DEBUG_VALUE: gcd_array:gcds <- %R14
	#DEBUG_VALUE: gcd_array:_12 <- %R14
	#DEBUG_VALUE: gcd_array:gcds_has_ownership <- 1
	#DEBUG_VALUE: gcd_array:gcds_size <- 1000000
	.p2align	4, 0x90
.LBB3_3:                                # %while.cond8.preheader.us.i
                                        # =>This Loop Header: Depth=1
                                        #     Child Loop BB3_4 Depth 2
                                        #       Child Loop BB3_6 Depth 3
                                        #         Child Loop BB3_7 Depth 4
	.loc	1 198 9                 # GCD.c:198:9
	imulq	$1000, %rbx, %rax       # imm = 0x3E8
.Ltmp77:
	#DEBUG_VALUE: gcd_array:_28 <- %RAX
	#DEBUG_VALUE: gcd_array:_24 <- %RAX
	.loc	1 344 7                 # GCD.c:344:7
	xorl	%ecx, %ecx
.Ltmp78:
	.p2align	4, 0x90
.LBB3_4:                                # %if.end13.us.i
                                        #   Parent Loop BB3_3 Depth=1
                                        # =>  This Loop Header: Depth=2
                                        #       Child Loop BB3_6 Depth 3
                                        #         Child Loop BB3_7 Depth 4
	.loc	1 132 8                 # GCD.c:132:8
	movq	(%r15,%rbx,8), %rsi
.Ltmp79:
	#DEBUG_VALUE: gcd_array:_16 <- %RSI
	#DEBUG_VALUE: gcd_array:a <- %RSI
	.loc	1 136 8                 # GCD.c:136:8
	movq	(%r15,%rcx,8), %rdx
	#DEBUG_VALUE: gcd_array:_19 <- 0
	#DEBUG_VALUE: gcd_array:_18 <- 0
.Ltmp80:
	#DEBUG_VALUE: gcd_array:_17 <- %RDX
	#DEBUG_VALUE: gcd_array:g <- 0
	#DEBUG_VALUE: gcd_array:b <- %RDX
	.loc	1 146 8                 # GCD.c:146:8
	testq	%rsi, %rsi
	je	.LBB3_10
.Ltmp81:
# BB#5:                                 # %while.cond19.preheader.us.i
                                        #   in Loop: Header=BB3_4 Depth=2
	#DEBUG_VALUE: gcd_array:b <- %RDX
	#DEBUG_VALUE: gcd_array:_17 <- %RDX
	#DEBUG_VALUE: gcd_array:a <- %RSI
	#DEBUG_VALUE: gcd_array:_16 <- %RSI
	#DEBUG_VALUE: gcd_array:_20 <- 0
	js	.LBB3_18
.Ltmp82:
.LBB3_6:                                # %blklab15.lr.ph.us.i
                                        #   Parent Loop BB3_3 Depth=1
                                        #     Parent Loop BB3_4 Depth=2
                                        # =>    This Loop Header: Depth=3
                                        #         Child Loop BB3_7 Depth 4
	#DEBUG_VALUE: gcd_array:_21 <- 0
	.loc	1 171 9                 # GCD.c:171:9
	testq	%rdx, %rdx
	je	.LBB3_9
.Ltmp83:
	.p2align	4, 0x90
.LBB3_7:                                # %if.end29.us.i
                                        #   Parent Loop BB3_3 Depth=1
                                        #     Parent Loop BB3_4 Depth=2
                                        #       Parent Loop BB3_6 Depth=3
                                        # =>      This Inner Loop Header: Depth=4
	.loc	1 173 9                 # GCD.c:173:9
	movq	%rdx, %rdi
	subq	%rsi, %rdi
.Ltmp84:
	.loc	1 173 8 is_stmt 0       # GCD.c:173:8
	jl	.LBB3_17
.Ltmp85:
# BB#8:                                 # %blklab16.thread.us.i
                                        #   in Loop: Header=BB3_7 Depth=4
	#DEBUG_VALUE: gcd_array:_20 <- 0
	#DEBUG_VALUE: gcd_array:_21 <- 0
	.loc	1 344 7 is_stmt 1       # GCD.c:344:7
	movq	%rdi, %rdx
	jne	.LBB3_7
	jmp	.LBB3_9
	.p2align	4, 0x90
.LBB3_17:                               # %if.end33.us.i
                                        #   in Loop: Header=BB3_6 Depth=3
	#DEBUG_VALUE: gcd_array:_20 <- 0
.Ltmp86:
	.loc	1 160 10                # GCD.c:160:10
	subq	%rdx, %rsi
	jns	.LBB3_6
	jmp	.LBB3_18
.Ltmp87:
	.p2align	4, 0x90
.LBB3_9:                                #   in Loop: Header=BB3_4 Depth=2
	.loc	1 344 7                 # GCD.c:344:7
	movq	%rsi, %rdx
.LBB3_10:                               # %blklab12.us.i
                                        #   in Loop: Header=BB3_4 Depth=2
.Ltmp88:
	.loc	1 200 11                # GCD.c:200:11
	leaq	(%rcx,%rax), %rsi
.Ltmp89:
	#DEBUG_VALUE: gcd_array:_29 <- %RSI
	#DEBUG_VALUE: gcd_array:_25 <- %RSI
	.loc	1 210 14                # GCD.c:210:14
	addq	%rdx, (%r14,%rsi,8)
.Ltmp90:
	#DEBUG_VALUE: gcd_array:_30 <- 1
	.loc	1 214 9                 # GCD.c:214:9
	incq	%rcx
.Ltmp91:
	#DEBUG_VALUE: gcd_array:_31 <- %RCX
	#DEBUG_VALUE: gcd_array:j <- %RCX
	.loc	1 130 8                 # GCD.c:130:8
	cmpq	$1000, %rcx             # imm = 0x3E8
	jl	.LBB3_4
.Ltmp92:
# BB#11:                                # %blklab9.loopexit.us.i
                                        #   in Loop: Header=BB3_3 Depth=1
	#DEBUG_VALUE: gcd_array:j <- %RCX
	#DEBUG_VALUE: gcd_array:_31 <- %RCX
	#DEBUG_VALUE: gcd_array:_25 <- %RSI
	#DEBUG_VALUE: gcd_array:_29 <- %RSI
	#DEBUG_VALUE: gcd_array:_32 <- 1
	.loc	1 225 8                 # GCD.c:225:8
	incq	%rbx
.Ltmp93:
	#DEBUG_VALUE: gcd_array:_33 <- %RBX
	#DEBUG_VALUE: gcd_array:i <- %RBX
	.loc	1 122 7                 # GCD.c:122:7
	cmpq	$1000, %rbx             # imm = 0x3E8
	jl	.LBB3_3
.Ltmp94:
# BB#12:                                # %while.cond13.preheader.preheader
	#DEBUG_VALUE: gcd_array:_29 <- %RSI
	#DEBUG_VALUE: gcd_array:_25 <- %RSI
	#DEBUG_VALUE: gcd_array:_31 <- %RCX
	#DEBUG_VALUE: gcd_array:j <- %RCX
	#DEBUG_VALUE: gcd_array:i <- %RBX
	#DEBUG_VALUE: gcd_array:_33 <- %RBX
	.loc	1 372 9                 # GCD.c:372:9
	movq	%r14, %rax
	addq	$32, %rax
	xorl	%ecx, %ecx
.Ltmp95:
	xorl	%ebx, %ebx
.Ltmp96:
	.p2align	4, 0x90
.LBB3_13:                               # %while.cond13.preheader
                                        # =>This Loop Header: Depth=1
                                        #     Child Loop BB3_14 Depth 2
	movq	%rax, %rdx
	movl	$1000, %esi             # imm = 0x3E8
	.p2align	4, 0x90
.LBB3_14:                               # %if.end17
                                        #   Parent Loop BB3_13 Depth=1
                                        # =>  This Inner Loop Header: Depth=2
	.loc	1 378 11                # GCD.c:378:11
	addq	-32(%rdx), %rbx
.Ltmp97:
	#DEBUG_VALUE: main:_17 <- 1
	#DEBUG_VALUE: main:_16 <- %RBX
	#DEBUG_VALUE: main:sum <- %RBX
	addq	-24(%rdx), %rbx
.Ltmp98:
	addq	-16(%rdx), %rbx
	addq	-8(%rdx), %rbx
	addq	(%rdx), %rbx
	.loc	1 370 7                 # GCD.c:370:7
	addq	$40, %rdx
	addq	$-5, %rsi
	jne	.LBB3_14
.Ltmp99:
# BB#15:                                # %blklab22
                                        #   in Loop: Header=BB3_13 Depth=1
	#DEBUG_VALUE: main:_19 <- 1
	.loc	1 395 8                 # GCD.c:395:8
	incq	%rcx
.Ltmp100:
	#DEBUG_VALUE: main:_20 <- %RCX
	#DEBUG_VALUE: main:i <- %RCX
	.loc	1 362 6                 # GCD.c:362:6
	addq	$8000, %rax             # imm = 0x1F40
	cmpq	$1000, %rcx             # imm = 0x3E8
	jne	.LBB3_13
.Ltmp101:
# BB#16:                                # %if.end23
	#DEBUG_VALUE: main:i <- %RCX
	#DEBUG_VALUE: main:_20 <- %RCX
	#DEBUG_VALUE: main:_23_size <- 4
	.loc	1 407 2                 # GCD.c:407:2
	movl	$32, %edi
	callq	malloc
.Ltmp102:
	movq	%rax, %r12
.Ltmp103:
	#DEBUG_VALUE: main:_23 <- %R12
	.loc	1 408 9                 # GCD.c:408:9
	movaps	.LCPI3_0(%rip), %xmm0   # xmm0 = [83,85]
	movups	%xmm0, (%r12)
	.loc	1 408 35 is_stmt 0      # GCD.c:408:35
	movaps	.LCPI3_1(%rip), %xmm0   # xmm0 = [77,58]
	movups	%xmm0, 16(%r12)
.Ltmp104:
	#DEBUG_VALUE: main:_23_has_ownership <- 1
	.loc	1 411 2 is_stmt 1       # GCD.c:411:2
	movl	$4, %esi
	movq	%r12, %rdi
	callq	printf_s
	.loc	1 415 2                 # GCD.c:415:2
	movl	$.L.str.1, %edi
	xorl	%eax, %eax
	movq	%rbx, %rsi
	callq	printf
.Ltmp105:
	.loc	1 417 2 discriminator 1 # GCD.c:417:2
	movq	%r15, %rdi
	callq	free
.Ltmp106:
	#DEBUG_VALUE: main:data_has_ownership <- 0
	.loc	1 418 2 discriminator 1 # GCD.c:418:2
	movq	%r14, %rdi
	callq	free
.Ltmp107:
	#DEBUG_VALUE: main:gcds_has_ownership <- 0
	.loc	1 421 2 discriminator 1 # GCD.c:421:2
	movq	%r12, %rdi
	callq	free
.Ltmp108:
	#DEBUG_VALUE: main:_23_has_ownership <- 0
	.loc	1 422 2                 # GCD.c:422:2
	xorl	%edi, %edi
	callq	exit
.Ltmp109:
.LBB3_18:                               # %if.end24.i
	.loc	1 162 14                # GCD.c:162:14
	movq	stderr(%rip), %rcx
	.loc	1 162 6 is_stmt 0       # GCD.c:162:6
	movl	$.L.str, %edi
	movl	$4, %esi
	movl	$1, %edx
	callq	fwrite
	.loc	1 163 6 is_stmt 1       # GCD.c:163:6
	movl	$-1, %edi
	callq	exit
.Ltmp110:
.Lfunc_end3:
	.size	main, .Lfunc_end3-main
	.cfi_endproc

	.type	.L.str,@object          # @.str
	.section	.rodata.str1.1,"aMS",@progbits,1
.L.str:
	.asciz	"fail"
	.size	.L.str, 5

	.type	.L.str.1,@object        # @.str.1
.L.str.1:
	.asciz	"%lld\n"
	.size	.L.str.1, 6

	.section	".note.GNU-stack","",@progbits