	.text
	.file	"llvm/GCD.polly.enablevc.ll"
	.globl	gcd
	.p2align	4, 0x90
	.type	gcd,@function
gcd:                                    # @gcd
.Lfunc_begin0:
	.file	1 "GCD.c"
	.loc	1 2 0                   # GCD.c:2:0
	.cfi_startproc
# BB#0:                                 # %entry
	#DEBUG_VALUE: gcd:a <- %RDI
	#DEBUG_VALUE: gcd:b <- %RSI
	#DEBUG_VALUE: gcd:_2 <- 0
	#DEBUG_VALUE: gcd:_3 <- 0
	#DEBUG_VALUE: gcd:_4 <- 0
	#DEBUG_VALUE: gcd:_5 <- 0
	#DEBUG_VALUE: gcd:_6 <- 0
	#DEBUG_VALUE: gcd:_7 <- 0
	.loc	1 12 6 prologue_end     # GCD.c:12:6
	testq	%rdi, %rdi
	je	.LBB0_1
.Ltmp0:
# BB#2:                                 # %while.cond.preheader
	#DEBUG_VALUE: gcd:b <- %RSI
	#DEBUG_VALUE: gcd:a <- %RDI
	#DEBUG_VALUE: gcd:_4 <- 0
	js	.LBB0_6
.Ltmp1:
# BB#3:                                 # %blklab4.lr.ph.preheader
	#DEBUG_VALUE: gcd:a <- %RDI
	#DEBUG_VALUE: gcd:b <- %RSI
	.loc	1 35 7                  # GCD.c:35:7
	testq	%rsi, %rsi
	je	.LBB0_8
.Ltmp2:
	.p2align	4, 0x90
.LBB0_4:                                # %blklab4
                                        # =>This Inner Loop Header: Depth=1
	#DEBUG_VALUE: gcd:_5 <- 0
	.loc	1 37 6                  # GCD.c:37:6
	movq	%rdi, %rax
	subq	%rsi, %rax
	jle	.LBB0_7
# BB#5:                                 # %if.end9
                                        #   in Loop: Header=BB0_4 Depth=1
	#DEBUG_VALUE: gcd:_4 <- 0
	movq	%rax, %rdi
	jns	.LBB0_4
	jmp	.LBB0_6
.LBB0_7:                                # %blklab5
                                        #   in Loop: Header=BB0_4 Depth=1
	#DEBUG_VALUE: gcd:_4 <- 0
	.loc	1 35 6                  # GCD.c:35:6
	subq	%rdi, %rsi
	jne	.LBB0_4
.Ltmp3:
.LBB0_8:                                # %cleanup
	.loc	1 60 1                  # GCD.c:60:1
	movq	%rdi, %rax
	retq
.LBB0_1:
.Ltmp4:
	#DEBUG_VALUE: gcd:b <- %RSI
	#DEBUG_VALUE: gcd:a <- %RDI
	movq	%rsi, %rdi
.Ltmp5:
	movq	%rdi, %rax
	retq
.Ltmp6:
.LBB0_6:                                # %if.end3
	.loc	1 26 12                 # GCD.c:26:12
	pushq	%rax
.Ltmp7:
	.cfi_def_cfa_offset 16
	movq	stderr(%rip), %rcx
	.loc	1 26 4 is_stmt 0        # GCD.c:26:4
	movl	$.L.str, %edi
	movl	$4, %esi
	movl	$1, %edx
	callq	fwrite
	.loc	1 27 4 is_stmt 1        # GCD.c:27:4
	movl	$-1, %edi
	callq	exit
.Ltmp8:
.Lfunc_end0:
	.size	gcd, .Lfunc_end0-gcd
	.cfi_endproc

	.globl	gcd_cached
	.p2align	4, 0x90
	.type	gcd_cached,@function
gcd_cached:                             # @gcd_cached
.Lfunc_begin1:
	.loc	1 62 0                  # GCD.c:62:0
	.cfi_startproc
# BB#0:                                 # %entry
	pushq	%r14
.Ltmp9:
	.cfi_def_cfa_offset 16
	pushq	%rbx
.Ltmp10:
	.cfi_def_cfa_offset 24
	pushq	%rax
.Ltmp11:
	.cfi_def_cfa_offset 32
.Ltmp12:
	.cfi_offset %rbx, -24
.Ltmp13:
	.cfi_offset %r14, -16
	#DEBUG_VALUE: gcd_cached:a <- %RDI
	#DEBUG_VALUE: gcd_cached:b <- %RSI
	#DEBUG_VALUE: gcd_cached:n <- %RDX
	#DEBUG_VALUE: gcd_cached:gcds <- %RCX
	#DEBUG_VALUE: gcd_cached:gcds_size <- %R8
	#DEBUG_VALUE: gcd_cached:gcds_has_ownership [bit_piece offset=0 size=1] <- %R9D
	movq	%rsi, %r14
.Ltmp14:
	#DEBUG_VALUE: gcd_cached:b <- %R14
	movq	%rdi, %rbx
.Ltmp15:
	#DEBUG_VALUE: gcd_cached:_11 <- 0
	#DEBUG_VALUE: gcd_cached:_10 <- 0
	#DEBUG_VALUE: gcd_cached:_9 <- 0
	#DEBUG_VALUE: gcd_cached:_8 <- 0
	#DEBUG_VALUE: gcd_cached:_7 <- 0
	#DEBUG_VALUE: gcd_cached:_6 <- 0
	#DEBUG_VALUE: gcd_cached:_5 <- 0
	#DEBUG_VALUE: gcd_cached:_4 <- 0
	#DEBUG_VALUE: gcd_cached:gcds_has_ownership [bit_piece offset=0 size=1] <- %R9B
	#DEBUG_VALUE: gcd_cached:a <- %RBX
	.loc	1 74 5 prologue_end     # GCD.c:74:5
	testq	%rbx, %rbx
	je	.LBB1_6
.Ltmp16:
# BB#1:                                 # %blklab7
	#DEBUG_VALUE: gcd_cached:a <- %RBX
	#DEBUG_VALUE: gcd_cached:gcds_has_ownership [bit_piece offset=0 size=1] <- %R9B
	#DEBUG_VALUE: gcd_cached:b <- %R14
	#DEBUG_VALUE: gcd_cached:gcds_size <- %R8
	#DEBUG_VALUE: gcd_cached:gcds <- %RCX
	#DEBUG_VALUE: gcd_cached:n <- %RDX
	#DEBUG_VALUE: gcd_cached:_6 <- 0
	.loc	1 85 5                  # GCD.c:85:5
	testq	%r14, %r14
	je	.LBB1_2
.Ltmp17:
# BB#5:                                 # %blklab9
	#DEBUG_VALUE: gcd_cached:n <- %RDX
	#DEBUG_VALUE: gcd_cached:gcds <- %RCX
	#DEBUG_VALUE: gcd_cached:gcds_size <- %R8
	#DEBUG_VALUE: gcd_cached:b <- %R14
	#DEBUG_VALUE: gcd_cached:gcds_has_ownership [bit_piece offset=0 size=1] <- %R9B
	#DEBUG_VALUE: gcd_cached:a <- %RBX
	movq	%rbx, %rax
	negq	%rax
	xorl	%esi, %esi
.Ltmp18:
	.loc	1 94 6                  # GCD.c:94:6
	cmpq	%r14, %rbx
	cmovgq	%rsi, %rax
.Ltmp19:
	.loc	1 94 5 is_stmt 0        # GCD.c:94:5
	cmovgq	%r14, %rsi
	addq	%r14, %rax
	subq	%rsi, %rbx
.Ltmp20:
	.loc	1 110 6 is_stmt 1       # GCD.c:110:6
	imulq	%rdx, %rbx
.Ltmp21:
	#DEBUG_VALUE: gcd_cached:_9 <- %RBX
	.loc	1 112 8                 # GCD.c:112:8
	addq	%rax, %rbx
.Ltmp22:
	#DEBUG_VALUE: gcd_cached:_10 <- %RBX
	.loc	1 114 6                 # GCD.c:114:6
	movq	(%rcx,%rbx,8), %r14
.Ltmp23:
.LBB1_6:                                # %blklab9
	#DEBUG_VALUE: gcd_cached:gcds_has_ownership [bit_piece offset=0 size=1] <- %R9B
	#DEBUG_VALUE: gcd_cached:gcds_size <- %R8
	#DEBUG_VALUE: gcd_cached:gcds <- %RCX
	#DEBUG_VALUE: gcd_cached:n <- %RDX
	#DEBUG_VALUE: gcd_cached:_11 <- %R14
	.loc	1 116 2                 # GCD.c:116:2
	testb	%r9b, %r9b
	je	.LBB1_8
.Ltmp24:
# BB#7:                                 # %if.then14
	#DEBUG_VALUE: gcd_cached:n <- %RDX
	#DEBUG_VALUE: gcd_cached:gcds <- %RCX
	#DEBUG_VALUE: gcd_cached:gcds_size <- %R8
	#DEBUG_VALUE: gcd_cached:gcds_has_ownership [bit_piece offset=0 size=1] <- %R9B
	#DEBUG_VALUE: gcd_cached:_11 <- %R14
	.loc	1 116 2 is_stmt 0 discriminator 1 # GCD.c:116:2
	movq	%rcx, %rdi
	callq	free
.Ltmp25:
	#DEBUG_VALUE: gcd_cached:gcds_has_ownership <- 0
	jmp	.LBB1_8
.Ltmp26:
.LBB1_2:                                # %if.end5
	#DEBUG_VALUE: gcd_cached:n <- %RDX
	#DEBUG_VALUE: gcd_cached:gcds <- %RCX
	#DEBUG_VALUE: gcd_cached:gcds_size <- %R8
	#DEBUG_VALUE: gcd_cached:b <- %R14
	#DEBUG_VALUE: gcd_cached:gcds_has_ownership [bit_piece offset=0 size=1] <- %R9B
	#DEBUG_VALUE: gcd_cached:a <- %RBX
	.loc	1 87 2 is_stmt 1        # GCD.c:87:2
	testb	%r9b, %r9b
	je	.LBB1_3
.Ltmp27:
# BB#4:                                 # %if.then7
	#DEBUG_VALUE: gcd_cached:a <- %RBX
	#DEBUG_VALUE: gcd_cached:gcds_has_ownership [bit_piece offset=0 size=1] <- %R9B
	#DEBUG_VALUE: gcd_cached:b <- %R14
	#DEBUG_VALUE: gcd_cached:gcds_size <- %R8
	#DEBUG_VALUE: gcd_cached:gcds <- %RCX
	#DEBUG_VALUE: gcd_cached:n <- %RDX
	.loc	1 87 2 is_stmt 0 discriminator 1 # GCD.c:87:2
	movq	%rcx, %rdi
	callq	free
.Ltmp28:
	#DEBUG_VALUE: gcd_cached:gcds_has_ownership <- 0
	movq	%rbx, %r14
.Ltmp29:
	jmp	.LBB1_8
.Ltmp30:
.LBB1_3:
	#DEBUG_VALUE: gcd_cached:a <- %RBX
	#DEBUG_VALUE: gcd_cached:gcds_has_ownership [bit_piece offset=0 size=1] <- %R9B
	#DEBUG_VALUE: gcd_cached:b <- %R14
	#DEBUG_VALUE: gcd_cached:gcds_size <- %R8
	#DEBUG_VALUE: gcd_cached:gcds <- %RCX
	#DEBUG_VALUE: gcd_cached:n <- %RDX
	movq	%rbx, %r14
.Ltmp31:
.LBB1_8:                                # %cleanup
	.loc	1 123 1 is_stmt 1 discriminator 2 # GCD.c:123:1
	movq	%r14, %rax
	addq	$8, %rsp
	popq	%rbx
	popq	%r14
	retq
.Ltmp32:
.Lfunc_end1:
	.size	gcd_cached, .Lfunc_end1-gcd_cached
	.cfi_endproc

	.section	.rodata.cst16,"aM",@progbits,16
	.p2align	4
.LCPI2_0:
	.quad	78                      # 0x4e
	.quad	32                      # 0x20
.LCPI2_1:
	.quad	61                      # 0x3d
	.quad	32                      # 0x20
.LCPI2_2:
	.quad	2                       # 0x2
	.quad	3                       # 0x3
.LCPI2_3:
	.quad	83                      # 0x53
	.quad	117                     # 0x75
.LCPI2_4:
	.quad	109                     # 0x6d
	.quad	58                      # 0x3a
.LCPI2_5:
	.quad	80                      # 0x50
	.quad	97                      # 0x61
.LCPI2_6:
	.quad	115                     # 0x73
	.quad	115                     # 0x73
.LCPI2_7:
	.quad	32                      # 0x20
	.quad	99                      # 0x63
.LCPI2_8:
	.quad	97                      # 0x61
	.quad	99                      # 0x63
.LCPI2_9:
	.quad	104                     # 0x68
	.quad	101                     # 0x65
.LCPI2_10:
	.quad	100                     # 0x64
	.quad	32                      # 0x20
.LCPI2_11:
	.quad	69                      # 0x45
	.quad	117                     # 0x75
.LCPI2_12:
	.quad	99                      # 0x63
	.quad	108                     # 0x6c
.LCPI2_13:
	.quad	105                     # 0x69
	.quad	100                     # 0x64
.LCPI2_14:
	.quad	32                      # 0x20
	.quad	71                      # 0x47
.LCPI2_15:
	.quad	67                      # 0x43
	.quad	68                      # 0x44
.LCPI2_16:
	.quad	32                      # 0x20
	.quad	116                     # 0x74
.LCPI2_17:
	.quad	101                     # 0x65
	.quad	115                     # 0x73
.LCPI2_18:
	.quad	116                     # 0x74
	.quad	32                      # 0x20
.LCPI2_19:
	.quad	99                      # 0x63
	.quad	97                      # 0x61
.LCPI2_20:
	.quad	115                     # 0x73
	.quad	101                     # 0x65
	.text
	.globl	main
	.p2align	4, 0x90
	.type	main,@function
main:                                   # @main
.Lfunc_begin2:
	.loc	1 125 0                 # GCD.c:125:0
	.cfi_startproc
# BB#0:                                 # %entry
	pushq	%rbp
.Ltmp33:
	.cfi_def_cfa_offset 16
	pushq	%r15
.Ltmp34:
	.cfi_def_cfa_offset 24
	pushq	%r14
.Ltmp35:
	.cfi_def_cfa_offset 32
	pushq	%r13
.Ltmp36:
	.cfi_def_cfa_offset 40
	pushq	%r12
.Ltmp37:
	.cfi_def_cfa_offset 48
	pushq	%rbx
.Ltmp38:
	.cfi_def_cfa_offset 56
	subq	$40, %rsp
.Ltmp39:
	.cfi_def_cfa_offset 96
.Ltmp40:
	.cfi_offset %rbx, -56
.Ltmp41:
	.cfi_offset %r12, -48
.Ltmp42:
	.cfi_offset %r13, -40
.Ltmp43:
	.cfi_offset %r14, -32
.Ltmp44:
	.cfi_offset %r15, -24
.Ltmp45:
	.cfi_offset %rbp, -16
	#DEBUG_VALUE: main:argc <- %EDI
	#DEBUG_VALUE: main:args <- %RSI
	movl	%edi, %ebx
.Ltmp46:
	#DEBUG_VALUE: main:_40_has_ownership <- 0
	#DEBUG_VALUE: main:_40_size <- 0
	#DEBUG_VALUE: main:_35_has_ownership <- 0
	#DEBUG_VALUE: main:_35_size <- 0
	#DEBUG_VALUE: main:_32 <- 0
	#DEBUG_VALUE: main:_31 <- 0
	#DEBUG_VALUE: main:_30 <- 0
	#DEBUG_VALUE: main:_29 <- 0
	#DEBUG_VALUE: main:_28 <- 0
	#DEBUG_VALUE: main:_27 <- 0
	#DEBUG_VALUE: main:_26 <- 0
	#DEBUG_VALUE: main:_25 <- 0
	#DEBUG_VALUE: main:_24 <- 0
	#DEBUG_VALUE: main:_23 <- 0
	#DEBUG_VALUE: main:_22 <- 0
	#DEBUG_VALUE: main:_21 <- 0
	#DEBUG_VALUE: main:_20 <- 0
	#DEBUG_VALUE: main:_19 <- 0
	#DEBUG_VALUE: main:_18_has_ownership <- 0
	#DEBUG_VALUE: main:_18_size <- 0
	#DEBUG_VALUE: main:_17 <- 0
	#DEBUG_VALUE: main:_16 <- 0
	#DEBUG_VALUE: main:_13_has_ownership <- 0
	#DEBUG_VALUE: main:_13_size <- 0
	#DEBUG_VALUE: main:_10_has_ownership <- 0
	#DEBUG_VALUE: main:_10_size <- 0
	#DEBUG_VALUE: main:_9 <- 0
	#DEBUG_VALUE: main:_8_has_ownership <- 0
	#DEBUG_VALUE: main:_8_size_size <- 0
	#DEBUG_VALUE: main:_8_size <- 0
	#DEBUG_VALUE: main:j <- 0
	#DEBUG_VALUE: main:i <- 0
	#DEBUG_VALUE: main:sum <- 0
	#DEBUG_VALUE: main:gcds_has_ownership <- 0
	#DEBUG_VALUE: main:gcds_size <- 0
	#DEBUG_VALUE: main:n <- 0
	#DEBUG_VALUE: main:argc <- %EBX
	.loc	1 169 2 prologue_end    # GCD.c:169:2
	callq	convertArgsToIntArray
.Ltmp47:
	#DEBUG_VALUE: main:_8 <- %RAX
	movq	%rax, (%rsp)            # 8-byte Spill
	decl	%ebx
.Ltmp48:
	movslq	%ebx, %rcx
.Ltmp49:
	#DEBUG_VALUE: main:_8_has_ownership <- 1
	#DEBUG_VALUE: main:_8_size <- %EBX
	.loc	1 174 6                 # GCD.c:174:6
	movq	%rcx, 16(%rsp)          # 8-byte Spill
	movq	(%rax), %rdi
.Ltmp50:
	#DEBUG_VALUE: main:_10 <- %RDI
	#DEBUG_VALUE: main:_8 <- [%RSP+0]
	.loc	1 176 2                 # GCD.c:176:2
	callq	parseStringToInt
.Ltmp51:
	#DEBUG_VALUE: main:max <- %RAX
	#DEBUG_VALUE: main:_7 <- %RAX
	.loc	1 180 9                 # GCD.c:180:9
	testq	%rax, %rax
.Ltmp52:
	.loc	1 180 5 is_stmt 0       # GCD.c:180:5
	je	.LBB2_20
.Ltmp53:
# BB#1:                                 # %if.end
	#DEBUG_VALUE: main:_7 <- %RAX
	#DEBUG_VALUE: main:max <- %RAX
	#DEBUG_VALUE: main:_8_size <- %EBX
	.loc	1 182 6 is_stmt 1       # GCD.c:182:6
	movq	(%rax), %rbx
.Ltmp54:
	#DEBUG_VALUE: gcd_cached:n <- %RBX
	#DEBUG_VALUE: main:_13_size <- 4
	#DEBUG_VALUE: main:n <- %RBX
	.loc	1 187 2                 # GCD.c:187:2
	movl	$32, %edi
	callq	malloc
.Ltmp55:
	#DEBUG_VALUE: main:_13 <- %RAX
	.loc	1 188 9                 # GCD.c:188:9
	movq	%rax, 8(%rsp)           # 8-byte Spill
	movaps	.LCPI2_0(%rip), %xmm0   # xmm0 = [78,32]
	movups	%xmm0, (%rax)
	.loc	1 188 35 is_stmt 0      # GCD.c:188:35
	movdqa	.LCPI2_1(%rip), %xmm0   # xmm0 = [61,32]
	movdqu	%xmm0, 16(%rax)
.Ltmp56:
	#DEBUG_VALUE: main:_13_has_ownership <- 1
	.loc	1 191 2 is_stmt 1       # GCD.c:191:2
	movl	$4, %esi
	movq	%rax, %rdi
.Ltmp57:
	#DEBUG_VALUE: main:_13 <- [%RSP+8]
	callq	printf_s
.Ltmp58:
	.loc	1 202 2                 # GCD.c:202:2
	xorl	%ebp, %ebp
	.loc	1 195 2                 # GCD.c:195:2
	movl	$.L.str.1, %edi
	xorl	%eax, %eax
	movq	%rbx, %rsi
	callq	printf
	#DEBUG_VALUE: main:_16 <- 0
	.loc	1 199 7                 # GCD.c:199:7
	movl	%ebx, %esi
	imull	%esi, %esi
	.loc	1 202 2                 # GCD.c:202:2
	xorl	%edi, %edi
	callq	gen1DArray
	movq	%rax, %r13
.Ltmp59:
	#DEBUG_VALUE: main:gcds <- %R13
	#DEBUG_VALUE: main:_18 <- %R13
	#DEBUG_VALUE: gcd_cached:gcds <- %R13
	#DEBUG_VALUE: main:_20 <- 0
	#DEBUG_VALUE: main:_19 <- 0
	#DEBUG_VALUE: main:_18_has_ownership <- 0
	#DEBUG_VALUE: main:i <- 0
	#DEBUG_VALUE: main:sum <- 0
	#DEBUG_VALUE: main:gcds_has_ownership <- 1
	.loc	1 220 6                 # GCD.c:220:6
	testq	%rbx, %rbx
	jle	.LBB2_19
.Ltmp60:
# BB#2:                                 # %while.cond24.preheader.us.preheader
	#DEBUG_VALUE: gcd_cached:gcds <- %R13
	#DEBUG_VALUE: main:_18 <- %R13
	#DEBUG_VALUE: main:gcds <- %R13
	#DEBUG_VALUE: main:n <- %RBX
	#DEBUG_VALUE: gcd_cached:n <- %RBX
	.loc	1 74 6                  # GCD.c:74:6
	leaq	-4(%rbx), %rax
	shrq	$2, %rax
.Ltmp61:
	.loc	1 129 2                 # GCD.c:129:2
	movq	%rax, 32(%rsp)          # 8-byte Spill
	movq	%rbx, %rcx
	andq	$-4, %rcx
	andl	$1, %eax
	movq	%rax, 24(%rsp)          # 8-byte Spill
.Ltmp62:
	.loc	1 74 6                  # GCD.c:74:6
	leaq	(,%rbx,8), %r10
	xorl	%edi, %edi
.Ltmp63:
	.loc	1 237 14                # GCD.c:237:14
	movl	$1, %r11d
	movd	%r11, %xmm0
	pslldq	$8, %xmm0               # xmm0 = zero,zero,zero,zero,zero,zero,zero,zero,xmm0[0,1,2,3,4,5,6,7]
	movdqa	.LCPI2_2(%rip), %xmm1   # xmm1 = [2,3]
	movq	%r13, %r14
	xorl	%ebp, %ebp
	xorl	%r9d, %r9d
.Ltmp64:
	.p2align	4, 0x90
.LBB2_3:                                # %while.cond24.preheader.us
                                        # =>This Loop Header: Depth=1
                                        #     Child Loop BB2_5 Depth 2
                                        #     Child Loop BB2_16 Depth 2
                                        #     Child Loop BB2_10 Depth 2
	#DEBUG_VALUE: gcd_cached:a <- %R9
	.loc	1 74 5                  # GCD.c:74:5
	testq	%r9, %r9
	je	.LBB2_8
.Ltmp65:
# BB#4:                                 #   in Loop: Header=BB2_3 Depth=1
	#DEBUG_VALUE: gcd_cached:a <- %R9
	.loc	1 231 10                # GCD.c:231:10
	movq	%r9, %rax
	negq	%rax
	movq	%r14, %rdx
	xorl	%r15d, %r15d
.Ltmp66:
	.p2align	4, 0x90
.LBB2_5:                                # %if.end29.us196
                                        #   Parent Loop BB2_3 Depth=1
                                        # =>  This Inner Loop Header: Depth=2
	#DEBUG_VALUE: main:gcds_has_ownership <- 1
	#DEBUG_VALUE: gcd_cached:gcds_has_ownership [bit_piece offset=0 size=1] <- 0
	#DEBUG_VALUE: gcd_cached:_4 <- 0
	#DEBUG_VALUE: gcd_cached:_5 <- 0
	#DEBUG_VALUE: gcd_cached:_6 <- 0
	#DEBUG_VALUE: gcd_cached:_7 <- 0
	#DEBUG_VALUE: gcd_cached:_8 <- 0
	#DEBUG_VALUE: gcd_cached:_9 <- 0
	#DEBUG_VALUE: gcd_cached:_10 <- 0
	#DEBUG_VALUE: gcd_cached:_11 <- 0
	#DEBUG_VALUE: gcd_cached:b <- %R15
	.loc	1 85 6                  # GCD.c:85:6
	testq	%r15, %r15
.Ltmp67:
	.loc	1 231 10                # GCD.c:231:10
	movq	%r9, %rsi
	je	.LBB2_7
.Ltmp68:
# BB#6:                                 # %blklab9.i.us201
                                        #   in Loop: Header=BB2_5 Depth=2
	#DEBUG_VALUE: gcd_cached:b <- %R15
	.loc	1 94 6                  # GCD.c:94:6
	cmpq	%r15, %r9
.Ltmp69:
	.loc	1 231 10                # GCD.c:231:10
	movq	%rax, %rsi
	cmovgq	%rdi, %rsi
.Ltmp70:
	.loc	1 94 5                  # GCD.c:94:5
	movl	$0, %r8d
	cmovgq	%r15, %r8
	movq	%r9, %r12
	subq	%r8, %r12
	.loc	1 114 6                 # GCD.c:114:6
	imulq	%rbx, %r12
	addq	%rsi, %r12
	addq	%r15, %r12
	movq	(%r13,%r12,8), %rsi
.Ltmp71:
	#DEBUG_VALUE: gcd_cached:_11 <- %RSI
.LBB2_7:                                # %gcd_cached.exit.us210
                                        #   in Loop: Header=BB2_5 Depth=2
	#DEBUG_VALUE: gcd_cached:b <- %R15
	#DEBUG_VALUE: main:_22 <- %RSI
	.loc	1 237 14                # GCD.c:237:14
	movq	%rsi, (%rdx)
	.loc	1 245 11                # GCD.c:245:11
	addq	%rsi, %rbp
.Ltmp72:
	#DEBUG_VALUE: main:_29 <- 1
	#DEBUG_VALUE: main:_28 <- %RBP
	#DEBUG_VALUE: main:sum <- %RBP
	.loc	1 251 9                 # GCD.c:251:9
	incq	%r15
.Ltmp73:
	#DEBUG_VALUE: main:_30 <- %R15
	#DEBUG_VALUE: main:j <- %R15
	.loc	1 228 7                 # GCD.c:228:7
	addq	$8, %rdx
	cmpq	%r15, %rbx
	jne	.LBB2_5
	jmp	.LBB2_18
.Ltmp74:
	.p2align	4, 0x90
.LBB2_8:                                # %if.end29.us.us.preheader
                                        #   in Loop: Header=BB2_3 Depth=1
	#DEBUG_VALUE: gcd_cached:a <- %R9
	cmpq	$4, %rbx
	jb	.LBB2_9
.Ltmp75:
# BB#11:                                # %min.iters.checked
                                        #   in Loop: Header=BB2_3 Depth=1
	#DEBUG_VALUE: gcd_cached:a <- %R9
	testq	%rcx, %rcx
	je	.LBB2_9
.Ltmp76:
# BB#12:                                # %vector.ph
                                        #   in Loop: Header=BB2_3 Depth=1
	#DEBUG_VALUE: gcd_cached:a <- %R9
	.loc	1 129 2                 # GCD.c:129:2
	movd	%rbp, %xmm4
	pxor	%xmm2, %xmm2
	cmpq	$0, 24(%rsp)            # 8-byte Folded Reload
	jne	.LBB2_13
.Ltmp77:
# BB#14:                                # %vector.body.prol
                                        #   in Loop: Header=BB2_3 Depth=1
	#DEBUG_VALUE: gcd_cached:a <- %R9
	.loc	1 233 9                 # GCD.c:233:9
	movq	%r9, %rax
	imulq	%rbx, %rax
.Ltmp78:
	#DEBUG_VALUE: main:_25 <- %RAX
	#DEBUG_VALUE: main:_23 <- %RAX
	.loc	1 237 14                # GCD.c:237:14
	movdqu	%xmm0, (%r13,%rax,8)
	movdqu	%xmm1, 16(%r13,%rax,8)
	.loc	1 245 11                # GCD.c:245:11
	paddq	%xmm0, %xmm4
	movdqa	%xmm4, %xmm3
	movl	$4, %ebp
	movdqa	%xmm1, %xmm2
	jmp	.LBB2_15
.Ltmp79:
	.p2align	4, 0x90
.LBB2_9:                                #   in Loop: Header=BB2_3 Depth=1
	#DEBUG_VALUE: gcd_cached:a <- %R9
	xorl	%eax, %eax
	jmp	.LBB2_10
.Ltmp80:
.LBB2_13:                               #   in Loop: Header=BB2_3 Depth=1
	#DEBUG_VALUE: gcd_cached:a <- %R9
                                        # implicit-def: %XMM3
	xorl	%ebp, %ebp
.Ltmp81:
.LBB2_15:                               # %vector.ph.split
                                        #   in Loop: Header=BB2_3 Depth=1
	#DEBUG_VALUE: gcd_cached:a <- %R9
	cmpq	$0, 32(%rsp)            # 8-byte Folded Reload
	movdqa	%xmm1, %xmm5
	je	.LBB2_17
.Ltmp82:
	.p2align	4, 0x90
.LBB2_16:                               # %vector.body
                                        #   Parent Loop BB2_3 Depth=1
                                        # =>  This Inner Loop Header: Depth=2
	movd	%rbp, %xmm3
	pshufd	$68, %xmm3, %xmm5       # xmm5 = xmm3[0,1,0,1]
	movd	%r11, %xmm3
	pslldq	$8, %xmm3               # xmm3 = zero,zero,zero,zero,zero,zero,zero,zero,xmm3[0,1,2,3,4,5,6,7]
	movdqa	%xmm5, %xmm6
	paddq	%xmm3, %xmm6
	paddq	%xmm1, %xmm5
	.loc	1 237 14                # GCD.c:237:14
	movdqu	%xmm6, (%r14,%rbp,8)
	movdqu	%xmm5, 16(%r14,%rbp,8)
	.loc	1 245 11                # GCD.c:245:11
	paddq	%xmm4, %xmm6
	paddq	%xmm2, %xmm5
.Ltmp83:
	.loc	1 129 2                 # GCD.c:129:2
	leaq	4(%rbp), %rax
	movd	%rax, %xmm2
	pshufd	$68, %xmm2, %xmm2       # xmm2 = xmm2[0,1,0,1]
	paddq	%xmm2, %xmm3
	paddq	%xmm1, %xmm2
.Ltmp84:
	.loc	1 237 14                # GCD.c:237:14
	movdqu	%xmm3, 32(%r14,%rbp,8)
	movdqu	%xmm2, 48(%r14,%rbp,8)
	.loc	1 245 11                # GCD.c:245:11
	paddq	%xmm6, %xmm3
	paddq	%xmm5, %xmm2
.Ltmp85:
	.loc	1 129 2                 # GCD.c:129:2
	addq	$8, %rbp
	cmpq	%rcx, %rbp
	movdqa	%xmm3, %xmm4
	movdqa	%xmm2, %xmm5
	jne	.LBB2_16
.LBB2_17:                               # %middle.block
                                        #   in Loop: Header=BB2_3 Depth=1
	cmpq	%rcx, %rbx
.Ltmp86:
	.loc	1 245 11                # GCD.c:245:11
	paddq	%xmm3, %xmm5
	pshufd	$78, %xmm5, %xmm2       # xmm2 = xmm5[2,3,0,1]
	paddq	%xmm5, %xmm2
	movd	%xmm2, %rbp
	movq	%rcx, %rax
	je	.LBB2_18
	.p2align	4, 0x90
.LBB2_10:                               # %if.end29.us.us
                                        #   Parent Loop BB2_3 Depth=1
                                        # =>  This Inner Loop Header: Depth=2
	#DEBUG_VALUE: main:gcds_has_ownership <- 1
.Ltmp87:
	#DEBUG_VALUE: main:_22 <- %RAX
	#DEBUG_VALUE: gcd_cached:gcds_has_ownership [bit_piece offset=0 size=1] <- 0
	#DEBUG_VALUE: gcd_cached:_4 <- 0
	#DEBUG_VALUE: gcd_cached:_5 <- 0
	#DEBUG_VALUE: gcd_cached:_6 <- 0
	#DEBUG_VALUE: gcd_cached:_7 <- 0
	#DEBUG_VALUE: gcd_cached:_8 <- 0
	#DEBUG_VALUE: gcd_cached:_9 <- 0
	#DEBUG_VALUE: gcd_cached:_10 <- 0
	#DEBUG_VALUE: gcd_cached:_11 <- 0
	.loc	1 237 14                # GCD.c:237:14
	movq	%rax, (%r14,%rax,8)
	.loc	1 245 11                # GCD.c:245:11
	addq	%rax, %rbp
	#DEBUG_VALUE: main:_29 <- 1
.Ltmp88:
	#DEBUG_VALUE: main:_28 <- %RBP
	#DEBUG_VALUE: main:sum <- %RBP
	.loc	1 251 9                 # GCD.c:251:9
	incq	%rax
.Ltmp89:
	#DEBUG_VALUE: main:_30 <- %RAX
	#DEBUG_VALUE: main:j <- %RAX
	.loc	1 228 7                 # GCD.c:228:7
	cmpq	%rax, %rbx
	jne	.LBB2_10
.Ltmp90:
.LBB2_18:                               # %blklab16.loopexit.us
                                        #   in Loop: Header=BB2_3 Depth=1
	#DEBUG_VALUE: main:_31 <- 1
	.loc	1 262 8                 # GCD.c:262:8
	incq	%r9
.Ltmp91:
	#DEBUG_VALUE: main:_32 <- %R9
	#DEBUG_VALUE: main:i <- %R9
	.loc	1 220 6                 # GCD.c:220:6
	addq	%r10, %r14
	cmpq	%rbx, %r9
	jne	.LBB2_3
.Ltmp92:
.LBB2_19:                               # %if.then86
	#DEBUG_VALUE: main:_35_size <- 5
	.loc	1 274 2                 # GCD.c:274:2
	movl	$40, %edi
	callq	malloc
	movq	%rax, %rbx
.Ltmp93:
	#DEBUG_VALUE: main:_35 <- %RBX
	.loc	1 275 9                 # GCD.c:275:9
	movaps	.LCPI2_3(%rip), %xmm0   # xmm0 = [83,117]
	movups	%xmm0, (%rbx)
	.loc	1 275 36 is_stmt 0      # GCD.c:275:36
	movaps	.LCPI2_4(%rip), %xmm0   # xmm0 = [109,58]
	movups	%xmm0, 16(%rbx)
	.loc	1 275 63                # GCD.c:275:63
	movq	$32, 32(%rbx)
.Ltmp94:
	#DEBUG_VALUE: main:_35_has_ownership <- 1
	.loc	1 278 2 is_stmt 1       # GCD.c:278:2
	movl	$5, %esi
	movq	%rbx, %rdi
	callq	printf_s
	.loc	1 282 2                 # GCD.c:282:2
	movl	$.L.str.1, %edi
	xorl	%eax, %eax
	movq	%rbp, %rsi
	callq	printf
.Ltmp95:
	#DEBUG_VALUE: main:_40_size <- 32
	.loc	1 287 2                 # GCD.c:287:2
	movl	$256, %edi              # imm = 0x100
	callq	malloc
	movq	%rax, %rbp
.Ltmp96:
	#DEBUG_VALUE: main:_40 <- %RBP
	.loc	1 288 9                 # GCD.c:288:9
	movaps	.LCPI2_5(%rip), %xmm0   # xmm0 = [80,97]
	movups	%xmm0, (%rbp)
	.loc	1 288 35 is_stmt 0      # GCD.c:288:35
	movaps	.LCPI2_6(%rip), %xmm0   # xmm0 = [115,115]
	movups	%xmm0, 16(%rbp)
	.loc	1 288 63                # GCD.c:288:63
	movaps	.LCPI2_7(%rip), %xmm0   # xmm0 = [32,99]
	movups	%xmm0, 32(%rbp)
	.loc	1 288 89                # GCD.c:288:89
	movaps	.LCPI2_8(%rip), %xmm0   # xmm0 = [97,99]
	movups	%xmm0, 48(%rbp)
	.loc	1 288 115               # GCD.c:288:115
	movaps	.LCPI2_9(%rip), %xmm0   # xmm0 = [104,101]
	movups	%xmm0, 64(%rbp)
	.loc	1 288 144               # GCD.c:288:144
	movaps	.LCPI2_10(%rip), %xmm0  # xmm0 = [100,32]
	movups	%xmm0, 80(%rbp)
	.loc	1 288 173               # GCD.c:288:173
	movaps	.LCPI2_11(%rip), %xmm0  # xmm0 = [69,117]
	movups	%xmm0, 96(%rbp)
	.loc	1 288 202               # GCD.c:288:202
	movaps	.LCPI2_12(%rip), %xmm0  # xmm0 = [99,108]
	movups	%xmm0, 112(%rbp)
	.loc	1 288 231               # GCD.c:288:231
	movaps	.LCPI2_13(%rip), %xmm0  # xmm0 = [105,100]
	movups	%xmm0, 128(%rbp)
	.loc	1 288 261               # GCD.c:288:261
	movaps	.LCPI2_14(%rip), %xmm0  # xmm0 = [32,71]
	movups	%xmm0, 144(%rbp)
	.loc	1 288 289               # GCD.c:288:289
	movaps	.LCPI2_15(%rip), %xmm0  # xmm0 = [67,68]
	movups	%xmm0, 160(%rbp)
	.loc	1 288 317               # GCD.c:288:317
	movaps	.LCPI2_16(%rip), %xmm0  # xmm0 = [32,116]
	movups	%xmm0, 176(%rbp)
	.loc	1 288 346               # GCD.c:288:346
	movaps	.LCPI2_17(%rip), %xmm0  # xmm0 = [101,115]
	movups	%xmm0, 192(%rbp)
	.loc	1 288 376               # GCD.c:288:376
	movaps	.LCPI2_18(%rip), %xmm0  # xmm0 = [116,32]
	movups	%xmm0, 208(%rbp)
	.loc	1 288 405               # GCD.c:288:405
	movaps	.LCPI2_19(%rip), %xmm0  # xmm0 = [99,97]
	movups	%xmm0, 224(%rbp)
	.loc	1 288 433               # GCD.c:288:433
	movaps	.LCPI2_20(%rip), %xmm0  # xmm0 = [115,101]
	movups	%xmm0, 240(%rbp)
.Ltmp97:
	#DEBUG_VALUE: main:_40_has_ownership <- 1
	.loc	1 291 2 is_stmt 1       # GCD.c:291:2
	movl	$32, %esi
	movq	%rbp, %rdi
	callq	println_s
.Ltmp98:
	.loc	1 295 2 discriminator 1 # GCD.c:295:2
	movq	%r13, %rdi
	callq	free
.Ltmp99:
	#DEBUG_VALUE: main:gcds_has_ownership <- 0
	.loc	1 296 2 discriminator 1 # GCD.c:296:2
	movq	(%rsp), %rdi            # 8-byte Reload
	movq	16(%rsp), %rsi          # 8-byte Reload
	callq	free2DArray
.Ltmp100:
	#DEBUG_VALUE: main:_8_has_ownership <- 0
	.loc	1 298 2 discriminator 1 # GCD.c:298:2
	movq	8(%rsp), %rdi           # 8-byte Reload
	callq	free
.Ltmp101:
	#DEBUG_VALUE: main:_13_has_ownership <- 0
	.loc	1 300 2 discriminator 1 # GCD.c:300:2
	movq	%rbx, %rdi
	callq	free
.Ltmp102:
	#DEBUG_VALUE: main:_35_has_ownership <- 0
	.loc	1 301 2 discriminator 1 # GCD.c:301:2
	movq	%rbp, %rdi
	callq	free
.Ltmp103:
	#DEBUG_VALUE: main:_40_has_ownership <- 0
	.loc	1 302 2                 # GCD.c:302:2
	xorl	%edi, %edi
	callq	exit
.Ltmp104:
.LBB2_20:                               # %if.end105.critedge
	#DEBUG_VALUE: main:_7 <- %RAX
	#DEBUG_VALUE: main:max <- %RAX
	#DEBUG_VALUE: main:_8_size <- %EBX
	.loc	1 296 2 discriminator 1 # GCD.c:296:2
	movq	(%rsp), %rdi            # 8-byte Reload
	movq	16(%rsp), %rsi          # 8-byte Reload
	callq	free2DArray
.Ltmp105:
	#DEBUG_VALUE: main:_8_has_ownership <- 0
	.loc	1 302 2                 # GCD.c:302:2
	xorl	%edi, %edi
	callq	exit
.Ltmp106:
.Lfunc_end2:
	.size	main, .Lfunc_end2-main
	.cfi_endproc

	.type	.L.str,@object          # @.str
	.section	.rodata.str1.1,"aMS",@progbits,1
.L.str:
	.asciz	"fail"
	.size	.L.str, 5

	.type	.L.str.1,@object        # @.str.1
.L.str.1:
	.asciz	"%lld\n"
	.size	.L.str.1, 6

	.section	".note.GNU-stack","",@progbits