	.text
	.file	"MatrixMult.openmp.disablevc.ll"
	.globl	init
	.p2align	4, 0x90
	.type	init,@function
init:                                   # @init
.Lfunc_begin0:
	.file	1 "MatrixMult.c"
	.loc	1 12 0                  # MatrixMult.c:12:0
	.cfi_startproc
# BB#0:                                 # %entry
	pushq	%rbp
.Ltmp0:
	.cfi_def_cfa_offset 16
	pushq	%r15
.Ltmp1:
	.cfi_def_cfa_offset 24
	pushq	%r14
.Ltmp2:
	.cfi_def_cfa_offset 32
	pushq	%r13
.Ltmp3:
	.cfi_def_cfa_offset 40
	pushq	%r12
.Ltmp4:
	.cfi_def_cfa_offset 48
	pushq	%rbx
.Ltmp5:
	.cfi_def_cfa_offset 56
	subq	$56, %rsp
.Ltmp6:
	.cfi_def_cfa_offset 112
.Ltmp7:
	.cfi_offset %rbx, -56
.Ltmp8:
	.cfi_offset %r12, -48
.Ltmp9:
	.cfi_offset %r13, -40
.Ltmp10:
	.cfi_offset %r14, -32
.Ltmp11:
	.cfi_offset %r15, -24
.Ltmp12:
	.cfi_offset %rbp, -16
	#DEBUG_VALUE: init:width <- %EDI
	#DEBUG_VALUE: init:height <- %ESI
	movq	%rsi, (%rsp)            # 8-byte Spill
.Ltmp13:
	.loc	1 25 60 prologue_end    # MatrixMult.c:25:60
	movq	%rdi, 8(%rsp)           # 8-byte Spill
	movslq	%edi, %rbp
.Ltmp14:
	#DEBUG_VALUE: init:width <- [%RSP+8]
	.loc	1 25 59 is_stmt 0       # MatrixMult.c:25:59
	leaq	(,%rbp,8), %r12
	.loc	1 25 66                 # MatrixMult.c:25:66
	movslq	%esi, %rbx
	.loc	1 25 65                 # MatrixMult.c:25:65
	movq	%rbx, 32(%rsp)          # 8-byte Spill
.Ltmp15:
	#DEBUG_VALUE: init:height <- [%RSP+0]
	movq	%r12, %rdi
	imulq	%rbx, %rdi
	.loc	1 25 35 discriminator 1 # MatrixMult.c:25:35
	callq	malloc
.Ltmp16:
	movq	%rax, 16(%rsp)          # 8-byte Spill
.Ltmp17:
	#DEBUG_VALUE: init:i <- 0
	.loc	1 27 5 is_stmt 1 discriminator 1 # MatrixMult.c:27:5
	testl	%ebx, %ebx
	jle	.LBB0_8
# BB#1:                                 # %entry
	movq	8(%rsp), %rax           # 8-byte Reload
	testl	%eax, %eax
	jle	.LBB0_8
# BB#2:                                 # %for.body7.preheader.us.preheader
	movq	%rbp, 24(%rsp)          # 8-byte Spill
.Ltmp18:
	.loc	1 29 19                 # MatrixMult.c:29:19
	movq	8(%rsp), %rax           # 8-byte Reload
	leal	-1(%rax), %eax
	leaq	8(,%rax,8), %r14
	movq	(%rsp), %rax            # 8-byte Reload
	leal	-1(%rax), %r15d
	xorl	%ebx, %ebx
	testb	$7, %al
	je	.LBB0_5
# BB#3:                                 # %for.body7.preheader.us.prol.preheader
	movq	(%rsp), %r13            # 8-byte Reload
	andl	$7, %r13d
	xorl	%ebx, %ebx
	movq	16(%rsp), %rbp          # 8-byte Reload
	.p2align	4, 0x90
.LBB0_4:                                # %for.body7.preheader.us.prol
                                        # =>This Inner Loop Header: Depth=1
	.loc	1 29 29 is_stmt 0       # MatrixMult.c:29:29
	xorl	%esi, %esi
	movq	%rbp, %rdi
	movq	%r14, %rdx
	callq	memset
.Ltmp19:
	.loc	1 27 5 is_stmt 1 discriminator 1 # MatrixMult.c:27:5
	incq	%rbx
	addq	%r12, %rbp
	cmpl	%ebx, %r13d
	jne	.LBB0_4
.LBB0_5:                                # %for.body7.preheader.us.preheader.split
.Ltmp20:
	.loc	1 29 19                 # MatrixMult.c:29:19
	cmpl	$7, %r15d
	movq	24(%rsp), %rbp          # 8-byte Reload
	jb	.LBB0_8
# BB#6:                                 # %for.body7.preheader.us.preheader.split.split
	movq	(%rsp), %rax            # 8-byte Reload
	movl	%eax, %r13d
	subl	%ebx, %r13d
	imulq	%rbp, %rbx
	movq	16(%rsp), %rax          # 8-byte Reload
	leaq	(%rax,%rbx,8), %rbx
	shlq	$6, %rbp
	.p2align	4, 0x90
.LBB0_7:                                # %for.body7.preheader.us
                                        # =>This Inner Loop Header: Depth=1
	.loc	1 29 29 is_stmt 0       # MatrixMult.c:29:29
	xorl	%esi, %esi
	movq	%rbx, %rdi
	movq	%r14, %rdx
	callq	memset
	leaq	(%rbx,%r12), %r15
	xorl	%esi, %esi
	movq	%r15, %rdi
	movq	%r14, %rdx
	callq	memset
	addq	%r12, %r15
	xorl	%esi, %esi
	movq	%r15, %rdi
	movq	%r14, %rdx
	callq	memset
	addq	%r12, %r15
	xorl	%esi, %esi
	movq	%r15, %rdi
	movq	%r14, %rdx
	callq	memset
	addq	%r12, %r15
	xorl	%esi, %esi
	movq	%r15, %rdi
	movq	%r14, %rdx
	callq	memset
	addq	%r12, %r15
	xorl	%esi, %esi
	movq	%r15, %rdi
	movq	%r14, %rdx
	callq	memset
	addq	%r12, %r15
	xorl	%esi, %esi
	movq	%r15, %rdi
	movq	%r14, %rdx
	callq	memset
	addq	%r12, %r15
	xorl	%esi, %esi
	movq	%r15, %rdi
	movq	%r14, %rdx
	callq	memset
.Ltmp21:
	.loc	1 27 5 is_stmt 1 discriminator 1 # MatrixMult.c:27:5
	addq	%rbp, %rbx
	addl	$-8, %r13d
	jne	.LBB0_7
.Ltmp22:
.LBB0_8:                                # %polly.parallel.for
	movq	32(%rsp), %r8           # 8-byte Reload
	decq	%r8
	sarq	$5, %r8
	movq	(%rsp), %r15            # 8-byte Reload
	movl	%r15d, 40(%rsp)
	movq	8(%rsp), %rbx           # 8-byte Reload
	movl	%ebx, 44(%rsp)
	movq	16(%rsp), %rbp          # 8-byte Reload
	movq	%rbp, 48(%rsp)
	incq	%r8
	leaq	40(%rsp), %r14
	movl	$init_polly_subfn, %edi
	xorl	%edx, %edx
	xorl	%ecx, %ecx
	movl	$1, %r9d
	movq	%r14, %rsi
	callq	GOMP_parallel_loop_runtime_start
	movq	%r14, %rdi
	callq	init_polly_subfn
	callq	GOMP_parallel_end
	.loc	1 39 17 discriminator 1 # MatrixMult.c:39:17
	movl	$16, %edi
	callq	malloc
.Ltmp23:
	#DEBUG_VALUE: init:m <- %RAX
	.loc	1 40 13                 # MatrixMult.c:40:13
	movq	%rbp, (%rax)
	.loc	1 41 14                 # MatrixMult.c:41:14
	movl	%ebx, 8(%rax)
	.loc	1 42 15                 # MatrixMult.c:42:15
	movl	%r15d, 12(%rax)
	.loc	1 44 5                  # MatrixMult.c:44:5
	addq	$56, %rsp
	popq	%rbx
	popq	%r12
	popq	%r13
	popq	%r14
	popq	%r15
	popq	%rbp
	retq
.Ltmp24:
.Lfunc_end0:
	.size	init, .Lfunc_end0-init
	.cfi_endproc

	.globl	mat_mult
	.p2align	4, 0x90
	.type	mat_mult,@function
mat_mult:                               # @mat_mult
.Lfunc_begin1:
	.loc	1 47 0                  # MatrixMult.c:47:0
	.cfi_startproc
# BB#0:                                 # %entry
	.loc	1 54 49 prologue_end    # MatrixMult.c:54:49
	pushq	%rbp
.Ltmp25:
	.cfi_def_cfa_offset 16
	pushq	%r15
.Ltmp26:
	.cfi_def_cfa_offset 24
	pushq	%r14
.Ltmp27:
	.cfi_def_cfa_offset 32
	pushq	%r13
.Ltmp28:
	.cfi_def_cfa_offset 40
	pushq	%r12
.Ltmp29:
	.cfi_def_cfa_offset 48
	pushq	%rbx
.Ltmp30:
	.cfi_def_cfa_offset 56
	subq	$72, %rsp
.Ltmp31:
	.cfi_def_cfa_offset 128
.Ltmp32:
	.cfi_offset %rbx, -56
.Ltmp33:
	.cfi_offset %r12, -48
.Ltmp34:
	.cfi_offset %r13, -40
.Ltmp35:
	.cfi_offset %r14, -32
.Ltmp36:
	.cfi_offset %r15, -24
.Ltmp37:
	.cfi_offset %rbp, -16
	#DEBUG_VALUE: mat_mult:a <- %RDI
	#DEBUG_VALUE: mat_mult:b <- %RSI
	movslq	8(%rsi), %r12
	.loc	1 50 21                 # MatrixMult.c:50:21
	movl	12(%rdi), %eax
.Ltmp38:
	#DEBUG_VALUE: mat_mult:height <- %EAX
	.loc	1 52 17                 # MatrixMult.c:52:17
	movl	%eax, 4(%rsp)           # 4-byte Spill
	movq	(%rdi), %r15
.Ltmp39:
	#DEBUG_VALUE: mat_mult:a_data <- %R15
	.loc	1 53 17                 # MatrixMult.c:53:17
	movq	(%rsi), %r13
.Ltmp40:
	#DEBUG_VALUE: mat_mult:b_data <- %R13
	.loc	1 54 55                 # MatrixMult.c:54:55
	movslq	%eax, %rbp
.Ltmp41:
	#DEBUG_VALUE: mat_mult:height <- [%RSP+4]
	.loc	1 54 54 is_stmt 0       # MatrixMult.c:54:54
	movq	%r12, %rdi
.Ltmp42:
	imulq	%rbp, %rdi
	shlq	$3, %rdi
	.loc	1 54 24                 # MatrixMult.c:54:24
	callq	malloc
.Ltmp43:
	movq	%rax, %rbx
	.loc	1 49 20 is_stmt 1       # MatrixMult.c:49:20
	testq	%r12, %r12
.Ltmp44:
	#DEBUG_VALUE: mat_mult:i <- 0
	jle	.LBB1_14
.Ltmp45:
# BB#1:                                 # %for.cond8.preheader.lr.ph
	#DEBUG_VALUE: mat_mult:b_data <- %R13
	#DEBUG_VALUE: mat_mult:a_data <- %R15
	#DEBUG_VALUE: mat_mult:b <- %RSI
	leaq	-1(%r12), %r14
	movq	%r14, %rcx
	imulq	%r12, %rcx
	addq	%rbp, %rcx
	movq	%r13, 8(%rsp)           # 8-byte Spill
	leaq	(%r13,%rcx,8), %rax
	cmpq	%rbx, %rax
	setbe	%al
	leaq	(%rbx,%rcx,8), %rdx
	cmpq	%r13, %rdx
	setbe	%dil
	movq	%r12, %rsi
.Ltmp46:
	imulq	%rsi, %rsi
	movq	%r15, 16(%rsp)          # 8-byte Spill
	leaq	(%r15,%rsi,8), %rsi
	cmpq	%rbx, %rsi
	setbe	%cl
	cmpq	%r15, %rdx
	setbe	%dl
	orb	%cl, %dl
	movzbl	%dl, %ecx
	cmpl	$1, %ecx
	jne	.LBB1_4
.Ltmp47:
# BB#2:                                 # %for.cond8.preheader.lr.ph
	#DEBUG_VALUE: mat_mult:a_data <- %R15
	#DEBUG_VALUE: mat_mult:b_data <- %R13
	cmpl	4(%rsp), %r12d          # 4-byte Folded Reload
	jl	.LBB1_4
.Ltmp48:
# BB#3:                                 # %for.cond8.preheader.lr.ph
	#DEBUG_VALUE: mat_mult:b_data <- %R13
	#DEBUG_VALUE: mat_mult:a_data <- %R15
	orb	%dil, %al
	je	.LBB1_4
.Ltmp49:
# BB#15:                                # %polly.parallel.for
	#DEBUG_VALUE: mat_mult:a_data <- %R15
	#DEBUG_VALUE: mat_mult:b_data <- %R13
	sarq	$5, %r14
	movl	4(%rsp), %ebp           # 4-byte Reload
	movl	%ebp, 32(%rsp)
	movl	%r12d, 36(%rsp)
	movq	%rbx, 40(%rsp)
	incq	%r14
	leaq	32(%rsp), %r15
.Ltmp50:
	movl	$mat_mult_polly_subfn, %edi
	xorl	%edx, %edx
	xorl	%ecx, %ecx
	movl	$1, %r9d
	movq	%r15, %rsi
	movq	%r14, %r8
	callq	GOMP_parallel_loop_runtime_start
	movq	%r15, %rdi
	callq	mat_mult_polly_subfn
	callq	GOMP_parallel_end
	movl	%ebp, 32(%rsp)
	movl	%r12d, 36(%rsp)
	movq	%rbx, 40(%rsp)
	movq	16(%rsp), %rax          # 8-byte Reload
	movq	%rax, 48(%rsp)
	movq	8(%rsp), %rax           # 8-byte Reload
	movq	%rax, 56(%rsp)
	leaq	32(%rsp), %r15
	movl	$mat_mult_polly_subfn_4, %edi
	xorl	%edx, %edx
	xorl	%ecx, %ecx
	movl	$1, %r9d
	movq	%r15, %rsi
	movq	%r14, %r8
	callq	GOMP_parallel_loop_runtime_start
	movq	%r15, %rdi
	callq	mat_mult_polly_subfn_4
	callq	GOMP_parallel_end
	jmp	.LBB1_14
.Ltmp51:
.LBB1_4:                                # %for.cond8.preheader.preheader
	#DEBUG_VALUE: mat_mult:a_data <- %R15
	#DEBUG_VALUE: mat_mult:b_data <- %R13
	.loc	1 57 9 discriminator 1  # MatrixMult.c:57:9
	cmpl	$0, 4(%rsp)             # 4-byte Folded Reload
	jle	.LBB1_14
.Ltmp52:
# BB#5:                                 # %for.body11.preheader.us.preheader
	#DEBUG_VALUE: mat_mult:b_data <- %R13
	#DEBUG_VALUE: mat_mult:a_data <- %R15
	.loc	1 59 13 discriminator 1 # MatrixMult.c:59:13
	movl	%r12d, %ebp
	andl	$1, %ebp
.Ltmp53:
	.loc	1 58 19                 # MatrixMult.c:58:19
	leaq	(%r12,%r12), %rcx
	xorl	%eax, %eax
	movq	%rax, 24(%rsp)          # 8-byte Spill
	xorl	%eax, %eax
.Ltmp54:
	.p2align	4, 0x90
.LBB1_6:                                # %for.body11.preheader.us
                                        # =>This Loop Header: Depth=1
                                        #     Child Loop BB1_7 Depth 2
                                        #       Child Loop BB1_11 Depth 3
	movq	%rax, 64(%rsp)          # 8-byte Spill
	movq	%rax, %r11
	imulq	%r12, %r11
	movq	8(%rsp), %r9            # 8-byte Reload
	xorl	%r10d, %r10d
	.p2align	4, 0x90
.LBB1_7:                                # %for.body11.us
                                        #   Parent Loop BB1_6 Depth=1
                                        # =>  This Loop Header: Depth=2
                                        #       Child Loop BB1_11 Depth 3
	.loc	1 58 25 is_stmt 0       # MatrixMult.c:58:25
	leaq	(%r10,%r11), %rdx
	testl	%ebp, %ebp
	.loc	1 58 29                 # MatrixMult.c:58:29
	movq	$0, (%rbx,%rdx,8)
.Ltmp55:
	#DEBUG_VALUE: mat_mult:k <- 0
	movl	$0, %eax
	movl	$0, %r14d
	je	.LBB1_9
# BB#8:                                 # %for.body16.us.prol
                                        #   in Loop: Header=BB1_7 Depth=2
.Ltmp56:
	.loc	1 60 73 is_stmt 1       # MatrixMult.c:60:73
	movq	8(%rsp), %rax           # 8-byte Reload
	movq	(%rax,%r10,8), %rax
	.loc	1 60 71 is_stmt 0       # MatrixMult.c:60:71
	movq	16(%rsp), %rsi          # 8-byte Reload
	imulq	(%rsi,%r11,8), %rax
	.loc	1 60 33                 # MatrixMult.c:60:33
	movq	%rax, (%rbx,%rdx,8)
	movl	$1, %r14d
.LBB1_9:                                # %for.body11.us.split
                                        #   in Loop: Header=BB1_7 Depth=2
	cmpl	$1, %r12d
	je	.LBB1_12
# BB#10:                                # %for.body11.us.split.split
                                        #   in Loop: Header=BB1_7 Depth=2
	.loc	1 59 13 is_stmt 1 discriminator 1 # MatrixMult.c:59:13
	movl	%r12d, %edi
	subl	%r14d, %edi
	movl	%ebp, %r13d
	leaq	1(%r14), %rbp
	imulq	%r12, %rbp
	leaq	(%r9,%rbp,8), %r8
	movq	24(%rsp), %rsi          # 8-byte Reload
	leaq	(%rsi,%r14), %rbp
	movq	16(%rsp), %rsi          # 8-byte Reload
	leaq	(%rsi,%rbp,8), %r15
	movl	%r13d, %ebp
	imulq	%r12, %r14
	leaq	(%r9,%r14,8), %r13
	.loc	1 60 35                 # MatrixMult.c:60:35
	xorl	%r14d, %r14d
	.p2align	4, 0x90
.LBB1_11:                               # %for.body16.us
                                        #   Parent Loop BB1_6 Depth=1
                                        #     Parent Loop BB1_7 Depth=2
                                        # =>    This Inner Loop Header: Depth=3
	.loc	1 60 73 is_stmt 0       # MatrixMult.c:60:73
	movq	(%r13,%r14,8), %rsi
	.loc	1 60 71                 # MatrixMult.c:60:71
	imulq	(%r15), %rsi
	.loc	1 60 51                 # MatrixMult.c:60:51
	addq	%rax, %rsi
	.loc	1 60 33                 # MatrixMult.c:60:33
	movq	%rsi, (%rbx,%rdx,8)
	.loc	1 60 73                 # MatrixMult.c:60:73
	movq	(%r8,%r14,8), %rax
	.loc	1 60 71                 # MatrixMult.c:60:71
	imulq	8(%r15), %rax
	.loc	1 60 51                 # MatrixMult.c:60:51
	addq	%rsi, %rax
	.loc	1 60 33                 # MatrixMult.c:60:33
	movq	%rax, (%rbx,%rdx,8)
	.loc	1 59 13 is_stmt 1 discriminator 1 # MatrixMult.c:59:13
	addq	%rcx, %r14
	addq	$16, %r15
	addl	$-2, %edi
	jne	.LBB1_11
.Ltmp57:
.LBB1_12:                               # %for.inc35.us
                                        #   in Loop: Header=BB1_7 Depth=2
	.loc	1 57 9 discriminator 1  # MatrixMult.c:57:9
	incq	%r10
	addq	$8, %r9
	cmpl	4(%rsp), %r10d          # 4-byte Folded Reload
	jne	.LBB1_7
.Ltmp58:
# BB#13:                                # %for.inc38.loopexit.us
                                        #   in Loop: Header=BB1_6 Depth=1
	movq	64(%rsp), %rax          # 8-byte Reload
	.loc	1 56 5 discriminator 1  # MatrixMult.c:56:5
	incq	%rax
	addq	%r12, 24(%rsp)          # 8-byte Folded Spill
	cmpl	%r12d, %eax
	jne	.LBB1_6
.Ltmp59:
.LBB1_14:                               # %for.end40
	.loc	1 64 17 discriminator 1 # MatrixMult.c:64:17
	movl	$16, %edi
	callq	malloc
.Ltmp60:
	#DEBUG_VALUE: mat_mult:m <- %RAX
	.loc	1 65 14                 # MatrixMult.c:65:14
	movl	%r12d, 8(%rax)
	.loc	1 66 15                 # MatrixMult.c:66:15
	movl	4(%rsp), %ecx           # 4-byte Reload
	movl	%ecx, 12(%rax)
	.loc	1 67 13                 # MatrixMult.c:67:13
	movq	%rbx, (%rax)
	.loc	1 68 5                  # MatrixMult.c:68:5
	addq	$72, %rsp
	popq	%rbx
	popq	%r12
	popq	%r13
	popq	%r14
	popq	%r15
	popq	%rbp
	retq
.Ltmp61:
.Lfunc_end1:
	.size	mat_mult, .Lfunc_end1-mat_mult
	.cfi_endproc

	.globl	main
	.p2align	4, 0x90
	.type	main,@function
main:                                   # @main
.Lfunc_begin2:
	.loc	1 73 0                  # MatrixMult.c:73:0
	.cfi_startproc
# BB#0:                                 # %entry
	.loc	1 76 12 prologue_end    # MatrixMult.c:76:12
	pushq	%r15
.Ltmp62:
	.cfi_def_cfa_offset 16
	pushq	%r14
.Ltmp63:
	.cfi_def_cfa_offset 24
	pushq	%rbx
.Ltmp64:
	.cfi_def_cfa_offset 32
	subq	$64, %rsp
.Ltmp65:
	.cfi_def_cfa_offset 96
.Ltmp66:
	.cfi_offset %rbx, -32
.Ltmp67:
	.cfi_offset %r14, -24
.Ltmp68:
	.cfi_offset %r15, -16
	#DEBUG_VALUE: main:argc <- %EDI
	#DEBUG_VALUE: main:args <- %RSI
	movq	8(%rsi), %rdi
.Ltmp69:
	leaq	60(%rsp), %rdx
.Ltmp70:
	#DEBUG_VALUE: main:max <- [%RDX+0]
	.loc	1 76 5 is_stmt 0        # MatrixMult.c:76:5
	movl	$.L.str, %esi
.Ltmp71:
	xorl	%eax, %eax
	callq	__isoc99_sscanf
	.loc	1 77 24 is_stmt 1       # MatrixMult.c:77:24
	movl	60(%rsp), %esi
.Ltmp72:
	#DEBUG_VALUE: main:max <- %ESI
	.loc	1 77 5 is_stmt 0        # MatrixMult.c:77:5
	movl	$.L.str.1, %edi
	xorl	%eax, %eax
	callq	printf
	.loc	1 79 22 is_stmt 1       # MatrixMult.c:79:22
	movl	60(%rsp), %edi
.Ltmp73:
	#DEBUG_VALUE: main:max <- %EDI
	.loc	1 79 17 is_stmt 0 discriminator 1 # MatrixMult.c:79:17
	movl	%edi, %esi
	callq	init
	movq	%rax, %r14
.Ltmp74:
	#DEBUG_VALUE: main:a <- %R14
	.loc	1 80 22 is_stmt 1       # MatrixMult.c:80:22
	movl	60(%rsp), %edi
.Ltmp75:
	#DEBUG_VALUE: main:max <- %EDI
	.loc	1 80 17 is_stmt 0 discriminator 1 # MatrixMult.c:80:17
	movl	%edi, %esi
	callq	init
	movq	%rax, %rbx
.Ltmp76:
	#DEBUG_VALUE: main:b <- %RBX
	.loc	1 82 17 is_stmt 1 discriminator 1 # MatrixMult.c:82:17
	movq	%r14, %rdi
.Ltmp77:
	movq	%rbx, %rsi
	callq	mat_mult
	movq	%rax, %r15
.Ltmp78:
	#DEBUG_VALUE: main:c <- %R15
	.loc	1 84 48                 # MatrixMult.c:84:48
	movl	60(%rsp), %esi
.Ltmp79:
	#DEBUG_VALUE: main:max <- %ESI
	.loc	1 84 5 is_stmt 0        # MatrixMult.c:84:5
	movl	$.L.str.2, %edi
	xorl	%eax, %eax
	movl	%esi, %edx
	callq	printf
	.loc	1 86 9 is_stmt 1        # MatrixMult.c:86:9
	movl	60(%rsp), %edx
.Ltmp80:
	#DEBUG_VALUE: main:max <- %EDX
	.loc	1 86 12 is_stmt 0       # MatrixMult.c:86:12
	leal	-1(%rdx), %esi
	.loc	1 86 47                 # MatrixMult.c:86:47
	movl	%edx, %eax
	imull	%eax, %eax
	.loc	1 86 28                 # MatrixMult.c:86:28
	cltq
	.loc	1 86 31                 # MatrixMult.c:86:31
	movq	(%r14), %rcx
	.loc	1 86 28                 # MatrixMult.c:86:28
	movq	-8(%rcx,%rax,8), %r8
	.loc	1 87 31 is_stmt 1       # MatrixMult.c:87:31
	movq	(%rbx), %rcx
	.loc	1 87 28 is_stmt 0       # MatrixMult.c:87:28
	movq	-8(%rcx,%rax,8), %rcx
	.loc	1 88 31 is_stmt 1       # MatrixMult.c:88:31
	movq	(%r15), %rdi
	.loc	1 88 28 is_stmt 0       # MatrixMult.c:88:28
	movq	-8(%rdi,%rax,8), %rax
	.loc	1 85 5 is_stmt 1        # MatrixMult.c:85:5
	movq	%rax, 48(%rsp)
	movl	%esi, 40(%rsp)
	movl	%edx, 32(%rsp)
	movl	%esi, 24(%rsp)
	movq	%rcx, 16(%rsp)
	movl	%esi, 8(%rsp)
	movl	%edx, (%rsp)
	movl	$.L.str.3, %edi
	xorl	%eax, %eax
	movl	%esi, %ecx
	movl	%esi, %r9d
	callq	printf
	.loc	1 89 5                  # MatrixMult.c:89:5
	xorl	%eax, %eax
	addq	$64, %rsp
	popq	%rbx
.Ltmp81:
	popq	%r14
.Ltmp82:
	popq	%r15
.Ltmp83:
	retq
.Ltmp84:
.Lfunc_end2:
	.size	main, .Lfunc_end2-main
	.cfi_endproc

	.p2align	4, 0x90
	.type	init_polly_subfn,@function
init_polly_subfn:                       # @init_polly_subfn
.Lfunc_begin3:
	.cfi_startproc
# BB#0:                                 # %polly.par.setup
	pushq	%rbp
.Ltmp85:
	.cfi_def_cfa_offset 16
	pushq	%r15
.Ltmp86:
	.cfi_def_cfa_offset 24
	pushq	%r14
.Ltmp87:
	.cfi_def_cfa_offset 32
	pushq	%r13
.Ltmp88:
	.cfi_def_cfa_offset 40
	pushq	%r12
.Ltmp89:
	.cfi_def_cfa_offset 48
	pushq	%rbx
.Ltmp90:
	.cfi_def_cfa_offset 56
	subq	$56, %rsp
.Ltmp91:
	.cfi_def_cfa_offset 112
.Ltmp92:
	.cfi_offset %rbx, -56
.Ltmp93:
	.cfi_offset %r12, -48
.Ltmp94:
	.cfi_offset %r13, -40
.Ltmp95:
	.cfi_offset %r14, -32
.Ltmp96:
	.cfi_offset %r15, -24
.Ltmp97:
	.cfi_offset %rbp, -16
	movslq	(%rdi), %rax
	movq	%rax, 40(%rsp)          # 8-byte Spill
	movslq	4(%rdi), %r13
	movq	8(%rdi), %rax
	movq	%rax, 32(%rsp)          # 8-byte Spill
	leaq	24(%rsp), %rdi
	leaq	16(%rsp), %rsi
	callq	GOMP_loop_runtime_next
	testb	%al, %al
	je	.LBB3_2
# BB#1:                                 # %polly.par.loadIVBounds.preheader
	leaq	-1(%r13), %r12
	sarq	$5, %r12
	movq	%r13, %rax
	shlq	$8, %rax
	movq	%rax, 8(%rsp)           # 8-byte Spill
	leaq	(,%r13,8), %r15
	.p2align	4, 0x90
.LBB3_4:                                # %polly.par.loadIVBounds
                                        # =>This Loop Header: Depth=1
                                        #     Child Loop BB3_5 Depth 2
                                        #       Child Loop BB3_8 Depth 3
                                        #         Child Loop BB3_10 Depth 4
                                        #           Child Loop BB3_11 Depth 5
	movq	16(%rsp), %rax
	movq	24(%rsp), %r10
	addq	$-2, %rax
	movq	%rax, 48(%rsp)          # 8-byte Spill
	movq	8(%rsp), %r9            # 8-byte Reload
	imulq	%r10, %r9
	addq	32(%rsp), %r9           # 8-byte Folded Reload
	.p2align	4, 0x90
.LBB3_5:                                # %polly.loop_header
                                        #   Parent Loop BB3_4 Depth=1
                                        # =>  This Loop Header: Depth=2
                                        #       Child Loop BB3_8 Depth 3
                                        #         Child Loop BB3_10 Depth 4
                                        #           Child Loop BB3_11 Depth 5
	testq	%r12, %r12
	js	.LBB3_14
# BB#6:                                 # %polly.loop_header2.preheader
                                        #   in Loop: Header=BB3_5 Depth=2
	movq	%r10, %rsi
	shlq	$5, %rsi
	movq	40(%rsp), %rdi          # 8-byte Reload
	subq	%rsi, %rdi
	decq	%rdi
	cmpq	$31, %rdi
	movl	$31, %eax
	cmovgq	%rax, %rdi
	testq	%rdi, %rdi
	js	.LBB3_14
# BB#7:                                 #   in Loop: Header=BB3_5 Depth=2
	decq	%rdi
	movq	%r9, %r11
	xorl	%edx, %edx
	.p2align	4, 0x90
.LBB3_8:                                # %polly.loop_header10.preheader.us
                                        #   Parent Loop BB3_4 Depth=1
                                        #     Parent Loop BB3_5 Depth=2
                                        # =>    This Loop Header: Depth=3
                                        #         Child Loop BB3_10 Depth 4
                                        #           Child Loop BB3_11 Depth 5
	movq	%rdx, %rax
	shlq	$5, %rax
	movq	%r13, %rbp
	subq	%rax, %rbp
	decq	%rbp
	cmpq	$31, %rbp
	movl	$31, %ecx
	cmovleq	%rbp, %rcx
	testq	%rcx, %rcx
	js	.LBB3_13
# BB#9:                                 #   in Loop: Header=BB3_8 Depth=3
	decq	%rcx
	movq	%r11, %r8
	xorl	%ebp, %ebp
	.p2align	4, 0x90
.LBB3_10:                               # %polly.loop_header19.preheader.us.us
                                        #   Parent Loop BB3_4 Depth=1
                                        #     Parent Loop BB3_5 Depth=2
                                        #       Parent Loop BB3_8 Depth=3
                                        # =>      This Loop Header: Depth=4
                                        #           Child Loop BB3_11 Depth 5
	leaq	(%rbp,%rsi), %rax
	movq	$-1, %r14
	movq	%r8, %rbx
	.p2align	4, 0x90
.LBB3_11:                               # %polly.loop_header19.us.us
                                        #   Parent Loop BB3_4 Depth=1
                                        #     Parent Loop BB3_5 Depth=2
                                        #       Parent Loop BB3_8 Depth=3
                                        #         Parent Loop BB3_10 Depth=4
                                        # =>        This Inner Loop Header: Depth=5
	addq	%rax, (%rbx)
	incq	%r14
	addq	$8, %rbx
	cmpq	%rcx, %r14
	jle	.LBB3_11
# BB#12:                                # %polly.loop_exit21.loopexit.us.us
                                        #   in Loop: Header=BB3_10 Depth=4
	addq	%r15, %r8
	cmpq	%rdi, %rbp
	leaq	1(%rbp), %rbp
	jle	.LBB3_10
.LBB3_13:                               # %polly.loop_exit12.loopexit.us
                                        #   in Loop: Header=BB3_8 Depth=3
	addq	$256, %r11              # imm = 0x100
	cmpq	%r12, %rdx
	leaq	1(%rdx), %rdx
	jne	.LBB3_8
.LBB3_14:                               # %polly.loop_exit4
                                        #   in Loop: Header=BB3_5 Depth=2
	addq	8(%rsp), %r9            # 8-byte Folded Reload
	cmpq	48(%rsp), %r10          # 8-byte Folded Reload
	leaq	1(%r10), %r10
	jle	.LBB3_5
# BB#3:                                 # %polly.par.checkNext.loopexit
                                        #   in Loop: Header=BB3_4 Depth=1
	leaq	24(%rsp), %rdi
	leaq	16(%rsp), %rsi
	callq	GOMP_loop_runtime_next
	testb	%al, %al
	jne	.LBB3_4
.LBB3_2:                                # %polly.par.exit
	callq	GOMP_loop_end_nowait
	addq	$56, %rsp
	popq	%rbx
	popq	%r12
	popq	%r13
	popq	%r14
	popq	%r15
	popq	%rbp
	retq
.Lfunc_end3:
	.size	init_polly_subfn, .Lfunc_end3-init_polly_subfn
	.cfi_endproc

	.p2align	4, 0x90
	.type	mat_mult_polly_subfn,@function
mat_mult_polly_subfn:                   # @mat_mult_polly_subfn
.Lfunc_begin4:
	.cfi_startproc
# BB#0:                                 # %polly.par.setup
	pushq	%rbp
.Ltmp98:
	.cfi_def_cfa_offset 16
	pushq	%r15
.Ltmp99:
	.cfi_def_cfa_offset 24
	pushq	%r14
.Ltmp100:
	.cfi_def_cfa_offset 32
	pushq	%r13
.Ltmp101:
	.cfi_def_cfa_offset 40
	pushq	%r12
.Ltmp102:
	.cfi_def_cfa_offset 48
	pushq	%rbx
.Ltmp103:
	.cfi_def_cfa_offset 56
	subq	$88, %rsp
.Ltmp104:
	.cfi_def_cfa_offset 144
.Ltmp105:
	.cfi_offset %rbx, -56
.Ltmp106:
	.cfi_offset %r12, -48
.Ltmp107:
	.cfi_offset %r13, -40
.Ltmp108:
	.cfi_offset %r14, -32
.Ltmp109:
	.cfi_offset %r15, -24
.Ltmp110:
	.cfi_offset %rbp, -16
	movslq	(%rdi), %rax
	movq	%rax, 24(%rsp)          # 8-byte Spill
	movslq	4(%rdi), %rbx
	movq	8(%rdi), %rax
	movq	%rax, 64(%rsp)          # 8-byte Spill
	leaq	56(%rsp), %rdi
	leaq	48(%rsp), %rsi
	callq	GOMP_loop_runtime_next
	testb	%al, %al
	je	.LBB4_2
# BB#1:                                 # %polly.par.loadIVBounds.preheader
	movq	24(%rsp), %rax          # 8-byte Reload
	decq	%rax
	sarq	$5, %rax
	movq	%rax, 32(%rsp)          # 8-byte Spill
	movq	%rbx, 72(%rsp)          # 8-byte Spill
	leaq	(,%rbx,8), %r14
	shlq	$8, %rbx
	movq	%rbx, 16(%rsp)          # 8-byte Spill
	.p2align	4, 0x90
.LBB4_4:                                # %polly.par.loadIVBounds
                                        # =>This Loop Header: Depth=1
                                        #     Child Loop BB4_5 Depth 2
                                        #       Child Loop BB4_8 Depth 3
                                        #         Child Loop BB4_10 Depth 4
	movq	48(%rsp), %rax
	movq	56(%rsp), %rcx
	movq	%rcx, 8(%rsp)           # 8-byte Spill
	addq	$-2, %rax
	movq	%rax, 80(%rsp)          # 8-byte Spill
	movq	16(%rsp), %rax          # 8-byte Reload
	imulq	%rcx, %rax
	addq	64(%rsp), %rax          # 8-byte Folded Reload
	movq	%rax, (%rsp)            # 8-byte Spill
	.p2align	4, 0x90
.LBB4_5:                                # %polly.loop_header
                                        #   Parent Loop BB4_4 Depth=1
                                        # =>  This Loop Header: Depth=2
                                        #       Child Loop BB4_8 Depth 3
                                        #         Child Loop BB4_10 Depth 4
	cmpq	$0, 32(%rsp)            # 8-byte Folded Reload
	js	.LBB4_12
# BB#6:                                 # %polly.loop_header3.preheader
                                        #   in Loop: Header=BB4_5 Depth=2
	movq	8(%rsp), %rax           # 8-byte Reload
	shlq	$5, %rax
	movq	72(%rsp), %rbp          # 8-byte Reload
	subq	%rax, %rbp
	decq	%rbp
	cmpq	$31, %rbp
	movl	$31, %eax
	cmovgq	%rax, %rbp
	testq	%rbp, %rbp
	js	.LBB4_12
# BB#7:                                 #   in Loop: Header=BB4_5 Depth=2
	decq	%rbp
	movq	(%rsp), %rax            # 8-byte Reload
	movq	%rax, 40(%rsp)          # 8-byte Spill
	xorl	%r13d, %r13d
	.p2align	4, 0x90
.LBB4_8:                                # %polly.loop_header11.preheader.us
                                        #   Parent Loop BB4_4 Depth=1
                                        #     Parent Loop BB4_5 Depth=2
                                        # =>    This Loop Header: Depth=3
                                        #         Child Loop BB4_10 Depth 4
	movq	%r13, %rcx
	shlq	$5, %rcx
	movq	%rcx, %rdx
	movq	24(%rsp), %rsi          # 8-byte Reload
	subq	%rsi, %rdx
	cmpq	$-33, %rdx
	movq	$-32, %rax
	cmovleq	%rax, %rdx
	movq	$-2, %rax
	subq	%rdx, %rax
	cmpq	$-2, %rax
	movq	$-1, %r15
	cmovleq	%r15, %rax
	cmpq	%rsi, %rcx
	jge	.LBB4_11
# BB#9:                                 #   in Loop: Header=BB4_8 Depth=3
	leaq	16(,%rax,8), %r12
	movq	40(%rsp), %rbx          # 8-byte Reload
	.p2align	4, 0x90
.LBB4_10:                               # %polly.stmt.for.body11.preheader.us.us
                                        #   Parent Loop BB4_4 Depth=1
                                        #     Parent Loop BB4_5 Depth=2
                                        #       Parent Loop BB4_8 Depth=3
                                        # =>      This Inner Loop Header: Depth=4
	xorl	%esi, %esi
	movq	%rbx, %rdi
	movq	%r12, %rdx
	callq	memset
	incq	%r15
	addq	%r14, %rbx
	cmpq	%rbp, %r15
	jle	.LBB4_10
.LBB4_11:                               # %polly.loop_exit13.loopexit.us
                                        #   in Loop: Header=BB4_8 Depth=3
	addq	$256, 40(%rsp)          # 8-byte Folded Spill
                                        # imm = 0x100
	cmpq	32(%rsp), %r13          # 8-byte Folded Reload
	leaq	1(%r13), %r13
	jne	.LBB4_8
.LBB4_12:                               # %polly.loop_exit5
                                        #   in Loop: Header=BB4_5 Depth=2
	movq	(%rsp), %rax            # 8-byte Reload
	addq	16(%rsp), %rax          # 8-byte Folded Reload
	movq	%rax, (%rsp)            # 8-byte Spill
	movq	8(%rsp), %rax           # 8-byte Reload
	cmpq	80(%rsp), %rax          # 8-byte Folded Reload
	leaq	1(%rax), %rax
	movq	%rax, 8(%rsp)           # 8-byte Spill
	jle	.LBB4_5
# BB#3:                                 # %polly.par.checkNext.loopexit
                                        #   in Loop: Header=BB4_4 Depth=1
	leaq	56(%rsp), %rdi
	leaq	48(%rsp), %rsi
	callq	GOMP_loop_runtime_next
	testb	%al, %al
	jne	.LBB4_4
.LBB4_2:                                # %polly.par.exit
	callq	GOMP_loop_end_nowait
	addq	$88, %rsp
	popq	%rbx
	popq	%r12
	popq	%r13
	popq	%r14
	popq	%r15
	popq	%rbp
	retq
.Lfunc_end4:
	.size	mat_mult_polly_subfn, .Lfunc_end4-mat_mult_polly_subfn
	.cfi_endproc

	.p2align	4, 0x90
	.type	mat_mult_polly_subfn_4,@function
mat_mult_polly_subfn_4:                 # @mat_mult_polly_subfn_4
.Lfunc_begin5:
	.cfi_startproc
# BB#0:                                 # %polly.par.setup
	pushq	%rbp
.Ltmp111:
	.cfi_def_cfa_offset 16
	pushq	%r15
.Ltmp112:
	.cfi_def_cfa_offset 24
	pushq	%r14
.Ltmp113:
	.cfi_def_cfa_offset 32
	pushq	%r13
.Ltmp114:
	.cfi_def_cfa_offset 40
	pushq	%r12
.Ltmp115:
	.cfi_def_cfa_offset 48
	pushq	%rbx
.Ltmp116:
	.cfi_def_cfa_offset 56
	subq	$200, %rsp
.Ltmp117:
	.cfi_def_cfa_offset 256
.Ltmp118:
	.cfi_offset %rbx, -56
.Ltmp119:
	.cfi_offset %r12, -48
.Ltmp120:
	.cfi_offset %r13, -40
.Ltmp121:
	.cfi_offset %r14, -32
.Ltmp122:
	.cfi_offset %r15, -24
.Ltmp123:
	.cfi_offset %rbp, -16
	movslq	(%rdi), %rax
	movq	%rax, 56(%rsp)          # 8-byte Spill
	movslq	4(%rdi), %rbp
	movq	8(%rdi), %rbx
	movq	16(%rdi), %rax
	movq	%rax, 120(%rsp)         # 8-byte Spill
	movq	24(%rdi), %rax
	movq	%rax, 128(%rsp)         # 8-byte Spill
	leaq	104(%rsp), %rdi
	leaq	96(%rsp), %rsi
	callq	GOMP_loop_runtime_next
	testb	%al, %al
	je	.LBB5_2
# BB#1:                                 # %polly.par.loadIVBounds.lr.ph
	movq	%rbp, 32(%rsp)          # 8-byte Spill
	leaq	-1(%rbp), %rax
	shrq	$5, %rax
	movq	%rax, 168(%rsp)         # 8-byte Spill
	movq	56(%rsp), %rax          # 8-byte Reload
	decq	%rax
	sarq	$5, %rax
	movq	%rax, 64(%rsp)          # 8-byte Spill
	movq	%rbp, %rax
	shlq	$8, %rax
	movq	%rax, 72(%rsp)          # 8-byte Spill
	leaq	(,%rbp,8), %r12
	shlq	$5, %rbp
	movq	%rbp, 112(%rsp)         # 8-byte Spill
	.p2align	4, 0x90
.LBB5_4:                                # %polly.par.loadIVBounds
                                        # =>This Loop Header: Depth=1
                                        #     Child Loop BB5_5 Depth 2
                                        #       Child Loop BB5_7 Depth 3
                                        #         Child Loop BB5_8 Depth 4
                                        #           Child Loop BB5_11 Depth 5
                                        #             Child Loop BB5_13 Depth 6
                                        #               Child Loop BB5_14 Depth 7
	movq	96(%rsp), %rax
	movq	104(%rsp), %rcx
	movq	%rcx, 8(%rsp)           # 8-byte Spill
	addq	$-2, %rax
	movq	%rax, 136(%rsp)         # 8-byte Spill
	movq	112(%rsp), %rax         # 8-byte Reload
	imulq	%rcx, %rax
	movq	120(%rsp), %rcx         # 8-byte Reload
	leaq	(%rcx,%rax,8), %rax
	movq	%rax, 16(%rsp)          # 8-byte Spill
	.p2align	4, 0x90
.LBB5_5:                                # %polly.loop_header
                                        #   Parent Loop BB5_4 Depth=1
                                        # =>  This Loop Header: Depth=2
                                        #       Child Loop BB5_7 Depth 3
                                        #         Child Loop BB5_8 Depth 4
                                        #           Child Loop BB5_11 Depth 5
                                        #             Child Loop BB5_13 Depth 6
                                        #               Child Loop BB5_14 Depth 7
	cmpq	$0, 64(%rsp)            # 8-byte Folded Reload
	js	.LBB5_19
# BB#6:                                 # %polly.loop_header5.preheader
                                        #   in Loop: Header=BB5_5 Depth=2
	movq	8(%rsp), %rax           # 8-byte Reload
	shlq	$5, %rax
	movq	%rax, 184(%rsp)         # 8-byte Spill
	movq	32(%rsp), %rcx          # 8-byte Reload
	subq	%rax, %rcx
	decq	%rcx
	cmpq	$31, %rcx
	movl	$31, %eax
	cmovgq	%rax, %rcx
	movq	%rcx, 176(%rsp)         # 8-byte Spill
	leaq	-1(%rcx), %rax
	movq	%rax, 192(%rsp)         # 8-byte Spill
	movq	128(%rsp), %rcx         # 8-byte Reload
	xorl	%eax, %eax
	.p2align	4, 0x90
.LBB5_7:                                # %polly.loop_header5
                                        #   Parent Loop BB5_4 Depth=1
                                        #     Parent Loop BB5_5 Depth=2
                                        # =>    This Loop Header: Depth=3
                                        #         Child Loop BB5_8 Depth 4
                                        #           Child Loop BB5_11 Depth 5
                                        #             Child Loop BB5_13 Depth 6
                                        #               Child Loop BB5_14 Depth 7
	movq	%rax, 144(%rsp)         # 8-byte Spill
	movq	%rcx, 152(%rsp)         # 8-byte Spill
	movq	%rax, %rbp
	shlq	$5, %rbp
	movq	56(%rsp), %rax          # 8-byte Reload
	subq	%rbp, %rax
	decq	%rax
	cmpq	$31, %rax
	movl	$31, %edx
	cmovleq	%rax, %rdx
	movq	%rdx, 160(%rsp)         # 8-byte Spill
	leaq	-1(%rdx), %r8
	movq	16(%rsp), %rax          # 8-byte Reload
	movq	%rax, 80(%rsp)          # 8-byte Spill
	movq	%rcx, 40(%rsp)          # 8-byte Spill
	xorl	%eax, %eax
	movq	%rax, 24(%rsp)          # 8-byte Spill
	.p2align	4, 0x90
.LBB5_8:                                # %polly.loop_header12
                                        #   Parent Loop BB5_4 Depth=1
                                        #     Parent Loop BB5_5 Depth=2
                                        #       Parent Loop BB5_7 Depth=3
                                        # =>      This Loop Header: Depth=4
                                        #           Child Loop BB5_11 Depth 5
                                        #             Child Loop BB5_13 Depth 6
                                        #               Child Loop BB5_14 Depth 7
	cmpq	$0, 176(%rsp)           # 8-byte Folded Reload
	js	.LBB5_17
# BB#9:                                 # %polly.loop_header20.preheader
                                        #   in Loop: Header=BB5_8 Depth=4
	movq	24(%rsp), %rax          # 8-byte Reload
	shlq	$5, %rax
	movq	32(%rsp), %rcx          # 8-byte Reload
	subq	%rax, %rcx
	decq	%rcx
	cmpq	$31, %rcx
	movl	$31, %eax
	cmovleq	%rcx, %rax
	movq	%rax, 88(%rsp)          # 8-byte Spill
	cmpq	$0, 160(%rsp)           # 8-byte Folded Reload
	js	.LBB5_17
# BB#10:                                #   in Loop: Header=BB5_8 Depth=4
	movq	88(%rsp), %rax          # 8-byte Reload
	leaq	-1(%rax), %r15
	movq	80(%rsp), %r10          # 8-byte Reload
	xorl	%eax, %eax
	movq	%rax, 48(%rsp)          # 8-byte Spill
	.p2align	4, 0x90
.LBB5_11:                               # %polly.loop_header29.preheader.us
                                        #   Parent Loop BB5_4 Depth=1
                                        #     Parent Loop BB5_5 Depth=2
                                        #       Parent Loop BB5_7 Depth=3
                                        #         Parent Loop BB5_8 Depth=4
                                        # =>        This Loop Header: Depth=5
                                        #             Child Loop BB5_13 Depth 6
                                        #               Child Loop BB5_14 Depth 7
	cmpq	$0, 88(%rsp)            # 8-byte Folded Reload
	js	.LBB5_16
# BB#12:                                #   in Loop: Header=BB5_11 Depth=5
	movq	184(%rsp), %rax         # 8-byte Reload
	movq	48(%rsp), %rcx          # 8-byte Reload
	leaq	(%rcx,%rax), %rdi
	imulq	32(%rsp), %rdi          # 8-byte Folded Reload
	movq	40(%rsp), %rdx          # 8-byte Reload
	xorl	%esi, %esi
	.p2align	4, 0x90
.LBB5_13:                               # %polly.loop_header38.preheader.us.us
                                        #   Parent Loop BB5_4 Depth=1
                                        #     Parent Loop BB5_5 Depth=2
                                        #       Parent Loop BB5_7 Depth=3
                                        #         Parent Loop BB5_8 Depth=4
                                        #           Parent Loop BB5_11 Depth=5
                                        # =>          This Loop Header: Depth=6
                                        #               Child Loop BB5_14 Depth 7
	leaq	(%rsi,%rbp), %r9
	addq	%rdi, %r9
	movq	(%rbx,%r9,8), %r11
	movq	$-1, %rax
	movq	%r10, %r14
	movq	%rdx, %r13
	.p2align	4, 0x90
.LBB5_14:                               # %polly.loop_header38.us.us
                                        #   Parent Loop BB5_4 Depth=1
                                        #     Parent Loop BB5_5 Depth=2
                                        #       Parent Loop BB5_7 Depth=3
                                        #         Parent Loop BB5_8 Depth=4
                                        #           Parent Loop BB5_11 Depth=5
                                        #             Parent Loop BB5_13 Depth=6
                                        # =>            This Inner Loop Header: Depth=7
	movq	(%r13), %rcx
	.loc	1 60 71                 # MatrixMult.c:60:71
	imulq	(%r14), %rcx
	.loc	1 60 51 is_stmt 0       # MatrixMult.c:60:51
	addq	%rcx, %r11
	incq	%rax
	addq	%r12, %r13
	addq	$8, %r14
	cmpq	%r15, %rax
	jle	.LBB5_14
# BB#15:                                # %polly.loop_exit40.loopexit.us.us
                                        #   in Loop: Header=BB5_13 Depth=6
	movq	%r11, (%rbx,%r9,8)
	addq	$8, %rdx
	cmpq	%r8, %rsi
	leaq	1(%rsi), %rsi
	jle	.LBB5_13
.LBB5_16:                               # %polly.loop_exit31.loopexit.us
                                        #   in Loop: Header=BB5_11 Depth=5
	addq	%r12, %r10
	movq	48(%rsp), %rax          # 8-byte Reload
	cmpq	192(%rsp), %rax         # 8-byte Folded Reload
	leaq	1(%rax), %rax
	movq	%rax, 48(%rsp)          # 8-byte Spill
	jle	.LBB5_11
.LBB5_17:                               # %polly.loop_exit22
                                        #   in Loop: Header=BB5_8 Depth=4
	movq	40(%rsp), %rax          # 8-byte Reload
	addq	72(%rsp), %rax          # 8-byte Folded Reload
	movq	%rax, 40(%rsp)          # 8-byte Spill
	addq	$256, 80(%rsp)          # 8-byte Folded Spill
                                        # imm = 0x100
	movq	24(%rsp), %rax          # 8-byte Reload
	cmpq	168(%rsp), %rax         # 8-byte Folded Reload
	leaq	1(%rax), %rax
	movq	%rax, 24(%rsp)          # 8-byte Spill
	jne	.LBB5_8
# BB#18:                                # %polly.loop_exit14
                                        #   in Loop: Header=BB5_7 Depth=3
	movq	152(%rsp), %rcx         # 8-byte Reload
	addq	$256, %rcx              # imm = 0x100
	movq	144(%rsp), %rax         # 8-byte Reload
	cmpq	64(%rsp), %rax          # 8-byte Folded Reload
	leaq	1(%rax), %rax
	jne	.LBB5_7
.LBB5_19:                               # %polly.loop_exit7
                                        #   in Loop: Header=BB5_5 Depth=2
	movq	16(%rsp), %rax          # 8-byte Reload
	addq	72(%rsp), %rax          # 8-byte Folded Reload
	movq	%rax, 16(%rsp)          # 8-byte Spill
	movq	8(%rsp), %rax           # 8-byte Reload
	cmpq	136(%rsp), %rax         # 8-byte Folded Reload
	leaq	1(%rax), %rax
	movq	%rax, 8(%rsp)           # 8-byte Spill
	jle	.LBB5_5
# BB#3:                                 # %polly.par.checkNext.loopexit
                                        #   in Loop: Header=BB5_4 Depth=1
	leaq	104(%rsp), %rdi
	leaq	96(%rsp), %rsi
	callq	GOMP_loop_runtime_next
	testb	%al, %al
	jne	.LBB5_4
.LBB5_2:                                # %polly.par.exit
	callq	GOMP_loop_end_nowait
	addq	$200, %rsp
	popq	%rbx
	popq	%r12
	popq	%r13
	popq	%r14
	popq	%r15
	popq	%rbp
	retq
.Lfunc_end5:
	.size	mat_mult_polly_subfn_4, .Lfunc_end5-mat_mult_polly_subfn_4
	.cfi_endproc

	.type	.L.str,@object          # @.str
	.section	.rodata.str1.1,"aMS",@progbits,1
.L.str:
	.asciz	"%d"
	.size	.L.str, 3

	.type	.L.str.1,@object        # @.str.1
.L.str.1:
	.asciz	"N = %d\n"
	.size	.L.str.1, 8

	.type	.L.str.2,@object        # @.str.2
.L.str.2:
	.asciz	"Pass %d X %d matrix test case \n"
	.size	.L.str.2, 32

	.type	.L.str.3,@object        # @.str.3
.L.str.3:
	.asciz	"A[%dX%d+%d] = %lld, B[%dX%d+%d] =%lld, C[%dX%d+%d] =%lld \n"
	.size	.L.str.3, 59

	.section	".note.GNU-stack","",@progbits