	.text
	.file	"MatrixMult.polly.disablevc.ll"
	.file	1 "MatrixMult.c"
	.globl	init
	.p2align	4, 0x90
	.type	init,@function
init:                                   # @init
.Lfunc_begin0:
	.loc	1 13 0                  # MatrixMult.c:13:0
	.cfi_startproc
# BB#0:                                 # %entry
	.loc	1 16 16 prologue_end    # MatrixMult.c:16:16
	pushq	%rbx
.Ltmp0:
	.cfi_def_cfa_offset 16
.Ltmp1:
	.cfi_offset %rbx, -16
	movl	$16000, %edi            # imm = 0x3E80
	callq	malloc
	movq	%rax, %rbx
	.loc	1 16 7 is_stmt 0        # MatrixMult.c:16:7
	movq	%rbx, A(%rip)
	.loc	1 17 18 is_stmt 1       # MatrixMult.c:17:18
	movl	$16000000, %edi         # imm = 0xF42400
	callq	malloc
	.loc	1 17 10 is_stmt 0       # MatrixMult.c:17:10
	movq	%rax, (%rbx)
	xorl	%eax, %eax
	movl	$32000, %ecx            # imm = 0x7D00
.Ltmp2:
	#DEBUG_VALUE: init:i <- 0
	.p2align	4, 0x90
.LBB0_1:                                # %for.body
                                        # =>This Inner Loop Header: Depth=1
	.loc	1 20 18 is_stmt 1       # MatrixMult.c:20:18
	movq	A(%rip), %rdx
	.loc	1 20 17 is_stmt 0       # MatrixMult.c:20:17
	movq	(%rdx), %rsi
	.loc	1 20 14                 # MatrixMult.c:20:14
	leaq	-32000(%rsi,%rcx), %rsi
	movq	%rsi, (%rdx,%rax)
	.loc	1 20 18                 # MatrixMult.c:20:18
	movq	A(%rip), %rdx
	.loc	1 20 17                 # MatrixMult.c:20:17
	movq	(%rdx), %rsi
	.loc	1 20 14                 # MatrixMult.c:20:14
	leaq	-24000(%rsi,%rcx), %rsi
	movq	%rsi, 8(%rdx,%rax)
	.loc	1 20 18                 # MatrixMult.c:20:18
	movq	A(%rip), %rdx
	.loc	1 20 17                 # MatrixMult.c:20:17
	movq	(%rdx), %rsi
	.loc	1 20 14                 # MatrixMult.c:20:14
	leaq	-16000(%rsi,%rcx), %rsi
	movq	%rsi, 16(%rdx,%rax)
	.loc	1 20 18                 # MatrixMult.c:20:18
	movq	A(%rip), %rdx
	.loc	1 20 17                 # MatrixMult.c:20:17
	movq	(%rdx), %rsi
	.loc	1 20 14                 # MatrixMult.c:20:14
	leaq	-8000(%rsi,%rcx), %rsi
	movq	%rsi, 24(%rdx,%rax)
	.loc	1 20 18                 # MatrixMult.c:20:18
	movq	A(%rip), %rdx
	movq	(%rdx), %rsi
	.loc	1 20 14                 # MatrixMult.c:20:14
	addq	%rcx, %rsi
	movq	%rsi, 32(%rdx,%rax)
.Ltmp3:
	.loc	1 19 5 is_stmt 1 discriminator 1 # MatrixMult.c:19:5
	addq	$40, %rax
	addq	$40000, %rcx            # imm = 0x9C40
	cmpq	$16000, %rax            # imm = 0x3E80
	jne	.LBB0_1
.Ltmp4:
# BB#2:                                 # %for.cond6.preheader.preheader
	.loc	1 32 23                 # MatrixMult.c:32:23
	movq	A(%rip), %r8
	xorl	%ecx, %ecx
	movl	$B+16, %eax
	movl	$B+4, %r9d
	xorl	%edi, %edi
.Ltmp5:
	.p2align	4, 0x90
.LBB0_3:                                # %for.cond6.preheader
                                        # =>This Loop Header: Depth=1
                                        #     Child Loop BB0_4 Depth 2
	.loc	1 25 13                 # MatrixMult.c:25:13
	movq	(%r8,%rdi,8), %rbx
	movq	%rax, %rsi
	movl	$4, %edx
	.p2align	4, 0x90
.LBB0_4:                                # %for.body8
                                        #   Parent Loop BB0_3 Depth=1
                                        # =>  This Inner Loop Header: Depth=2
	.loc	1 25 21 is_stmt 0       # MatrixMult.c:25:21
	movl	$0, -16(%rbx,%rdx,4)
	.loc	1 26 21 is_stmt 1       # MatrixMult.c:26:21
	movl	$0, -16(%rsi)
	.loc	1 25 21                 # MatrixMult.c:25:21
	movl	$0, -12(%rbx,%rdx,4)
	.loc	1 26 21                 # MatrixMult.c:26:21
	movl	$0, -12(%rsi)
	.loc	1 25 21                 # MatrixMult.c:25:21
	movl	$0, -8(%rbx,%rdx,4)
	.loc	1 26 21                 # MatrixMult.c:26:21
	movl	$0, -8(%rsi)
	.loc	1 25 21                 # MatrixMult.c:25:21
	movl	$0, -4(%rbx,%rdx,4)
	.loc	1 26 21                 # MatrixMult.c:26:21
	movl	$0, -4(%rsi)
	.loc	1 25 21                 # MatrixMult.c:25:21
	movl	$0, (%rbx,%rdx,4)
	.loc	1 26 21                 # MatrixMult.c:26:21
	movl	$0, (%rsi)
.Ltmp6:
	.loc	1 24 9 discriminator 1  # MatrixMult.c:24:9
	addq	$5, %rdx
	addq	$20, %rsi
	cmpq	$2004, %rdx             # imm = 0x7D4
	jne	.LBB0_4
.Ltmp7:
# BB#5:                                 # %for.inc20
                                        #   in Loop: Header=BB0_3 Depth=1
	.loc	1 23 5 discriminator 1  # MatrixMult.c:23:5
	incq	%rdi
	addq	$8000, %rax             # imm = 0x1F40
	cmpq	$2000, %rdi             # imm = 0x7D0
	jne	.LBB0_3
.Ltmp8:
	.p2align	4, 0x90
.LBB0_6:                                # %for.cond26.preheader
                                        # =>This Loop Header: Depth=1
                                        #     Child Loop BB0_7 Depth 2
	.loc	1 32 23                 # MatrixMult.c:32:23
	movq	(%r8,%rcx,8), %rax
	movq	%r9, %rdx
	movl	$1, %esi
	.p2align	4, 0x90
.LBB0_7:                                # %for.body28
                                        #   Parent Loop BB0_6 Depth=1
                                        # =>  This Inner Loop Header: Depth=2
	.loc	1 32 21 is_stmt 0       # MatrixMult.c:32:21
	addl	%ecx, -4(%rax,%rsi,4)
	.loc	1 33 21 is_stmt 1       # MatrixMult.c:33:21
	addl	%ecx, -4(%rdx)
	.loc	1 32 21                 # MatrixMult.c:32:21
	addl	%ecx, (%rax,%rsi,4)
	.loc	1 33 21                 # MatrixMult.c:33:21
	addl	%ecx, (%rdx)
.Ltmp9:
	.loc	1 31 9 discriminator 1  # MatrixMult.c:31:9
	addq	$2, %rsi
	addq	$8, %rdx
	cmpq	$2001, %rsi             # imm = 0x7D1
	jne	.LBB0_7
.Ltmp10:
# BB#8:                                 # %for.inc49
                                        #   in Loop: Header=BB0_6 Depth=1
	.loc	1 30 5 discriminator 1  # MatrixMult.c:30:5
	incq	%rcx
	addq	$8000, %r9              # imm = 0x1F40
	cmpq	$2000, %rcx             # imm = 0x7D0
	jne	.LBB0_6
.Ltmp11:
# BB#9:                                 # %for.end51
	.loc	1 36 1                  # MatrixMult.c:36:1
	popq	%rbx
	retq
.Ltmp12:
.Lfunc_end0:
	.size	init, .Lfunc_end0-init
	.cfi_endproc

	.globl	mat_mult
	.p2align	4, 0x90
	.type	mat_mult,@function
mat_mult:                               # @mat_mult
.Lfunc_begin1:
	.loc	1 38 0                  # MatrixMult.c:38:0
	.cfi_startproc
# BB#0:                                 # %entry
	.loc	1 44 37 prologue_end    # MatrixMult.c:44:37
	pushq	%rbx
.Ltmp13:
	.cfi_def_cfa_offset 16
.Ltmp14:
	.cfi_offset %rbx, -16
.Ltmp15:
	#DEBUG_VALUE: mat_mult:i <- 0
	movq	A(%rip), %r8
	xorl	%r9d, %r9d
	.p2align	4, 0x90
.LBB1_1:                                # %for.cond1.preheader
                                        # =>This Loop Header: Depth=1
                                        #     Child Loop BB1_2 Depth 2
                                        #       Child Loop BB1_3 Depth 3
	movq	(%r8,%r9,8), %r10
.Ltmp16:
	.loc	1 41 9 discriminator 1  # MatrixMult.c:41:9
	addq	$4, %r10
	xorl	%esi, %esi
	.p2align	4, 0x90
.LBB1_2:                                # %for.body3
                                        #   Parent Loop BB1_1 Depth=1
                                        # =>  This Loop Header: Depth=2
                                        #       Child Loop BB1_3 Depth 3
.Ltmp17:
	.loc	1 42 13                 # MatrixMult.c:42:13
	imulq	$16000, %r9, %rax       # imm = 0x3E80
	leaq	C(%rax,%rsi,8), %r11
	.loc	1 42 21 is_stmt 0       # MatrixMult.c:42:21
	movq	$0, C(%rax,%rsi,8)
	movq	$-16000000, %rax        # imm = 0xFFFFFFFFFF0BDC00
.Ltmp18:
	#DEBUG_VALUE: mat_mult:k <- 0
	.loc	1 44 27 is_stmt 1       # MatrixMult.c:44:27
	movq	%r10, %rdx
	xorl	%ecx, %ecx
	.p2align	4, 0x90
.LBB1_3:                                # %for.body8
                                        #   Parent Loop BB1_1 Depth=1
                                        #     Parent Loop BB1_2 Depth=2
                                        # =>    This Inner Loop Header: Depth=3
	.loc	1 44 37 is_stmt 0       # MatrixMult.c:44:37
	movslq	B+16000000(%rax,%rsi,4), %rdi
	movslq	-4(%rdx), %rbx
	.loc	1 44 45                 # MatrixMult.c:44:45
	imulq	%rdi, %rbx
	.loc	1 44 35                 # MatrixMult.c:44:35
	addq	%rcx, %rbx
	.loc	1 44 37                 # MatrixMult.c:44:37
	movslq	B+16008000(%rax,%rsi,4), %rdi
	movslq	(%rdx), %rcx
	.loc	1 44 45                 # MatrixMult.c:44:45
	imulq	%rdi, %rcx
	.loc	1 44 35                 # MatrixMult.c:44:35
	addq	%rbx, %rcx
	.loc	1 43 13 is_stmt 1 discriminator 1 # MatrixMult.c:43:13
	addq	$8, %rdx
	addq	$16000, %rax            # imm = 0x3E80
	jne	.LBB1_3
# BB#4:                                 # %for.inc25
                                        #   in Loop: Header=BB1_2 Depth=2
	.loc	1 44 27                 # MatrixMult.c:44:27
	movq	%rcx, (%r11)
.Ltmp19:
	.loc	1 41 9 discriminator 1  # MatrixMult.c:41:9
	incq	%rsi
	cmpq	$2000, %rsi             # imm = 0x7D0
	jne	.LBB1_2
.Ltmp20:
# BB#5:                                 # %for.inc28
                                        #   in Loop: Header=BB1_1 Depth=1
	.loc	1 40 5 discriminator 1  # MatrixMult.c:40:5
	incq	%r9
	cmpq	$2000, %r9              # imm = 0x7D0
	jne	.LBB1_1
.Ltmp21:
# BB#6:                                 # %for.end30
	.loc	1 47 1                  # MatrixMult.c:47:1
	popq	%rbx
	retq
.Ltmp22:
.Lfunc_end1:
	.size	mat_mult, .Lfunc_end1-mat_mult
	.cfi_endproc

	.globl	main
	.p2align	4, 0x90
	.type	main,@function
main:                                   # @main
.Lfunc_begin2:
	.loc	1 63 0                  # MatrixMult.c:63:0
	.cfi_startproc
# BB#0:                                 # %entry
	.loc	1 64 5 prologue_end     # MatrixMult.c:64:5
	subq	$40, %rsp
.Ltmp23:
	.cfi_def_cfa_offset 48
	callq	init
	.loc	1 65 5                  # MatrixMult.c:65:5
	callq	mat_mult
	.loc	1 68 5                  # MatrixMult.c:68:5
	movl	$.L.str, %edi
	movl	$2000, %esi             # imm = 0x7D0
	movl	$2000, %edx             # imm = 0x7D0
	xorl	%eax, %eax
	callq	printf
	.loc	1 70 19                 # MatrixMult.c:70:19
	movq	A(%rip), %rax
	movq	15992(%rax), %rax
	movl	7996(%rax), %ecx
	.loc	1 71 19                 # MatrixMult.c:71:19
	movl	B+15999996(%rip), %eax
	movl	$31999992, %edx         # imm = 0x1E847F8
	.loc	1 72 19                 # MatrixMult.c:72:19
	movq	C(%rdx), %rdx
	.loc	1 69 5                  # MatrixMult.c:69:5
	movq	%rdx, 24(%rsp)
	movl	%eax, (%rsp)
	movl	$1999, 16(%rsp)         # imm = 0x7CF
	movl	$1999, 8(%rsp)          # imm = 0x7CF
	movl	$.L.str.1, %edi
	movl	$1999, %esi             # imm = 0x7CF
	movl	$1999, %edx             # imm = 0x7CF
	movl	$1999, %r8d             # imm = 0x7CF
	movl	$1999, %r9d             # imm = 0x7CF
	xorl	%eax, %eax
	callq	printf
	.loc	1 73 5                  # MatrixMult.c:73:5
	xorl	%eax, %eax
	addq	$40, %rsp
	retq
.Ltmp24:
.Lfunc_end2:
	.size	main, .Lfunc_end2-main
	.cfi_endproc

	.type	A,@object               # @A
	.comm	A,8,8
	.type	B,@object               # @B
	.comm	B,16000000,16
	.type	C,@object               # @C
	.comm	C,32000000,16
	.type	.L.str,@object          # @.str
	.section	.rodata.str1.1,"aMS",@progbits,1
.L.str:
	.asciz	"Pass %d X %d matrix test case \n"
	.size	.L.str, 32

	.type	.L.str.1,@object        # @.str.1
.L.str.1:
	.asciz	"A[%d][%d] = %d, B[%d][%d] =%d, C[%d][%d] =%lld \n"
	.size	.L.str.1, 49

	.section	".note.GNU-stack","",@progbits