	.text
	.file	"MatrixMult.none.ll"
	.file	1 "MatrixMult.c"
	.globl	init_array
	.p2align	4, 0x90
	.type	init_array,@function
init_array:                             # @init_array
.Lfunc_begin0:
	.loc	1 8 0                   # MatrixMult.c:8:0
	.cfi_startproc
# BB#0:                                 # %entry
	pushq	%rbp
.Ltmp0:
	.cfi_def_cfa_offset 16
.Ltmp1:
	.cfi_offset %rbp, -16
	movq	%rsp, %rbp
.Ltmp2:
	.cfi_def_cfa_register %rbp
	xorl	%eax, %eax
	xorl	%ecx, %ecx
	.p2align	4, 0x90
.LBB0_1:                                # %for.cond1.preheader
                                        # =>This Loop Header: Depth=1
                                        #     Child Loop BB0_2 Depth 2
	movq	%rax, %rdx
	movl	$32, %esi
	.p2align	4, 0x90
.LBB0_2:                                # %for.body3
                                        #   Parent Loop BB0_1 Depth=1
                                        # =>  This Inner Loop Header: Depth=2
.Ltmp3:
	.loc	1 13 21 prologue_end    # MatrixMult.c:13:21
	movq	$1, A(%rdx)
	.loc	1 14 21                 # MatrixMult.c:14:21
	movq	$1, B(%rdx)
.Ltmp4:
	.loc	1 12 9 discriminator 1  # MatrixMult.c:12:9
	addq	$8, %rdx
	decq	%rsi
	jne	.LBB0_2
.Ltmp5:
# BB#3:                                 # %for.inc10
                                        #   in Loop: Header=BB0_1 Depth=1
	.loc	1 11 5 discriminator 1  # MatrixMult.c:11:5
	incq	%rcx
	addq	$256, %rax              # imm = 0x100
	cmpq	$32, %rcx
	jne	.LBB0_1
.Ltmp6:
# BB#4:                                 # %for.end12
	.loc	1 17 1                  # MatrixMult.c:17:1
	popq	%rbp
	retq
.Ltmp7:
.Lfunc_end0:
	.size	init_array, .Lfunc_end0-init_array
	.cfi_endproc

	.globl	mat_mult
	.p2align	4, 0x90
	.type	mat_mult,@function
mat_mult:                               # @mat_mult
.Lfunc_begin1:
	.loc	1 19 0                  # MatrixMult.c:19:0
	.cfi_startproc
# BB#0:                                 # %entry
	pushq	%rbp
.Ltmp8:
	.cfi_def_cfa_offset 16
.Ltmp9:
	.cfi_offset %rbp, -16
	movq	%rsp, %rbp
.Ltmp10:
	.cfi_def_cfa_register %rbp
	movl	$A, %r8d
	xorl	%r9d, %r9d
	.p2align	4, 0x90
.LBB1_1:                                # %for.cond1.preheader
                                        # =>This Loop Header: Depth=1
                                        #     Child Loop BB1_2 Depth 2
                                        #       Child Loop BB1_3 Depth 3
	xorl	%edx, %edx
	.p2align	4, 0x90
.LBB1_2:                                # %for.body3
                                        #   Parent Loop BB1_1 Depth=1
                                        # =>  This Loop Header: Depth=2
                                        #       Child Loop BB1_3 Depth 3
.Ltmp11:
	.loc	1 23 13 prologue_end    # MatrixMult.c:23:13
	movq	%r9, %rsi
	shlq	$8, %rsi
	.loc	1 23 21 is_stmt 0       # MatrixMult.c:23:21
	movq	$0, C(%rsi,%rdx,8)
.Ltmp12:
	#DEBUG_VALUE: mat_mult:k <- 0
	movq	$-8192, %rdi            # imm = 0xFFFFFFFFFFFFE000
	movq	%r8, %rax
	.p2align	4, 0x90
.LBB1_3:                                # %for.body8
                                        #   Parent Loop BB1_1 Depth=1
                                        #     Parent Loop BB1_2 Depth=2
                                        # =>    This Inner Loop Header: Depth=3
.Ltmp13:
	.loc	1 25 47 is_stmt 1       # MatrixMult.c:25:47
	movq	B+8192(%rdi,%rdx,8), %rcx
	.loc	1 25 45 is_stmt 0       # MatrixMult.c:25:45
	imulq	(%rax), %rcx
	.loc	1 25 25                 # MatrixMult.c:25:25
	addq	%rcx, C(%rsi,%rdx,8)
	.loc	1 24 13 is_stmt 1 discriminator 1 # MatrixMult.c:24:13
	addq	$8, %rax
	addq	$256, %rdi              # imm = 0x100
	jne	.LBB1_3
.Ltmp14:
# BB#4:                                 # %for.inc25
                                        #   in Loop: Header=BB1_2 Depth=2
	.loc	1 22 9 discriminator 1  # MatrixMult.c:22:9
	incq	%rdx
	cmpq	$32, %rdx
	jne	.LBB1_2
.Ltmp15:
# BB#5:                                 # %for.inc28
                                        #   in Loop: Header=BB1_1 Depth=1
	.loc	1 21 5 discriminator 1  # MatrixMult.c:21:5
	incq	%r9
	addq	$256, %r8               # imm = 0x100
	cmpq	$32, %r9
	jne	.LBB1_1
.Ltmp16:
# BB#6:                                 # %for.end30
	.loc	1 29 1                  # MatrixMult.c:29:1
	popq	%rbp
	retq
.Ltmp17:
.Lfunc_end1:
	.size	mat_mult, .Lfunc_end1-mat_mult
	.cfi_endproc

	.globl	print_array
	.p2align	4, 0x90
	.type	print_array,@function
print_array:                            # @print_array
.Lfunc_begin2:
	.loc	1 32 0                  # MatrixMult.c:32:0
	.cfi_startproc
# BB#0:                                 # %entry
	pushq	%rbp
.Ltmp18:
	.cfi_def_cfa_offset 16
.Ltmp19:
	.cfi_offset %rbp, -16
	movq	%rsp, %rbp
.Ltmp20:
	.cfi_def_cfa_register %rbp
	pushq	%r15
	pushq	%r14
	pushq	%r12
	pushq	%rbx
.Ltmp21:
	.cfi_offset %rbx, -48
.Ltmp22:
	.cfi_offset %r12, -40
.Ltmp23:
	.cfi_offset %r14, -32
.Ltmp24:
	.cfi_offset %r15, -24
	movl	$C, %r14d
	xorl	%r15d, %r15d
	.p2align	4, 0x90
.LBB2_1:                                # %for.cond1.preheader
                                        # =>This Loop Header: Depth=1
                                        #     Child Loop BB2_2 Depth 2
.Ltmp25:
	.loc	1 37 21 prologue_end    # MatrixMult.c:37:21
	movq	stdout(%rip), %rcx
	movq	%r14, %rbx
	movl	$32, %r12d
	.p2align	4, 0x90
.LBB2_2:                                # %for.inc
                                        #   Parent Loop BB2_1 Depth=1
                                        # =>  This Inner Loop Header: Depth=2
	.loc	1 37 38 is_stmt 0       # MatrixMult.c:37:38
	movq	(%rbx), %rdx
	.loc	1 37 13                 # MatrixMult.c:37:13
	movl	$.L.str, %esi
	xorl	%eax, %eax
	movq	%rcx, %rdi
	callq	fprintf
	.loc	1 37 21                 # MatrixMult.c:37:21
	movq	stdout(%rip), %rcx
.Ltmp26:
	.loc	1 36 9 is_stmt 1 discriminator 1 # MatrixMult.c:36:9
	addq	$8, %rbx
	decq	%r12
	jne	.LBB2_2
.Ltmp27:
# BB#3:                                 # %for.end
                                        #   in Loop: Header=BB2_1 Depth=1
	.loc	1 40 9                  # MatrixMult.c:40:9
	movl	$10, %edi
	movq	%rcx, %rsi
	callq	fputc
.Ltmp28:
	.loc	1 35 5 discriminator 1  # MatrixMult.c:35:5
	incq	%r15
	addq	$256, %r14              # imm = 0x100
	cmpq	$32, %r15
	jne	.LBB2_1
.Ltmp29:
# BB#4:                                 # %for.end11
	.loc	1 42 1                  # MatrixMult.c:42:1
	popq	%rbx
	popq	%r12
	popq	%r14
	popq	%r15
	popq	%rbp
	retq
.Ltmp30:
.Lfunc_end2:
	.size	print_array, .Lfunc_end2-print_array
	.cfi_endproc

	.globl	main
	.p2align	4, 0x90
	.type	main,@function
main:                                   # @main
.Lfunc_begin3:
	.loc	1 45 0                  # MatrixMult.c:45:0
	.cfi_startproc
# BB#0:                                 # %entry
	pushq	%rbp
.Ltmp31:
	.cfi_def_cfa_offset 16
.Ltmp32:
	.cfi_offset %rbp, -16
	movq	%rsp, %rbp
.Ltmp33:
	.cfi_def_cfa_register %rbp
	pushq	%rbx
	pushq	%rax
.Ltmp34:
	.cfi_offset %rbx, -24
	movl	$10000, %ebx            # imm = 0x2710
	.p2align	4, 0x90
.LBB3_1:                                # %for.body
                                        # =>This Inner Loop Header: Depth=1
.Ltmp35:
	.loc	1 51 9 prologue_end     # MatrixMult.c:51:9
	callq	init_array
	.loc	1 52 9                  # MatrixMult.c:52:9
	callq	mat_mult
.Ltmp36:
	.loc	1 50 5 discriminator 1  # MatrixMult.c:50:5
	decl	%ebx
	jne	.LBB3_1
.Ltmp37:
# BB#2:                                 # %for.end
	.loc	1 55 71                 # MatrixMult.c:55:71
	movq	C+8184(%rip), %rcx
	.loc	1 55 5 is_stmt 0        # MatrixMult.c:55:5
	movl	$.L.str.2, %edi
	movl	$32, %esi
	movl	$32, %edx
	xorl	%eax, %eax
	callq	printf
	.loc	1 56 5 is_stmt 1        # MatrixMult.c:56:5
	xorl	%eax, %eax
	addq	$8, %rsp
	popq	%rbx
	popq	%rbp
	retq
.Ltmp38:
.Lfunc_end3:
	.size	main, .Lfunc_end3-main
	.cfi_endproc

	.type	A,@object               # @A
	.comm	A,8192,16
	.type	B,@object               # @B
	.comm	B,8192,16
	.type	C,@object               # @C
	.comm	C,8192,16
	.type	.L.str,@object          # @.str
	.section	.rodata.str1.1,"aMS",@progbits,1
.L.str:
	.asciz	"%lld "
	.size	.L.str, 6

	.type	.L.str.1,@object        # @.str.1
.L.str.1:
	.asciz	"\n"
	.size	.L.str.1, 2

	.type	.L.str.2,@object        # @.str.2
.L.str.2:
	.asciz	"Pass %d X %d matrix test case (C[N][N] =%lld) \n "
	.size	.L.str.2, 49

	.section	".note.GNU-stack","",@progbits